
Optional file vector_offset_init.o not found
Archive member included to satisfy reference by file (symbol)

c:/program files/microchip/xc32/v3.00/bin/bin/../../lib/gcc/pic32mx/8.3.1/fpu64\libgcc.a(_udivdi3.o)
                              build/pic32mz/production/_ext/1636986698/sys_time.o (__udivdi3)
c:/program files/microchip/xc32/v3.00/bin/bin/../../lib/gcc/pic32mx/8.3.1/../../../../pic32mx/lib/fpu64\libpic32.a(memcmp.o)
                              build/pic32mz/production/_ext/757013429/drv_sdspi.o (memcmp)
c:/program files/microchip/xc32/v3.00/bin/bin/../../lib/gcc/pic32mx/8.3.1/../../../../pic32mx/lib/fpu64\libpic32.a(memcpy.o)
                              build/pic32mz/production/_ext/727274963/diskio.o (memcpy)
c:/program files/microchip/xc32/v3.00/bin/bin/../../lib/gcc/pic32mx/8.3.1/../../../../pic32mx/lib/fpu64\libpic32.a(memset.o)
                              build/pic32mz/production/_ext/757013429/drv_sdspi.o (memset)
c:/program files/microchip/xc32/v3.00/bin/bin/../../lib/gcc/pic32mx/8.3.1/../../../../pic32mx/lib/fpu64\libpic32.a(strcmp.o)
                              build/pic32mz/production/_ext/252936118/sys_fs_media_manager.o (strcmp)
c:/program files/microchip/xc32/v3.00/bin/bin/../../lib/gcc/pic32mx/8.3.1/../../../../pic32mx/lib/fpu64\libpic32.a(strcpy.o)
                              build/pic32mz/production/_ext/252936118/sys_fs.o (strcpy)
c:/program files/microchip/xc32/v3.00/bin/bin/../../lib/gcc/pic32mx/8.3.1/../../../../pic32mx/lib/fpu64\libpic32.a(strlen.o)
                              build/pic32mz/production/_ext/252936118/sys_fs.o (strlen)
c:/program files/microchip/xc32/v3.00/bin/bin/../../lib/gcc/pic32mx/8.3.1/../../../../pic32mx/lib/fpu64\libpic32.a(default-on-reset.o)
                              C:\Users\VAMSIK~1.A\AppData\Local\Temp\cc9bld9L.o (_on_reset)
c:/program files/microchip/xc32/v3.00/bin/bin/../../lib/gcc/pic32mx/8.3.1/../../../../pic32mx/lib/fpu64\libpic32.a(default-on-bootstrap.o)
                              C:\Users\VAMSIK~1.A\AppData\Local\Temp\cc9bld9L.o (_on_bootstrap)
c:/program files/microchip/xc32/v3.00/bin/bin/../../lib/gcc/pic32mx/8.3.1/../../../../pic32mx/lib/fpu64\libpic32.a(default-nmi-handler.o)
                              C:\Users\VAMSIK~1.A\AppData\Local\Temp\cc9bld9L.o (_nmi_handler)
c:/program files/microchip/xc32/v3.00/bin/bin/../../lib/gcc/pic32mx/8.3.1/../../../../pic32mx/lib/fpu64\libpic32.a(pic32_data_init.o)
                              C:\Users\VAMSIK~1.A\AppData\Local\Temp\cc9bld9L.o (__pic32_data_init)
c:/program files/microchip/xc32/v3.00/bin/bin/../../lib/gcc/pic32mx/8.3.1/../../../../pic32mx/lib/fpu64\libpic32.a(pic32_init_cache.o)
                              C:\Users\VAMSIK~1.A\AppData\Local\Temp\cc9bld9L.o (__pic32_init_cache)
c:/program files/microchip/xc32/v3.00/bin/bin/../../lib/gcc/pic32mx/8.3.1/../../../../pic32mx/lib/fpu64\libpic32.a(pic32_init_tlb_ebi_sqi.o)
                              C:\Users\VAMSIK~1.A\AppData\Local\Temp\cc9bld9L.o (__pic32_tlb_init_ebi_sqi)
c:/program files/microchip/xc32/v3.00/bin/bin/../../lib/gcc/pic32mx/8.3.1/../../../../pic32mx/lib/fpu64\libpic32.a(general-exception.o)
                              C:\Users\VAMSIK~1.A\AppData\Local\Temp\cc9bld9L.o (_general_exception_context)
c:/program files/microchip/xc32/v3.00/bin/bin/../../lib/gcc/pic32mx/8.3.1/../../../../pic32mx/lib/fpu64\libpic32.a(cache-err-exception.o)
                              C:\Users\VAMSIK~1.A\AppData\Local\Temp\cc9bld9L.o (_cache_err_exception_context)
c:/program files/microchip/xc32/v3.00/bin/bin/../../lib/gcc/pic32mx/8.3.1/../../../../pic32mx/lib/fpu64\libpic32.a(simple-tlb-refill-exception.o)
                              C:\Users\VAMSIK~1.A\AppData\Local\Temp\cc9bld9L.o (_simple_tlb_refill_exception_context)
c:/program files/microchip/xc32/v3.00/bin/bin/../../lib/gcc/pic32mx/8.3.1/../../../../pic32mx/lib/fpu64\libpic32.a(defaultinterrupt.o)
                              C:\Users\VAMSIK~1.A\AppData\Local\Temp\cchP97wt.o (_DefaultInterrupt)
c:/program files/microchip/xc32/v3.00/bin/bin/../../lib/gcc/pic32mx/8.3.1/../../../../pic32mx/lib/fpu64\libc.a(_iob.o)
                              build/pic32mz/production/_ext/953055421/initialization.o (_iob)
c:/program files/microchip/xc32/v3.00/bin/bin/../../lib/gcc/pic32mx/8.3.1/../../../../pic32mx/lib/fpu64\libc.a(memmove.o)
                              build/pic32mz/production/_ext/727274963/diskio.o (memmove)
c:/program files/microchip/xc32/v3.00/bin/bin/../../lib/gcc/pic32mx/8.3.1/../../../../pic32mx/lib/fpu64\libc.a(setbuf.o)
                              build/pic32mz/production/_ext/953055421/initialization.o (setbuf)
c:/program files/microchip/xc32/v3.00/bin/bin/../../lib/gcc/pic32mx/8.3.1/../../../../pic32mx/lib/fpu64\libc.a(strncmp.o)
                              build/pic32mz/production/_ext/252936118/sys_fs.o (strncmp)
c:/program files/microchip/xc32/v3.00/bin/bin/../../lib/gcc/pic32mx/8.3.1/../../../../pic32mx/lib/fpu64\libc.a(strncpy.o)
                              build/pic32mz/production/_ext/1360937237/mdot.o (strncpy)
c:/program files/microchip/xc32/v3.00/bin/bin/../../lib/gcc/pic32mx/8.3.1/../../../../pic32mx/lib/fpu64\libc.a(sprintf_cdnopsuxX.eo)
                              build/pic32mz/production/_ext/1360937237/mdot.o (_sprintf_cdnopsuxX)
c:/program files/microchip/xc32/v3.00/bin/bin/../../lib/gcc/pic32mx/8.3.1/../../../../pic32mx/lib/fpu64\libc.a(buf.o)
                              c:/program files/microchip/xc32/v3.00/bin/bin/../../lib/gcc/pic32mx/8.3.1/../../../../pic32mx/lib/fpu64\libc.a(setbuf.o) (_bufallo)
c:/program files/microchip/xc32/v3.00/bin/bin/../../lib/gcc/pic32mx/8.3.1/../../../../pic32mx/lib/fpu64\libc.a(errno.o)
                              c:/program files/microchip/xc32/v3.00/bin/bin/../../lib/gcc/pic32mx/8.3.1/../../../../pic32mx/lib/fpu64\libc.a(buf.o) (errno)
c:/program files/microchip/xc32/v3.00/bin/bin/../../lib/gcc/pic32mx/8.3.1/../../../../pic32mx/lib/fpu64\libc.a(doprnt_cdnopsuxX.eo)
                              c:/program files/microchip/xc32/v3.00/bin/bin/../../lib/gcc/pic32mx/8.3.1/../../../../pic32mx/lib/fpu64\libc.a(sprintf_cdnopsuxX.eo) (_vfprintf_cdnopsuxX)
c:/program files/microchip/xc32/v3.00/bin/bin/../../lib/gcc/pic32mx/8.3.1/../../../../pic32mx/lib/fpu64\libc.a(_fputc_simple.o)
                              c:/program files/microchip/xc32/v3.00/bin/bin/../../lib/gcc/pic32mx/8.3.1/../../../../pic32mx/lib/fpu64\libc.a(doprnt_cdnopsuxX.eo) (fputc)
c:/program files/microchip/xc32/v3.00/bin/bin/../../lib/gcc/pic32mx/8.3.1/../../../../pic32mx/lib/fpu64\libc.a(ctype.o)
                              c:/program files/microchip/xc32/v3.00/bin/bin/../../lib/gcc/pic32mx/8.3.1/../../../../pic32mx/lib/fpu64\libc.a(doprnt_cdnopsuxX.eo) (_ctype)
c:/program files/microchip/xc32/v3.00/bin/bin/../../lib/gcc/pic32mx/8.3.1/../../../../pic32mx/lib/fpu64\libc.a(_flsbuf_simple.o)
                              c:/program files/microchip/xc32/v3.00/bin/bin/../../lib/gcc/pic32mx/8.3.1/../../../../pic32mx/lib/fpu64\libc.a(_fputc_simple.o) (_flsbuf)
c:/program files/microchip/xc32/v3.00/bin/bin/../../lib/gcc/pic32mx/8.3.1/fpu64\libgcc.a(_lshrdi3.o)
                              c:/program files/microchip/xc32/v3.00/bin/bin/../../lib/gcc/pic32mx/8.3.1/../../../../pic32mx/lib/fpu64\libc.a(doprnt_cdnopsuxX.eo) (__lshrdi3)
c:/program files/microchip/xc32/v3.00/bin/bin/../../lib/gcc/pic32mx/8.3.1/fpu64\libgcc.a(_umoddi3.o)
                              c:/program files/microchip/xc32/v3.00/bin/bin/../../lib/gcc/pic32mx/8.3.1/../../../../pic32mx/lib/fpu64\libc.a(doprnt_cdnopsuxX.eo) (__umoddi3)
c:/program files/microchip/xc32/v3.00/bin/bin/../../lib/gcc/pic32mx/8.3.1/../../../../pic32mx/lib/fpu64\libpic32.a(sbrk.o)
                              c:/program files/microchip/xc32/v3.00/bin/bin/../../lib/gcc/pic32mx/8.3.1/../../../../pic32mx/lib/fpu64\libc.a(buf.o) (sbrk)
c:/program files/microchip/xc32/v3.00/bin/bin/../../lib/gcc/pic32mx/8.3.1/../../../../pic32mx/lib/fpu64\libpic32.a(write.o)
                              c:/program files/microchip/xc32/v3.00/bin/bin/../../lib/gcc/pic32mx/8.3.1/../../../../pic32mx/lib/fpu64\libc.a(_fputc_simple.o) (write)

Microchip PIC32 Memory-Usage Report

kseg0 Program-Memory Usage
section                    address  length [bytes]      (dec)  Description
-------                 ----------  -------------------------  -----------
.simple_tlb_refill_excp 0x9d000000           0x10          16   
.text._DRV_SPI_Resource 0x9d000010           0xec         236   
.cache_err_excpt        0x9d000100           0x10          16   
.text._USB_DEVICE_CDC_D 0x9d000110           0x70         112   
.app_excpt              0x9d000180           0x10          16  General-Exception 
.text.memmove           0x9d000190           0x6c         108   
.vectors                0x9d000200          0x138         312   
.text.DRV_SDSPI_Tasks   0x9d000338         0x2bcc       11212   
.text._DRV_SDSPI_Comman 0x9d002f04          0xdbc        3516   
.text.f_mkfs            0x9d003cc0          0xbc4        3012   
.text._DRV_USBHS_DEVICE 0x9d004884          0x9b4        2484   
.text._vfprintf_cdnopsu 0x9d005238          0x8cc        2252   
.dinit                  0x9d005b04          0x7a0        1952   
.text.SYS_FS_MEDIA_MANA 0x9d0062a4          0x6cc        1740   
.text                   0x9d006970          0x6bc        1724  App's exec code 
.text.follow_path       0x9d00702c          0x670        1648   
.text.mount_volume      0x9d00769c          0x58c        1420   
.text.DRV_USBHS_Tasks   0x9d007c28          0x568        1384   
.text.DRV_USBHS_DEVICE_ 0x9d008190          0x510        1296   
.text.f_printf          0x9d0086a0          0x4fc        1276   
.text.I2C2_MASTER_Inter 0x9d008b9c          0x4b4        1204   
.text.I2C4_MASTER_Inter 0x9d009050          0x4b4        1204   
.text.dir_register      0x9d009504          0x448        1096   
.text._DRV_USBHS_Proces 0x9d00994c          0x43c        1084   
.text                   0x9d009d88          0x3f8        1016  App's exec code 
.text.f_open            0x9d00a180          0x3f0        1008   
.text                   0x9d00a570          0x3ec        1004  App's exec code 
.text.DRV_USBHS_DEVICE_ 0x9d00a95c          0x3e8        1000   
.text.mDotCommand       0x9d00ad44          0x3bc         956   
.rodata                 0x9d00b100          0x3b0         944  Read-only const 
.text.DRV_SDSPI_SetupXf 0x9d00b4b0          0x32c         812   
.text.f_write           0x9d00b7dc          0x328         808   
.text.SPI4_RX_Interrupt 0x9d00bb04          0x324         804   
.text.SPI2_RX_Interrupt 0x9d00be28          0x324         804   
.text.SPI1_RX_Interrupt 0x9d00c14c          0x324         804   
.text.SPI4_WriteRead    0x9d00c470          0x310         784   
.text.DRV_SPI_WriteRead 0x9d00c780          0x304         772   
.text.SYS_FS_MEDIA_MANA 0x9d00ca84          0x2f8         760   
.text.f_lseek           0x9d00cd7c          0x2f0         752   
.text.mDotTasks         0x9d00d06c          0x2f0         752   
.text.dir_find          0x9d00d35c          0x2e0         736   
.text.get_fileinfo      0x9d00d63c          0x2c0         704   
.text.f_setlabel        0x9d00d8fc          0x2bc         700   
.text.f_read            0x9d00dbb8          0x2b8         696   
.text.GPIO_Initialize   0x9d00de70          0x2b0         688   
.text._DRV_USBHS_DEVICE 0x9d00e120          0x294         660   
.text.create_partition  0x9d00e3b4          0x290         656   
.text.DRV_USBHS_DEVICE_ 0x9d00e644          0x270         624   
.text.DRV_USBHS_DEVICE_ 0x9d00e8b4          0x26c         620   
.text.dir_read          0x9d00eb20          0x258         600   
.text.USB_DEVICE_Tasks  0x9d00ed78          0x248         584   
.text.f_getcwd          0x9d00efc0          0x244         580   
.text._USB_DEVICE_Contr 0x9d00f204          0x230         560   
.text.create_chain      0x9d00f434          0x22c         556   
.text.DRV_USBHS_DEVICE_ 0x9d00f660          0x220         544   
.text._USB_DEVICE_Proce 0x9d00f880          0x220         544   
.text._USB_DEVICE_Other 0x9d00faa0          0x214         532   
.text._USB_DEVICE_Proce 0x9d00fcb4          0x20c         524   
.text.put_fat           0x9d00fec0          0x208         520   
.text.disk_write        0x9d0100c8          0x208         520   
.text.DRV_USBHS_DEVICE_ 0x9d0102d0          0x1f4         500   
.text.f_mkdir           0x9d0104c4          0x1f0         496   
.text.disk_read         0x9d0106b4          0x1f0         496   
.text.SYS_TIME_PLIBCall 0x9d0108a4          0x1e0         480   
.text.f_rename          0x9d010a84          0x1d0         464   
.text.CORE_TIMER_Handle 0x9d010c54          0x1d0         464   
.text.TIMER_2_Handler   0x9d010e24          0x1d0         464   
.text.SPI1_RX_Handler   0x9d010ff4          0x1d0         464   
.text.SPI1_TX_Handler   0x9d0111c4          0x1d0         464   
.text.UART1_FAULT_Handl 0x9d011394          0x1d0         464   
.text.UART1_RX_Handler  0x9d011564          0x1d0         464   
.text.UART1_TX_Handler  0x9d011734          0x1d0         464   
.text.CHANGE_NOTICE_J_H 0x9d011904          0x1d0         464   
.text.USB_Handler       0x9d011ad4          0x1d0         464   
.text.USB_DMA_Handler   0x9d011ca4          0x1d0         464   
.text.SPI2_RX_Handler   0x9d011e74          0x1d0         464   
.text.SPI2_TX_Handler   0x9d012044          0x1d0         464   
.text.UART2_FAULT_Handl 0x9d012214          0x1d0         464   
.text.UART2_RX_Handler  0x9d0123e4          0x1d0         464   
.text.UART2_TX_Handler  0x9d0125b4          0x1d0         464   
.text.I2C2_BUS_Handler  0x9d012784          0x1d0         464   
.text.I2C2_MASTER_Handl 0x9d012954          0x1d0         464   
.text.UART3_FAULT_Handl 0x9d012b24          0x1d0         464   
.text.UART3_RX_Handler  0x9d012cf4          0x1d0         464   
.text.UART3_TX_Handler  0x9d012ec4          0x1d0         464   
.text.SPI4_RX_Handler   0x9d013094          0x1d0         464   
.text.SPI4_TX_Handler   0x9d013264          0x1d0         464   
.text.UART4_FAULT_Handl 0x9d013434          0x1d0         464   
.text.UART4_RX_Handler  0x9d013604          0x1d0         464   
.text.UART4_TX_Handler  0x9d0137d4          0x1d0         464   
.text.I2C4_BUS_Handler  0x9d0139a4          0x1d0         464   
.text.I2C4_MASTER_Handl 0x9d013b74          0x1d0         464   
.text.UART6_FAULT_Handl 0x9d013d44          0x1d0         464   
.text.UART6_RX_Handler  0x9d013f14          0x1d0         464   
.text.UART6_TX_Handler  0x9d0140e4          0x1d0         464   
.text.communication_tas 0x9d0142b4          0x1d0         464   
.text.DRV_USBHS_DEVICE_ 0x9d014484          0x1c4         452   
.text._DRV_SPI_PlibCall 0x9d014648          0x1b4         436   
.text.DRV_SPI_Lock      0x9d0147fc          0x1b4         436   
.text.f_getfree         0x9d0149b0          0x1b0         432   
.rodata                 0x9d014b60          0x1a8         424  Read-only const 
.text.DRV_SDSPI_Initial 0x9d014d08          0x1a4         420   
.text                   0x9d014eac          0x1a0         416  App's exec code 
.text.DRV_SPI_Open      0x9d01504c          0x19c         412   
.rodata                 0x9d0151e8          0x19c         412  Read-only const 
.text.dir_next          0x9d015384          0x194         404   
.text.check_fs          0x9d015518          0x194         404   
.text._USB_DEVICE_Ep0Re 0x9d0156ac          0x190         400   
.text.get_fat           0x9d01583c          0x184         388   
.text.SYS_TIME_HwTimerC 0x9d0159c0          0x17c         380   
.text.DRV_SDSPI_Open    0x9d015b3c          0x178         376   
.text.SYS_Initialize    0x9d015cb4          0x174         372   
.text._USB_DEVICE_CDC_A 0x9d015e28          0x170         368   
.text.SPI4_TX_Interrupt 0x9d015f98          0x16c         364   
.text.SPI2_TX_Interrupt 0x9d016104          0x16c         364   
.text.SPI1_TX_Interrupt 0x9d016270          0x16c         364   
.text.dir_sdi           0x9d0163dc          0x16c         364   
.text                   0x9d016548          0x2d0         720  App's exec code 
.text.DRV_USBHS_DEVICE_ 0x9d016818          0x164         356   
.text.f_truncate        0x9d01697c          0x15c         348   
.text.USB_DEVICE_Initia 0x9d016ad8          0x15c         348   
.text.DRV_SDSPI_Close   0x9d016c34          0x158         344   
.text._USB_DEVICE_CDC_I 0x9d016d8c          0x154         340   
.text._sbrk_init        0x9d016ee0          0x154         340   
.text.f_unlink          0x9d017034          0x148         328   
.text.DRV_USBHS_Tasks_I 0x9d01717c          0x144         324   
.text.SYS_TIME_Initiali 0x9d0172c0          0x144         324   
.rodata                 0x9d017404          0x140         320  Read-only const 
.text.ff_wtoupper       0x9d017544          0x140         320   
.text.f_getlabel        0x9d017684          0x13c         316   
.text._DRV_SPI_UpdateTr 0x9d0177c0          0x138         312   
.text.inc_lock          0x9d0178f8          0x138         312   
.text.FATFS_open        0x9d017a30          0x134         308   
.text.SYS_TIME_TimerObj 0x9d017b64          0x130         304   
.text.fputc             0x9d017c94          0x128         296   
.text._DRV_USBHS_DEVICE 0x9d017dbc          0x124         292   
.text.remove_chain      0x9d017ee0          0x120         288   
.text.APP_Tasks         0x9d018000          0x118         280   
.text.DRV_SPI_TransferS 0x9d018118          0x110         272   
.text.UART6_RX_Interrup 0x9d018228          0x110         272   
.text.UART3_RX_Interrup 0x9d018338          0x110         272   
.text.UART4_RX_Interrup 0x9d018448          0x110         272   
.text.UART1_RX_Interrup 0x9d018558          0x110         272   
.text.UART2_RX_Interrup 0x9d018668          0x110         272   
.text.f_opendir         0x9d018778          0x110         272   
.text._USB_DEVICE_Confi 0x9d018888          0x10c         268   
.text._flsbuf           0x9d018994          0x10c         268   
.text.f_sync            0x9d018aa0          0x108         264   
.text._USB_DEVICE_CDC_C 0x9d018ba8          0x104         260   
.rodata                 0x9d018cac          0x104         260  Read-only const 
.text.UART6_TX_Interrup 0x9d018db0          0x100         256   
.text.UART3_TX_Interrup 0x9d018eb0          0x100         256   
.text.UART4_TX_Interrup 0x9d018fb0          0x100         256   
.text.UART1_TX_Interrup 0x9d0190b0          0x100         256   
.text.UART2_TX_Interrup 0x9d0191b0          0x100         256   
.text.SYS_TIME_AddToLis 0x9d0192b0          0x100         256   
.text._USB_DEVICE_Proce 0x9d0193b0          0x100         256   
.rodata.str1.4          0x9d0194b0           0xf8         248   
.text.DRV_SPI_Initializ 0x9d0195a8           0xec         236   
.text.FATFS_unmount     0x9d019694           0xec         236   
.text.FATFS_opendir     0x9d019780           0xe8         232   
.text.DRV_USBHS_Tasks_I 0x9d019868           0xe4         228   
.text.EVIC_Initialize   0x9d01994c           0xe4         228   
.text.sync_fs           0x9d019a30           0xe4         228   
.text._DRV_SPI_Resource 0x9d019b14           0xe0         224   
.text.setvbuf           0x9d019bf4           0xe0         224   
.text.SYS_FS_MEDIA_MANA 0x9d019cd4           0xdc         220   
.text.general_exception 0x9d019db0           0xdc         220   
.text._cache_err_except 0x9d019e8c           0xd8         216   
.text.simple_tlb_refill 0x9d019f64           0xd8         216   
.rodata                 0x9d01a03c           0xd4         212  Read-only const 
.text.initPayload       0x9d01a110           0xd4         212   
.text._USB_DEVICE_GetSt 0x9d01a1e4           0xd0         208   
.text.SPI4_TransferSetu 0x9d01a2b4           0xcc         204   
.text.FATFS_mount       0x9d01a380           0xcc         204   
.text._DRV_USBHS_DEVICE 0x9d01a44c           0xc8         200   
.text.DRV_USBHS_Initial 0x9d01a514           0xc4         196   
.text.CLK_Initialize    0x9d01a5d8           0xc4         196   
.text.SYS_FS_Initialize 0x9d01a69c           0xc4         196   
.text.DRV_USBHS_Open    0x9d01a760           0xc0         192   
.text.DRV_USBHS_ClientE 0x9d01a820           0xc0         192   
.text.dir_alloc         0x9d01a8e0           0xc0         192   
.text.dir_remove        0x9d01a9a0           0xc0         192   
.text.f_mount           0x9d01aa60           0xc0         192   
.text._USB_DEVICE_Ep0Tr 0x9d01ab20           0xc0         192   
.text.UART6_Write       0x9d01abe0           0xbc         188   
.text.dir_clear         0x9d01ac9c           0xbc         188   
.text.f_gets            0x9d01ad58           0xbc         188   
.text.disk_checkCommand 0x9d01ae14           0xbc         188   
.tlb.__pic32_tlb_init_e 0x9d01aed0           0xbc         188   
.text.DRV_SDSPI_Command 0x9d01af8c           0xb8         184   
.text._DRV_SDSPI_Driver 0x9d01b044           0xb4         180   
.text.chk_lock          0x9d01b0f8           0xb4         180   
.text.sync_window       0x9d01b1ac           0xb4         180   
.text.f_chdir           0x9d01b260           0xb4         180   
.text.SYS_TIME_TimerSta 0x9d01b314           0xb4         180   
.text._USB_DEVICE_DeIni 0x9d01b3c8           0xb4         180   
.text._sbrk             0x9d01b47c           0xb0         176   
.text.f_chmod           0x9d01b52c           0xac         172   
.text.SYS_TIME_Callback 0x9d01b5d8           0xac         172   
.text.CHANGE_NOTICE_J_I 0x9d01b684           0xa8         168   
.text.pop               0x9d01b72c           0xa8         168   
.text                   0x9d01b7d4           0xa8         168  App's exec code 
.text.validate          0x9d01b87c           0xa0         160   
.text.SYS_TIME_RemoveFr 0x9d01b91c           0xa0         160   
.text._USB_DEVICE_Forwa 0x9d01b9bc           0xa0         160   
.rodata                 0x9d01ba60           0xa0         160  Read-only const 
.text.f_utime           0x9d01bb00           0x9c         156   
.text._DRV_USBHS_DEVICE 0x9d01bb9c           0x98         152   
.text.uart6_counters    0x9d01bc34           0x98         152   
.text.sendStringU6      0x9d01bccc           0x98         152   
.text.push              0x9d01bd64           0x98         152   
.text                   0x9d01bdfc           0x98         152  App's exec code 
.text._DRV_SDSPI_SPIWri 0x9d01be94           0x94         148   
.text.f_readdir         0x9d01bf28           0x94         148   
.text.UART6_Read        0x9d01bfbc           0x90         144   
.text.putc_bfd          0x9d01c04c           0x90         144   
.text.SYS_TIME_TimerAdd 0x9d01c0dc           0x90         144   
.text.SPI4_Initialize   0x9d01c16c           0x8c         140   
.text.dec_lock          0x9d01c1f8           0x8c         140   
.text.get_ldnumber      0x9d01c284           0x8c         140   
.text.SYS_TIME_GetTimer 0x9d01c310           0x8c         140   
.text._USB_DEVICE_GetFu 0x9d01c39c           0x8c         140   
.text._DRV_SPI_DriverHa 0x9d01c428           0x88         136   
.text.DRV_SPI_TransferE 0x9d01c4b0           0x88         136   
.text.SPI2_Initialize   0x9d01c538           0x88         136   
.text.SPI1_Initialize   0x9d01c5c0           0x88         136   
.text.UART6_Initialize  0x9d01c648           0x88         136   
.text.UART3_Initialize  0x9d01c6d0           0x88         136   
.text.UART4_Initialize  0x9d01c758           0x88         136   
.text.UART1_Initialize  0x9d01c7e0           0x88         136   
.text.UART2_Initialize  0x9d01c868           0x88         136   
.text.write             0x9d01c8f0           0x88         136   
.text.USB_DEVICE_Contro 0x9d01c978           0x84         132   
.text                   0x9d01c9fc           0x84         132  App's exec code 
.text.UART5_Write       0x9d01ca80           0x80         128   
.text.f_stat            0x9d01cb00           0x80         128   
.text._USB_DEVICE_FindE 0x9d01cb80           0x80         128   
.text.f_fdisk           0x9d01cc00           0x7c         124   
.text.disk_ioctl        0x9d01cc7c           0x7c         124   
.text.FATFS_getclusters 0x9d01ccf8           0x7c         124   
.text.SYS_TIME_TimerDes 0x9d01cd74           0x7c         124   
.text.USB_DEVICE_Contro 0x9d01cdf0           0x7c         124   
.text.UART6_ErrorClear  0x9d01ce6c           0x78         120   
.text.UART3_ErrorClear  0x9d01cee4           0x78         120   
.text.UART4_ErrorClear  0x9d01cf5c           0x78         120   
.text.UART1_ErrorClear  0x9d01cfd4           0x78         120   
.text.UART2_ErrorClear  0x9d01d04c           0x78         120   
.text.move_window       0x9d01d0c4           0x74         116   
.text.ff_uni2oem        0x9d01d138           0x74         116   
.text.disk_read_aligned 0x9d01d1ac           0x74         116   
.text.SYS_FS_MEDIA_MANA 0x9d01d220           0x74         116   
.text.SYS_TIME_UpdateTi 0x9d01d294           0x74         116   
.text._DRV_USBHS_DEVICE 0x9d01d308           0x68         104   
.text.f_puts            0x9d01d370           0x68         104   
.text._bufallo          0x9d01d3d8           0x68         104   
.text.CORETIMER_Start   0x9d01d440           0x64         100   
.text.I2C2_Initialize   0x9d01d4a4           0x64         100   
.text.UART6_FAULT_Inter 0x9d01d508           0x64         100   
.text.UART3_FAULT_Inter 0x9d01d56c           0x64         100   
.text.UART4_FAULT_Inter 0x9d01d5d0           0x64         100   
.text.UART1_FAULT_Inter 0x9d01d634           0x64         100   
.text.UART2_FAULT_Inter 0x9d01d698           0x64         100   
.text.putc_flush        0x9d01d6fc           0x64         100   
.text.f_closedir        0x9d01d760           0x64         100   
.text._sprintf_cdnopsux 0x9d01d7c4           0x64         100   
.text.I2C2_BUS_Interrup 0x9d01d828           0x60          96   
.text.I2C4_BUS_Interrup 0x9d01d888           0x60          96   
.text.SYS_FS_MEDIA_MANA 0x9d01d8e8           0x60          96   
.text._DRV_USBHS_DEVICE 0x9d01d948           0x5c          92   
.text.I2C4_Initialize   0x9d01d9a4           0x5c          92   
.text.SYS_FS_MEDIA_MANA 0x9d01da00           0x5c          92   
.text.DRV_USBHS_DEVICE_ 0x9d01da5c           0x58          88   
.text.DRV_USBHS_DEVICE_ 0x9d01dab4           0x58          88   
.text.tchar2uni         0x9d01db0c           0x58          88   
.text.diskEventHandler  0x9d01db64           0x58          88   
.text.SYS_INT_SourceDis 0x9d01dbbc           0x58          88   
.text.SYS_TIME_Resource 0x9d01dc14           0x58          88   
.text._USB_DEVICE_Redir 0x9d01dc6c           0x58          88   
.text.USB_DEVICE_Endpoi 0x9d01dcc4           0x58          88   
.text._USB_DEVICE_CDC_E 0x9d01dd1c           0x58          88   
.text.initCyclicTImer   0x9d01dd74           0x58          88   
.text.DRV_SDSPI_IsAttac 0x9d01ddcc           0x54          84   
.text.DRV_USBHS_DEVICE_ 0x9d01de20           0x54          84   
.rodata.str1.4          0x9d01de74           0x54          84   
.text.f_close           0x9d01dec8           0x54          84   
.text.f_putc            0x9d01df1c           0x54          84   
.text.ff_oem2uni        0x9d01df70           0x54          84   
.text.createHexString   0x9d01dfc4           0x54          84   
.text.main_entry        0x9d01e018           0x54          84   
.text._DRV_SDSPI_SPIWri 0x9d01e06c           0x50          80   
.text._DRV_SDSPI_SPIRea 0x9d01e0bc           0x50          80   
.text.parseLoraFrame    0x9d01e10c           0x50          80   
.text.initBuffer        0x9d01e15c           0x50          80   
.text._DRV_USBHS_DEVICE 0x9d01e1ac           0x4c          76   
.text.SYS_CACHE_Invalid 0x9d01e1f8           0x4c          76   
.text.SYS_CACHE_CleanDC 0x9d01e244           0x4c          76   
.text.SYS_FS_MEDIA_MANA 0x9d01e290           0x4c          76   
.text.FATFS_readdir     0x9d01e2dc           0x4c          76   
.text.cyclicCallback    0x9d01e328           0x4c          76   
.text.uart6_readCallbac 0x9d01e374           0x4c          76   
.text.sbrk              0x9d01e3c0           0x4c          76   
.text.DRV_SDSPI_Geometr 0x9d01e40c           0x48          72   
.text._DRV_SDSPI_SPIDri 0x9d01e454           0x48          72   
.text._DRV_SDSPI_CardDe 0x9d01e49c           0x48          72   
.text._DRV_SDSPI_CmdRes 0x9d01e4e4           0x48          72   
.text._DRV_SDSPI_TimerS 0x9d01e52c           0x48          72   
.text.DRV_USBHS_DEVICE_ 0x9d01e574           0x48          72   
.text.FATFS_stat        0x9d01e5bc           0x48          72   
.text.SYS_Tasks         0x9d01e604           0x48          72   
.text.FATFS_close       0x9d01e64c           0x44          68   
.text.FATFS_closedir    0x9d01e690           0x44          68   
.text.SYS_TIME_Resource 0x9d01e6d4           0x44          68   
.text.USB_DEVICE_Endpoi 0x9d01e718           0x44          68   
.text.USB_DEVICE_IRPCan 0x9d01e75c           0x44          68   
.text                   0x9d01e7a0           0x44          68  App's exec code 
.text.DRV_SDSPI_EventHa 0x9d01e7e4           0x40          64   
.text.TMR2_Initialize   0x9d01e824           0x40          64   
.text.TIMER_2_Interrupt 0x9d01e864           0x40          64   
.text.ld_clust          0x9d01e8a4           0x40          64   
.text.FATFS_mkfs        0x9d01e8e4           0x40          64   
.text.mDotWait          0x9d01e924           0x40          64   
.text.available         0x9d01e964           0x40          64   
.text._DRV_SDSPI_SPISpe 0x9d01e9a4           0x3c          60   
.text.CORE_TIMER_Interr 0x9d01e9e0           0x3c          60   
.text.SYS_TIME_Counter6 0x9d01ea1c           0x3c          60   
.text                   0x9d01ea58           0x3c          60  App's exec code 
.text._DRV_SDSPI_CmdRes 0x9d01ea94           0x38          56   
.text._DRV_SDSPI_TimerS 0x9d01eacc           0x38          56   
.text.DRV_USBHS_DEVICE_ 0x9d01eb04           0x38          56   
.rodata                 0x9d01eb3c           0x38          56  Read-only const 
.text.UART5_Initialize  0x9d01eb74           0x38          56   
.text.SYS_TIME_GetElaps 0x9d01ebac           0x38          56   
.text.CORETIMER_Stop    0x9d01ebe4           0x34          52   
.text.clst2sect         0x9d01ec18           0x34          52   
.text.st_clust          0x9d01ec4c           0x34          52   
.text.SYS_FS_MEDIA_MANA 0x9d01ec80           0x34          52   
.text.setbuf            0x9d01ecb4           0x34          52   
.rodata                 0x9d01ece8           0x30          48  Read-only const 
.text.DRV_USBHS_Close   0x9d01ed18           0x30          48   
.text.sum_sfn           0x9d01ed48           0x30          48   
.text.f_chdrive         0x9d01ed78           0x30          48   
.text.FATFS_chdrive     0x9d01eda8           0x30          48   
.text.clearSendBuffer   0x9d01edd8           0x30          48   
.text.clearReceiveBuffe 0x9d01ee08           0x30          48   
.rodata.str1.4          0x9d01ee38           0x30          48   
.text.DRV_SPI_ReadTrans 0x9d01ee68           0x2c          44   
.text.CORETIMER_Initial 0x9d01ee94           0x2c          44   
.text._mon_putc         0x9d01eec0           0x2c          44   
.text.ld_dword          0x9d01eeec           0x2c          44   
.text.SYS_INT_SourceRes 0x9d01ef18           0x2c          44   
.text._stub_sbd_memlayo 0x9d01ef44           0x2c          44   
.text.DRV_SDSPI_AsyncWr 0x9d01ef70           0x28          40   
.text.DRV_SDSPI_Registe 0x9d01ef98           0x28          40   
.text.EVIC_SourceEnable 0x9d01efc0           0x28          40   
.text.EVIC_SourceDisabl 0x9d01efe8           0x28          40   
.text.EVIC_SourceStatus 0x9d01f010           0x28          40   
.text.EVIC_INT_Restore  0x9d01f038           0x28          40   
.text._SYS_FS_MEDIA_MAN 0x9d01f060           0x28          40   
.text._USB_DEVICE_Clien 0x9d01f088           0x28          40   
.text.getMdotMessage    0x9d01f0b0           0x28          40   
.text.DRV_SDSPI_AsyncRe 0x9d01f0d8           0x24          36   
.text.DRV_SPI_WriteTran 0x9d01f0fc           0x24          36   
.text.CACHE_DataCacheCl 0x9d01f120           0x24          36   
.text.CACHE_DataCacheIn 0x9d01f144           0x24          36   
.text.mem_cpy           0x9d01f168           0x24          36   
.text.disk_initialize   0x9d01f18c           0x24          36   
.text.sendBuffer        0x9d01f1b0           0x24          36   
.text.DRV_USBHS_Interru 0x9d01f1d4           0x20          32   
.text.DRV_USBHS_DMAInte 0x9d01f1f4           0x20          32   
.text._DRV_USBHS_DEVICE 0x9d01f214           0x20          32   
.text.EVIC_SourceIsEnab 0x9d01f234           0x20          32   
.text.EVIC_INT_Disable  0x9d01f254           0x20          32   
.text.st_dword          0x9d01f274           0x20          32   
.rodata.str1.4          0x9d01f294           0x20          32   
.text._USB_DEVICE_CDC_G 0x9d01f2b4           0x20          32   
.text.main              0x9d01f2d4           0x20          32   
.text._DRV_SDSPI_SPIExc 0x9d01f2f4           0x1c          28   
.text.CACHE_CacheCohere 0x9d01f310           0x1c          28   
.text.CORETIMER_Compare 0x9d01f32c           0x1c          28   
.text.GPIO_PortSet      0x9d01f348           0x1c          28   
.text.GPIO_PortClear    0x9d01f364           0x1c          28   
.text.get_fattime       0x9d01f380           0x1c          28   
.text.SYS_FS_Tasks      0x9d01f39c           0x1c          28   
.text.FATFS_read        0x9d01f3b8           0x1c          28   
.text.FATFS_lseek       0x9d01f3d4           0x1c          28   
.text.FATFS_getlabel    0x9d01f3f0           0x1c          28   
.text.FATFS_getcwd      0x9d01f40c           0x1c          28   
.text.FATFS_gets        0x9d01f428           0x1c          28   
.text.FATFS_chdir       0x9d01f444           0x1c          28   
.text.FATFS_write       0x9d01f460           0x1c          28   
.text.FATFS_mkdir       0x9d01f47c           0x1c          28   
.text.FATFS_unlink      0x9d01f498           0x1c          28   
.text.FATFS_setlabel    0x9d01f4b4           0x1c          28   
.text.FATFS_truncate    0x9d01f4d0           0x1c          28   
.text.FATFS_chmod       0x9d01f4ec           0x1c          28   
.text.FATFS_utime       0x9d01f508           0x1c          28   
.text.FATFS_rename      0x9d01f524           0x1c          28   
.text.FATFS_sync        0x9d01f540           0x1c          28   
.text.FATFS_putc        0x9d01f55c           0x1c          28   
.text.FATFS_puts        0x9d01f578           0x1c          28   
.text.FATFS_printf      0x9d01f594           0x1c          28   
.text.FATFS_fdisk       0x9d01f5b0           0x1c          28   
.text.SYS_INT_Disable   0x9d01f5cc           0x1c          28   
.text.SYS_INT_Restore   0x9d01f5e8           0x1c          28   
.text.uart6_writeCallba 0x9d01f604           0x1c          28   
.MIPS.abiflags          0x9d01f620           0x18          24   
.text.CORETIMER_Counter 0x9d01f638           0x18          24   
.text.mem_set           0x9d01f650           0x18          24   
.text._general_exceptio 0x9d01f668           0x18          24   
.text._bootstrap_except 0x9d01f680           0x18          24   
.text._cache_err_except 0x9d01f698           0x18          24   
.text._simple_tlb_refil 0x9d01f6b0           0x18          24   
.text                   0x9d01f6c8           0x18          24  App's exec code 
.text.SPI4_IsTransmitte 0x9d01f6e0           0x14          20   
.text.SPI4_CallbackRegi 0x9d01f6f4           0x14          20   
.text.TMR2_Start        0x9d01f708           0x14          20   
.text.UART6_ReadCallbac 0x9d01f71c           0x14          20   
.text.UART6_WriteCallba 0x9d01f730           0x14          20   
.text.FATFS_eof         0x9d01f744           0x14          20   
.rodata                 0x9d01f758           0x28          40  Read-only const 
.text._buffree          0x9d01f780           0x14          20   
.text.CORETIMER_Callbac 0x9d01f794           0x10          16   
.text.TMR2_PeriodSet    0x9d01f7a4           0x10          16   
.text.TMR2_CallbackRegi 0x9d01f7b4           0x10          16   
.text.communication_ini 0x9d01f7c4           0x10          16   
.rodata.cst8            0x9d01f7d8           0x10          16   
.text.DRV_SDSPI_TimerCa 0x9d01f7e8            0xc          12   
.text.CORETIMER_Frequen 0x9d01f7f4            0xc          12   
.text.TMR2_FrequencyGet 0x9d01f800            0xc          12   
.text.SYS_FS_MEDIA_MANA 0x9d01f80c            0xc          12   
.text.FATFS_error       0x9d01f818            0xc          12   
.text.APP_Initialize    0x9d01f824            0xc          12   
.text.mDotInit          0x9d01f830            0xc          12   
.text.DRV_USBHS_DEVICE_ 0x9d01f83c            0x8           8   
.text.DRV_USBHS_DEVICE_ 0x9d01f844            0x8           8   
.text.DRV_USBHS_DEVICE_ 0x9d01f84c            0x8           8   
.text.disk_status       0x9d01f854            0x8           8   
.rodata                 0x9d01f85c            0x8           8  Read-only const 
.text.FATFS_tell        0x9d01f864            0x8           8   
.text.FATFS_size        0x9d01f86c            0x8           8   
.text._on_reset         0x9d01f874            0x8           8   
.text._on_bootstrap     0x9d01f87c            0x8           8   
      Total kseg0_program_mem used  :     0x1f874      129140  6.2% of 0x200000

kseg0 Boot-Memory Usage
section                    address  length [bytes]      (dec)  Description
-------                 ----------  -------------------------  -----------
         Total kseg0_boot_mem used  :           0           0  

kseg1 Boot-Memory Usage
section                    address  length [bytes]      (dec)  Description
-------                 ----------  -------------------------  -----------
.reset                  0xbfc00000          0x1c4         452  Reset handler 
.bev_excpt              0xbfc00380           0x10          16  BEV-Exception 
         Total kseg1_boot_mem used  :       0x1d4         468  40.6% of 0x480
        --------------------------------------------------------------------------
         Total Program Memory used  :     0x1fa48      129608  6.2% of 0x200480
        --------------------------------------------------------------------------


kseg0 Data-Memory Usage
section                    address  length [bytes]      (dec)  Description
-------                 ----------  -------------------------  -----------
.sdata                  0x80000000           0x2c          44  Small init data 
.sbss                   0x8000002c           0x70         112  Small uninit data 
.bss                    0x8000009c            0x4           4  Uninitialized data 
.bss                    0x80004bd0         0x1c34        7220  Uninitialized data 
.bss.errno              0x80006804            0x4           4   
.bss                    0x80006808         0x11ac        4524  Uninitialized data 
.bss                    0x800079b4          0x43c        1084  Uninitialized data 
.bss                    0x80007df0          0x320         800  Uninitialized data 
.bss                    0x80008110          0x1f4         500  Uninitialized data 
.bss                    0x80008304          0x180         384  Uninitialized data 
.data                   0x80008484           0xf4         244  Initialized data 
.bss                    0x80008578           0x89         137  Uninitialized data 
.bss                    0x80008604           0x68         104  Uninitialized data 
.bss                    0x8000866c           0x68         104  Uninitialized data 
.bss                    0x800086d4           0x68         104  Uninitialized data 
.bss                    0x8000873c           0x34          52  Uninitialized data 
.data                   0x80008770           0x2c          44  Initialized data 
.bss                    0x8000879c           0x50          80  Uninitialized data 
.bss                    0x800087ec           0x4c          76  Uninitialized data 
.bss                    0x80008838           0x18          24  Uninitialized data 
         Total kseg0_data_mem used  :      0x3d1d       15645  3.0% of 0x80000
        --------------------------------------------------------------------------
            Total Data Memory used  :      0x3d1d       15645  3.0% of 0x80000
        --------------------------------------------------------------------------


Dynamic Data-Memory Reservation
section                    address  length [bytes]      (dec)  Description
-------                 ----------  -------------------------  -----------
heap                    0x80008858          0x200         512  Reserved for heap 
stack                   0x80008a70        0x77588      488840  Reserved for stack 

        --------------------------------------------------------------------------

Discarded input sections

 .text          0x0000000000000000        0x0 c:/program files/microchip/xc32/v3.00/bin/bin/../../lib/gcc/pic32mx/8.3.1/../../../../pic32mx/lib/fpu64\debug-exception-return.o
 .data          0x0000000000000000        0x0 c:/program files/microchip/xc32/v3.00/bin/bin/../../lib/gcc/pic32mx/8.3.1/../../../../pic32mx/lib/fpu64\debug-exception-return.o
 .bss           0x0000000000000000        0x0 c:/program files/microchip/xc32/v3.00/bin/bin/../../lib/gcc/pic32mx/8.3.1/../../../../pic32mx/lib/fpu64\debug-exception-return.o
 .xc_stack_usage.hdr
                0x0000000000000000        0xe c:/program files/microchip/xc32/v3.00/bin/bin/../../lib/gcc/pic32mx/8.3.1/../../../../pic32mx/lib/fpu64\debug-exception-return.o
 .xc_stack_usage
                0x0000000000000000       0x1d c:/program files/microchip/xc32/v3.00/bin/bin/../../lib/gcc/pic32mx/8.3.1/../../../../pic32mx/lib/fpu64\debug-exception-return.o
 .text          0x0000000000000000        0x0 build/pic32mz/production/_ext/757013429/drv_sdspi.o
 .data          0x0000000000000000        0x0 build/pic32mz/production/_ext/757013429/drv_sdspi.o
 .reginfo       0x0000000000000000       0x18 build/pic32mz/production/_ext/757013429/drv_sdspi.o
 .MIPS.abiflags
                0x0000000000000000       0x18 build/pic32mz/production/_ext/757013429/drv_sdspi.o
 .text.DRV_SDSPI_RegisterWithSysFs
                0x0000000000000000        0x8 build/pic32mz/production/_ext/757013429/drv_sdspi.o
 .text.DRV_SDSPI_Status
                0x0000000000000000       0x1c build/pic32mz/production/_ext/757013429/drv_sdspi.o
 .text.DRV_SDSPI_IsWriteProtected
                0x0000000000000000       0x84 build/pic32mz/production/_ext/757013429/drv_sdspi.o
 .text          0x0000000000000000        0x0 build/pic32mz/production/_ext/757013429/drv_sdspi_driver_interface.o
 .data          0x0000000000000000        0x0 build/pic32mz/production/_ext/757013429/drv_sdspi_driver_interface.o
 .bss           0x0000000000000000        0x0 build/pic32mz/production/_ext/757013429/drv_sdspi_driver_interface.o
 .reginfo       0x0000000000000000       0x18 build/pic32mz/production/_ext/757013429/drv_sdspi_driver_interface.o
 .MIPS.abiflags
                0x0000000000000000       0x18 build/pic32mz/production/_ext/757013429/drv_sdspi_driver_interface.o
 .text          0x0000000000000000        0x0 build/pic32mz/production/_ext/757013429/drv_sdspi_file_system.o
 .data          0x0000000000000000        0x0 build/pic32mz/production/_ext/757013429/drv_sdspi_file_system.o
 .bss           0x0000000000000000        0x0 build/pic32mz/production/_ext/757013429/drv_sdspi_file_system.o
 .reginfo       0x0000000000000000       0x18 build/pic32mz/production/_ext/757013429/drv_sdspi_file_system.o
 .MIPS.abiflags
                0x0000000000000000       0x18 build/pic32mz/production/_ext/757013429/drv_sdspi_file_system.o
 .text          0x0000000000000000        0x0 build/pic32mz/production/_ext/2120450970/drv_spi.o
 .data          0x0000000000000000        0x0 build/pic32mz/production/_ext/2120450970/drv_spi.o
 .bss           0x0000000000000000        0x0 build/pic32mz/production/_ext/2120450970/drv_spi.o
 .reginfo       0x0000000000000000       0x18 build/pic32mz/production/_ext/2120450970/drv_spi.o
 .MIPS.abiflags
                0x0000000000000000       0x18 build/pic32mz/production/_ext/2120450970/drv_spi.o
 .text.DRV_SPI_Status
                0x0000000000000000       0x1c build/pic32mz/production/_ext/2120450970/drv_spi.o
 .text.DRV_SPI_Close
                0x0000000000000000      0x174 build/pic32mz/production/_ext/2120450970/drv_spi.o
 .text.DRV_SPI_TransferStatusGet
                0x0000000000000000       0x64 build/pic32mz/production/_ext/2120450970/drv_spi.o
 .text          0x0000000000000000        0x0 build/pic32mz/production/_ext/1783409726/drv_usbhs.o
 .data          0x0000000000000000        0x0 build/pic32mz/production/_ext/1783409726/drv_usbhs.o
 .reginfo       0x0000000000000000       0x18 build/pic32mz/production/_ext/1783409726/drv_usbhs.o
 .MIPS.abiflags
                0x0000000000000000       0x18 build/pic32mz/production/_ext/1783409726/drv_usbhs.o
 .text.DRV_USBHS_Deinitialize
                0x0000000000000000       0x7c build/pic32mz/production/_ext/1783409726/drv_usbhs.o
 .text.DRV_USBHS_Status
                0x0000000000000000       0x40 build/pic32mz/production/_ext/1783409726/drv_usbhs.o
 .text          0x0000000000000000        0x0 build/pic32mz/production/_ext/1783409726/drv_usbhs_device.o
 .bss           0x0000000000000000        0x0 build/pic32mz/production/_ext/1783409726/drv_usbhs_device.o
 .reginfo       0x0000000000000000       0x18 build/pic32mz/production/_ext/1783409726/drv_usbhs_device.o
 .MIPS.abiflags
                0x0000000000000000       0x18 build/pic32mz/production/_ext/1783409726/drv_usbhs_device.o
 .text._DRV_USBHS_DEVICE_EndpointObjectEnable
                0x0000000000000000       0x1c build/pic32mz/production/_ext/1783409726/drv_usbhs_device.o
 .text.DRV_USBHS_DEVICE_IRPCancel
                0x0000000000000000      0x1a0 build/pic32mz/production/_ext/1783409726/drv_usbhs_device.o
 .text.DRV_USBHS_DEVICE_TestModeExit
                0x0000000000000000       0xa8 build/pic32mz/production/_ext/1783409726/drv_usbhs_device.o
 .text          0x0000000000000000        0x0 build/pic32mz/production/_ext/1640642171/plib_cache.o
 .data          0x0000000000000000        0x0 build/pic32mz/production/_ext/1640642171/plib_cache.o
 .bss           0x0000000000000000        0x0 build/pic32mz/production/_ext/1640642171/plib_cache.o
 .reginfo       0x0000000000000000       0x18 build/pic32mz/production/_ext/1640642171/plib_cache.o
 .MIPS.abiflags
                0x0000000000000000       0x18 build/pic32mz/production/_ext/1640642171/plib_cache.o
 .text.CACHE_CacheInit
                0x0000000000000000       0x24 build/pic32mz/production/_ext/1640642171/plib_cache.o
 .text.CACHE_CacheFlush
                0x0000000000000000       0x24 build/pic32mz/production/_ext/1640642171/plib_cache.o
 .text.CACHE_DataCacheFlush
                0x0000000000000000       0x24 build/pic32mz/production/_ext/1640642171/plib_cache.o
 .text.CACHE_InstructionCacheFlush
                0x0000000000000000       0x24 build/pic32mz/production/_ext/1640642171/plib_cache.o
 .text.CACHE_CacheClean
                0x0000000000000000       0x24 build/pic32mz/production/_ext/1640642171/plib_cache.o
 .text.CACHE_InstructionCacheInvalidate
                0x0000000000000000       0x24 build/pic32mz/production/_ext/1640642171/plib_cache.o
 .text.CACHE_InstructionCacheLock
                0x0000000000000000       0x24 build/pic32mz/production/_ext/1640642171/plib_cache.o
 .text.CACHE_DataCacheLock
                0x0000000000000000       0x24 build/pic32mz/production/_ext/1640642171/plib_cache.o
 .text.CACHE_CacheSync
                0x0000000000000000       0x24 build/pic32mz/production/_ext/1640642171/plib_cache.o
 .text.CACHE_CacheCoherencySet
                0x0000000000000000       0x28 build/pic32mz/production/_ext/1640642171/plib_cache.o
 .text.CACHE_DataCacheAssociativityGet
                0x0000000000000000       0x24 build/pic32mz/production/_ext/1640642171/plib_cache.o
 .text.CACHE_InstructionCacheAssociativityGet
                0x0000000000000000       0x24 build/pic32mz/production/_ext/1640642171/plib_cache.o
 .text.CACHE_DataCacheLineSizeGet
                0x0000000000000000       0x24 build/pic32mz/production/_ext/1640642171/plib_cache.o
 .text.CACHE_InstructionCacheLineSizeGet
                0x0000000000000000       0x24 build/pic32mz/production/_ext/1640642171/plib_cache.o
 .text.CACHE_DataCacheLinesPerWayGet
                0x0000000000000000       0x24 build/pic32mz/production/_ext/1640642171/plib_cache.o
 .text.CACHE_InstructionCacheLinesPerWayGet
                0x0000000000000000       0x24 build/pic32mz/production/_ext/1640642171/plib_cache.o
 .text.CACHE_DataCacheSizeGet
                0x0000000000000000       0x24 build/pic32mz/production/_ext/1640642171/plib_cache.o
 .text.CACHE_InstructionCacheSizeGet
                0x0000000000000000       0x24 build/pic32mz/production/_ext/1640642171/plib_cache.o
 .data          0x0000000000000000        0x0 build/pic32mz/production/_ext/1640642171/plib_cache_pic32mz.o
 .bss           0x0000000000000000        0x0 build/pic32mz/production/_ext/1640642171/plib_cache_pic32mz.o
 .reginfo       0x0000000000000000       0x18 build/pic32mz/production/_ext/1640642171/plib_cache_pic32mz.o
 .MIPS.abiflags
                0x0000000000000000       0x18 build/pic32mz/production/_ext/1640642171/plib_cache_pic32mz.o
 .text          0x0000000000000000        0x0 build/pic32mz/production/_ext/10646107/plib_clk.o
 .data          0x0000000000000000        0x0 build/pic32mz/production/_ext/10646107/plib_clk.o
 .bss           0x0000000000000000        0x0 build/pic32mz/production/_ext/10646107/plib_clk.o
 .reginfo       0x0000000000000000       0x18 build/pic32mz/production/_ext/10646107/plib_clk.o
 .MIPS.abiflags
                0x0000000000000000       0x18 build/pic32mz/production/_ext/10646107/plib_clk.o
 .text          0x0000000000000000        0x0 build/pic32mz/production/_ext/809018751/plib_coretimer.o
 .data          0x0000000000000000        0x0 build/pic32mz/production/_ext/809018751/plib_coretimer.o
 .bss           0x0000000000000000        0x0 build/pic32mz/production/_ext/809018751/plib_coretimer.o
 .reginfo       0x0000000000000000       0x18 build/pic32mz/production/_ext/809018751/plib_coretimer.o
 .MIPS.abiflags
                0x0000000000000000       0x18 build/pic32mz/production/_ext/809018751/plib_coretimer.o
 .text.CORETIMER_DelayMs
                0x0000000000000000       0x4c build/pic32mz/production/_ext/809018751/plib_coretimer.o
 .text.CORETIMER_DelayUs
                0x0000000000000000       0x3c build/pic32mz/production/_ext/809018751/plib_coretimer.o
 .text          0x0000000000000000        0x0 build/pic32mz/production/_ext/330098546/plib_evic.o
 .data          0x0000000000000000        0x0 build/pic32mz/production/_ext/330098546/plib_evic.o
 .bss           0x0000000000000000        0x0 build/pic32mz/production/_ext/330098546/plib_evic.o
 .reginfo       0x0000000000000000       0x18 build/pic32mz/production/_ext/330098546/plib_evic.o
 .MIPS.abiflags
                0x0000000000000000       0x18 build/pic32mz/production/_ext/330098546/plib_evic.o
 .text.EVIC_SourceStatusGet
                0x0000000000000000       0x20 build/pic32mz/production/_ext/330098546/plib_evic.o
 .text.EVIC_SourceStatusSet
                0x0000000000000000       0x28 build/pic32mz/production/_ext/330098546/plib_evic.o
 .text.EVIC_INT_Enable
                0x0000000000000000       0x18 build/pic32mz/production/_ext/330098546/plib_evic.o
 .text          0x0000000000000000        0x0 build/pic32mz/production/_ext/330152374/plib_gpio.o
 .data          0x0000000000000000        0xb build/pic32mz/production/_ext/330152374/plib_gpio.o
 .reginfo       0x0000000000000000       0x18 build/pic32mz/production/_ext/330152374/plib_gpio.o
 .MIPS.abiflags
                0x0000000000000000       0x18 build/pic32mz/production/_ext/330152374/plib_gpio.o
 .text.GPIO_PortRead
                0x0000000000000000       0x18 build/pic32mz/production/_ext/330152374/plib_gpio.o
 .text.GPIO_PortWrite
                0x0000000000000000       0x2c build/pic32mz/production/_ext/330152374/plib_gpio.o
 .text.GPIO_PortLatchRead
                0x0000000000000000       0x18 build/pic32mz/production/_ext/330152374/plib_gpio.o
 .text.GPIO_PortToggle
                0x0000000000000000       0x1c build/pic32mz/production/_ext/330152374/plib_gpio.o
 .text.GPIO_PortInputEnable
                0x0000000000000000       0x1c build/pic32mz/production/_ext/330152374/plib_gpio.o
 .text.GPIO_PortOutputEnable
                0x0000000000000000       0x1c build/pic32mz/production/_ext/330152374/plib_gpio.o
 .text.GPIO_PortInterruptEnable
                0x0000000000000000       0x1c build/pic32mz/production/_ext/330152374/plib_gpio.o
 .text.GPIO_PortInterruptDisable
                0x0000000000000000       0x1c build/pic32mz/production/_ext/330152374/plib_gpio.o
 .text.GPIO_PinIntEnable
                0x0000000000000000       0xd0 build/pic32mz/production/_ext/330152374/plib_gpio.o
 .text.GPIO_PinIntDisable
                0x0000000000000000       0x3c build/pic32mz/production/_ext/330152374/plib_gpio.o
 .text.GPIO_PinInterruptCallbackRegister
                0x0000000000000000       0xb8 build/pic32mz/production/_ext/330152374/plib_gpio.o
 .text          0x0000000000000000        0x0 build/pic32mz/production/_ext/249272802/plib_i2c2_master.o
 .data          0x0000000000000000        0x0 build/pic32mz/production/_ext/249272802/plib_i2c2_master.o
 .reginfo       0x0000000000000000       0x18 build/pic32mz/production/_ext/249272802/plib_i2c2_master.o
 .MIPS.abiflags
                0x0000000000000000       0x18 build/pic32mz/production/_ext/249272802/plib_i2c2_master.o
 .text.I2C2_CallbackRegister
                0x0000000000000000       0x1c build/pic32mz/production/_ext/249272802/plib_i2c2_master.o
 .text.I2C2_IsBusy
                0x0000000000000000       0x5c build/pic32mz/production/_ext/249272802/plib_i2c2_master.o
 .text.I2C2_Read
                0x0000000000000000       0x88 build/pic32mz/production/_ext/249272802/plib_i2c2_master.o
 .text.I2C2_Write
                0x0000000000000000       0x88 build/pic32mz/production/_ext/249272802/plib_i2c2_master.o
 .text.I2C2_WriteRead
                0x0000000000000000       0x8c build/pic32mz/production/_ext/249272802/plib_i2c2_master.o
 .text.I2C2_ErrorGet
                0x0000000000000000       0x14 build/pic32mz/production/_ext/249272802/plib_i2c2_master.o
 .text.I2C2_TransferSetup
                0x0000000000000000      0x114 build/pic32mz/production/_ext/249272802/plib_i2c2_master.o
 .rodata.cst4   0x0000000000000000        0x8 build/pic32mz/production/_ext/249272802/plib_i2c2_master.o
 .rodata.cst8   0x0000000000000000       0x18 build/pic32mz/production/_ext/249272802/plib_i2c2_master.o
 .text          0x0000000000000000        0x0 build/pic32mz/production/_ext/249272802/plib_i2c4_master.o
 .data          0x0000000000000000        0x0 build/pic32mz/production/_ext/249272802/plib_i2c4_master.o
 .reginfo       0x0000000000000000       0x18 build/pic32mz/production/_ext/249272802/plib_i2c4_master.o
 .MIPS.abiflags
                0x0000000000000000       0x18 build/pic32mz/production/_ext/249272802/plib_i2c4_master.o
 .text.I2C4_CallbackRegister
                0x0000000000000000       0x1c build/pic32mz/production/_ext/249272802/plib_i2c4_master.o
 .text.I2C4_IsBusy
                0x0000000000000000       0x5c build/pic32mz/production/_ext/249272802/plib_i2c4_master.o
 .text.I2C4_Read
                0x0000000000000000       0x88 build/pic32mz/production/_ext/249272802/plib_i2c4_master.o
 .text.I2C4_Write
                0x0000000000000000       0x88 build/pic32mz/production/_ext/249272802/plib_i2c4_master.o
 .text.I2C4_WriteRead
                0x0000000000000000       0x8c build/pic32mz/production/_ext/249272802/plib_i2c4_master.o
 .text.I2C4_ErrorGet
                0x0000000000000000       0x14 build/pic32mz/production/_ext/249272802/plib_i2c4_master.o
 .text.I2C4_TransferSetup
                0x0000000000000000      0x114 build/pic32mz/production/_ext/249272802/plib_i2c4_master.o
 .rodata.cst4   0x0000000000000000        0x8 build/pic32mz/production/_ext/249272802/plib_i2c4_master.o
 .rodata.cst8   0x0000000000000000       0x18 build/pic32mz/production/_ext/249272802/plib_i2c4_master.o
 .text          0x0000000000000000        0x0 build/pic32mz/production/_ext/867254719/plib_spi4_master.o
 .data          0x0000000000000000        0x0 build/pic32mz/production/_ext/867254719/plib_spi4_master.o
 .reginfo       0x0000000000000000       0x18 build/pic32mz/production/_ext/867254719/plib_spi4_master.o
 .MIPS.abiflags
                0x0000000000000000       0x18 build/pic32mz/production/_ext/867254719/plib_spi4_master.o
 .text.SPI4_Write
                0x0000000000000000       0x20 build/pic32mz/production/_ext/867254719/plib_spi4_master.o
 .text.SPI4_Read
                0x0000000000000000       0x28 build/pic32mz/production/_ext/867254719/plib_spi4_master.o
 .text.SPI4_IsBusy
                0x0000000000000000       0x28 build/pic32mz/production/_ext/867254719/plib_spi4_master.o
 .text          0x0000000000000000        0x0 build/pic32mz/production/_ext/867254719/plib_spi2_master.o
 .data          0x0000000000000000        0x0 build/pic32mz/production/_ext/867254719/plib_spi2_master.o
 .reginfo       0x0000000000000000       0x18 build/pic32mz/production/_ext/867254719/plib_spi2_master.o
 .MIPS.abiflags
                0x0000000000000000       0x18 build/pic32mz/production/_ext/867254719/plib_spi2_master.o
 .text.SPI2_TransferSetup
                0x0000000000000000       0xcc build/pic32mz/production/_ext/867254719/plib_spi2_master.o
 .text.SPI2_IsTransmitterBusy
                0x0000000000000000       0x14 build/pic32mz/production/_ext/867254719/plib_spi2_master.o
 .text.SPI2_WriteRead
                0x0000000000000000      0x310 build/pic32mz/production/_ext/867254719/plib_spi2_master.o
 .text.SPI2_Write
                0x0000000000000000       0x20 build/pic32mz/production/_ext/867254719/plib_spi2_master.o
 .text.SPI2_Read
                0x0000000000000000       0x28 build/pic32mz/production/_ext/867254719/plib_spi2_master.o
 .text.SPI2_IsBusy
                0x0000000000000000       0x28 build/pic32mz/production/_ext/867254719/plib_spi2_master.o
 .text.SPI2_CallbackRegister
                0x0000000000000000       0x14 build/pic32mz/production/_ext/867254719/plib_spi2_master.o
 .text          0x0000000000000000        0x0 build/pic32mz/production/_ext/867254719/plib_spi1_master.o
 .data          0x0000000000000000        0x0 build/pic32mz/production/_ext/867254719/plib_spi1_master.o
 .reginfo       0x0000000000000000       0x18 build/pic32mz/production/_ext/867254719/plib_spi1_master.o
 .MIPS.abiflags
                0x0000000000000000       0x18 build/pic32mz/production/_ext/867254719/plib_spi1_master.o
 .text.SPI1_TransferSetup
                0x0000000000000000       0xcc build/pic32mz/production/_ext/867254719/plib_spi1_master.o
 .text.SPI1_IsTransmitterBusy
                0x0000000000000000       0x14 build/pic32mz/production/_ext/867254719/plib_spi1_master.o
 .text.SPI1_WriteRead
                0x0000000000000000      0x310 build/pic32mz/production/_ext/867254719/plib_spi1_master.o
 .text.SPI1_Write
                0x0000000000000000       0x20 build/pic32mz/production/_ext/867254719/plib_spi1_master.o
 .text.SPI1_Read
                0x0000000000000000       0x28 build/pic32mz/production/_ext/867254719/plib_spi1_master.o
 .text.SPI1_IsBusy
                0x0000000000000000       0x28 build/pic32mz/production/_ext/867254719/plib_spi1_master.o
 .text.SPI1_CallbackRegister
                0x0000000000000000       0x14 build/pic32mz/production/_ext/867254719/plib_spi1_master.o
 .text          0x0000000000000000        0x0 build/pic32mz/production/_ext/10662482/plib_tmr2.o
 .data          0x0000000000000000        0x0 build/pic32mz/production/_ext/10662482/plib_tmr2.o
 .bss           0x0000000000000000        0x0 build/pic32mz/production/_ext/10662482/plib_tmr2.o
 .reginfo       0x0000000000000000       0x18 build/pic32mz/production/_ext/10662482/plib_tmr2.o
 .MIPS.abiflags
                0x0000000000000000       0x18 build/pic32mz/production/_ext/10662482/plib_tmr2.o
 .text.TMR2_Stop
                0x0000000000000000       0x14 build/pic32mz/production/_ext/10662482/plib_tmr2.o
 .text.TMR2_PeriodGet
                0x0000000000000000       0x10 build/pic32mz/production/_ext/10662482/plib_tmr2.o
 .text.TMR2_CounterGet
                0x0000000000000000       0x10 build/pic32mz/production/_ext/10662482/plib_tmr2.o
 .text.TMR2_InterruptEnable
                0x0000000000000000       0x14 build/pic32mz/production/_ext/10662482/plib_tmr2.o
 .text.TMR2_InterruptDisable
                0x0000000000000000       0x14 build/pic32mz/production/_ext/10662482/plib_tmr2.o
 .text          0x0000000000000000        0x0 build/pic32mz/production/_ext/330555317/plib_uart5.o
 .data          0x0000000000000000        0x0 build/pic32mz/production/_ext/330555317/plib_uart5.o
 .bss           0x0000000000000000        0x0 build/pic32mz/production/_ext/330555317/plib_uart5.o
 .reginfo       0x0000000000000000       0x18 build/pic32mz/production/_ext/330555317/plib_uart5.o
 .MIPS.abiflags
                0x0000000000000000       0x18 build/pic32mz/production/_ext/330555317/plib_uart5.o
 .text.UART5_ErrorClear
                0x0000000000000000       0x64 build/pic32mz/production/_ext/330555317/plib_uart5.o
 .text.UART5_SerialSetup
                0x0000000000000000      0x118 build/pic32mz/production/_ext/330555317/plib_uart5.o
 .text.UART5_AutoBaudQuery
                0x0000000000000000       0x10 build/pic32mz/production/_ext/330555317/plib_uart5.o
 .text.UART5_AutoBaudSet
                0x0000000000000000       0x18 build/pic32mz/production/_ext/330555317/plib_uart5.o
 .text.UART5_Read
                0x0000000000000000       0xc0 build/pic32mz/production/_ext/330555317/plib_uart5.o
 .text.UART5_ErrorGet
                0x0000000000000000       0x44 build/pic32mz/production/_ext/330555317/plib_uart5.o
 .text.UART5_WriteByte
                0x0000000000000000       0x20 build/pic32mz/production/_ext/330555317/plib_uart5.o
 .text.UART5_TransmitterIsReady
                0x0000000000000000       0x14 build/pic32mz/production/_ext/330555317/plib_uart5.o
 .text.UART5_TransmitComplete
                0x0000000000000000       0x10 build/pic32mz/production/_ext/330555317/plib_uart5.o
 .text.UART5_ReadByte
                0x0000000000000000       0x10 build/pic32mz/production/_ext/330555317/plib_uart5.o
 .text.UART5_ReceiverIsReady
                0x0000000000000000       0x10 build/pic32mz/production/_ext/330555317/plib_uart5.o
 .text          0x0000000000000000        0x0 build/pic32mz/production/_ext/330555317/plib_uart6.o
 .data          0x0000000000000000        0x0 build/pic32mz/production/_ext/330555317/plib_uart6.o
 .reginfo       0x0000000000000000       0x18 build/pic32mz/production/_ext/330555317/plib_uart6.o
 .MIPS.abiflags
                0x0000000000000000       0x18 build/pic32mz/production/_ext/330555317/plib_uart6.o
 .text.UART6_SerialSetup
                0x0000000000000000      0x128 build/pic32mz/production/_ext/330555317/plib_uart6.o
 .text.UART6_AutoBaudQuery
                0x0000000000000000       0x10 build/pic32mz/production/_ext/330555317/plib_uart6.o
 .text.UART6_AutoBaudSet
                0x0000000000000000       0x18 build/pic32mz/production/_ext/330555317/plib_uart6.o
 .text.UART6_ErrorGet
                0x0000000000000000       0x18 build/pic32mz/production/_ext/330555317/plib_uart6.o
 .text.UART6_ReadIsBusy
                0x0000000000000000        0xc build/pic32mz/production/_ext/330555317/plib_uart6.o
 .text.UART6_ReadCountGet
                0x0000000000000000        0xc build/pic32mz/production/_ext/330555317/plib_uart6.o
 .text.UART6_ReadAbort
                0x0000000000000000       0x3c build/pic32mz/production/_ext/330555317/plib_uart6.o
 .text.UART6_WriteIsBusy
                0x0000000000000000        0xc build/pic32mz/production/_ext/330555317/plib_uart6.o
 .text.UART6_WriteCountGet
                0x0000000000000000        0xc build/pic32mz/production/_ext/330555317/plib_uart6.o
 .text          0x0000000000000000        0x0 build/pic32mz/production/_ext/330555317/plib_uart3.o
 .data          0x0000000000000000        0x0 build/pic32mz/production/_ext/330555317/plib_uart3.o
 .reginfo       0x0000000000000000       0x18 build/pic32mz/production/_ext/330555317/plib_uart3.o
 .MIPS.abiflags
                0x0000000000000000       0x18 build/pic32mz/production/_ext/330555317/plib_uart3.o
 .text.UART3_SerialSetup
                0x0000000000000000      0x128 build/pic32mz/production/_ext/330555317/plib_uart3.o
 .text.UART3_AutoBaudQuery
                0x0000000000000000       0x10 build/pic32mz/production/_ext/330555317/plib_uart3.o
 .text.UART3_AutoBaudSet
                0x0000000000000000       0x18 build/pic32mz/production/_ext/330555317/plib_uart3.o
 .text.UART3_Read
                0x0000000000000000       0x90 build/pic32mz/production/_ext/330555317/plib_uart3.o
 .text.UART3_Write
                0x0000000000000000       0xbc build/pic32mz/production/_ext/330555317/plib_uart3.o
 .text.UART3_ErrorGet
                0x0000000000000000       0x18 build/pic32mz/production/_ext/330555317/plib_uart3.o
 .text.UART3_ReadCallbackRegister
                0x0000000000000000       0x14 build/pic32mz/production/_ext/330555317/plib_uart3.o
 .text.UART3_ReadIsBusy
                0x0000000000000000        0xc build/pic32mz/production/_ext/330555317/plib_uart3.o
 .text.UART3_ReadCountGet
                0x0000000000000000        0xc build/pic32mz/production/_ext/330555317/plib_uart3.o
 .text.UART3_ReadAbort
                0x0000000000000000       0x3c build/pic32mz/production/_ext/330555317/plib_uart3.o
 .text.UART3_WriteCallbackRegister
                0x0000000000000000       0x14 build/pic32mz/production/_ext/330555317/plib_uart3.o
 .text.UART3_WriteIsBusy
                0x0000000000000000        0xc build/pic32mz/production/_ext/330555317/plib_uart3.o
 .text.UART3_WriteCountGet
                0x0000000000000000        0xc build/pic32mz/production/_ext/330555317/plib_uart3.o
 .text          0x0000000000000000        0x0 build/pic32mz/production/_ext/330555317/plib_uart4.o
 .data          0x0000000000000000        0x0 build/pic32mz/production/_ext/330555317/plib_uart4.o
 .reginfo       0x0000000000000000       0x18 build/pic32mz/production/_ext/330555317/plib_uart4.o
 .MIPS.abiflags
                0x0000000000000000       0x18 build/pic32mz/production/_ext/330555317/plib_uart4.o
 .text.UART4_SerialSetup
                0x0000000000000000      0x128 build/pic32mz/production/_ext/330555317/plib_uart4.o
 .text.UART4_AutoBaudQuery
                0x0000000000000000       0x10 build/pic32mz/production/_ext/330555317/plib_uart4.o
 .text.UART4_AutoBaudSet
                0x0000000000000000       0x18 build/pic32mz/production/_ext/330555317/plib_uart4.o
 .text.UART4_Read
                0x0000000000000000       0x90 build/pic32mz/production/_ext/330555317/plib_uart4.o
 .text.UART4_Write
                0x0000000000000000       0xbc build/pic32mz/production/_ext/330555317/plib_uart4.o
 .text.UART4_ErrorGet
                0x0000000000000000       0x18 build/pic32mz/production/_ext/330555317/plib_uart4.o
 .text.UART4_ReadCallbackRegister
                0x0000000000000000       0x14 build/pic32mz/production/_ext/330555317/plib_uart4.o
 .text.UART4_ReadIsBusy
                0x0000000000000000        0xc build/pic32mz/production/_ext/330555317/plib_uart4.o
 .text.UART4_ReadCountGet
                0x0000000000000000        0xc build/pic32mz/production/_ext/330555317/plib_uart4.o
 .text.UART4_ReadAbort
                0x0000000000000000       0x3c build/pic32mz/production/_ext/330555317/plib_uart4.o
 .text.UART4_WriteCallbackRegister
                0x0000000000000000       0x14 build/pic32mz/production/_ext/330555317/plib_uart4.o
 .text.UART4_WriteIsBusy
                0x0000000000000000        0xc build/pic32mz/production/_ext/330555317/plib_uart4.o
 .text.UART4_WriteCountGet
                0x0000000000000000        0xc build/pic32mz/production/_ext/330555317/plib_uart4.o
 .text          0x0000000000000000        0x0 build/pic32mz/production/_ext/330555317/plib_uart1.o
 .data          0x0000000000000000        0x0 build/pic32mz/production/_ext/330555317/plib_uart1.o
 .reginfo       0x0000000000000000       0x18 build/pic32mz/production/_ext/330555317/plib_uart1.o
 .MIPS.abiflags
                0x0000000000000000       0x18 build/pic32mz/production/_ext/330555317/plib_uart1.o
 .text.UART1_SerialSetup
                0x0000000000000000      0x128 build/pic32mz/production/_ext/330555317/plib_uart1.o
 .text.UART1_AutoBaudQuery
                0x0000000000000000       0x10 build/pic32mz/production/_ext/330555317/plib_uart1.o
 .text.UART1_AutoBaudSet
                0x0000000000000000       0x18 build/pic32mz/production/_ext/330555317/plib_uart1.o
 .text.UART1_Read
                0x0000000000000000       0x90 build/pic32mz/production/_ext/330555317/plib_uart1.o
 .text.UART1_Write
                0x0000000000000000       0xbc build/pic32mz/production/_ext/330555317/plib_uart1.o
 .text.UART1_ErrorGet
                0x0000000000000000       0x18 build/pic32mz/production/_ext/330555317/plib_uart1.o
 .text.UART1_ReadCallbackRegister
                0x0000000000000000       0x14 build/pic32mz/production/_ext/330555317/plib_uart1.o
 .text.UART1_ReadIsBusy
                0x0000000000000000        0xc build/pic32mz/production/_ext/330555317/plib_uart1.o
 .text.UART1_ReadCountGet
                0x0000000000000000        0xc build/pic32mz/production/_ext/330555317/plib_uart1.o
 .text.UART1_ReadAbort
                0x0000000000000000       0x3c build/pic32mz/production/_ext/330555317/plib_uart1.o
 .text.UART1_WriteCallbackRegister
                0x0000000000000000       0x14 build/pic32mz/production/_ext/330555317/plib_uart1.o
 .text.UART1_WriteIsBusy
                0x0000000000000000        0xc build/pic32mz/production/_ext/330555317/plib_uart1.o
 .text.UART1_WriteCountGet
                0x0000000000000000        0xc build/pic32mz/production/_ext/330555317/plib_uart1.o
 .text          0x0000000000000000        0x0 build/pic32mz/production/_ext/330555317/plib_uart2.o
 .data          0x0000000000000000        0x0 build/pic32mz/production/_ext/330555317/plib_uart2.o
 .reginfo       0x0000000000000000       0x18 build/pic32mz/production/_ext/330555317/plib_uart2.o
 .MIPS.abiflags
                0x0000000000000000       0x18 build/pic32mz/production/_ext/330555317/plib_uart2.o
 .text.UART2_SerialSetup
                0x0000000000000000      0x128 build/pic32mz/production/_ext/330555317/plib_uart2.o
 .text.UART2_AutoBaudQuery
                0x0000000000000000       0x10 build/pic32mz/production/_ext/330555317/plib_uart2.o
 .text.UART2_AutoBaudSet
                0x0000000000000000       0x18 build/pic32mz/production/_ext/330555317/plib_uart2.o
 .text.UART2_Read
                0x0000000000000000       0x90 build/pic32mz/production/_ext/330555317/plib_uart2.o
 .text.UART2_Write
                0x0000000000000000       0xbc build/pic32mz/production/_ext/330555317/plib_uart2.o
 .text.UART2_ErrorGet
                0x0000000000000000       0x18 build/pic32mz/production/_ext/330555317/plib_uart2.o
 .text.UART2_ReadCallbackRegister
                0x0000000000000000       0x14 build/pic32mz/production/_ext/330555317/plib_uart2.o
 .text.UART2_ReadIsBusy
                0x0000000000000000        0xc build/pic32mz/production/_ext/330555317/plib_uart2.o
 .text.UART2_ReadCountGet
                0x0000000000000000        0xc build/pic32mz/production/_ext/330555317/plib_uart2.o
 .text.UART2_ReadAbort
                0x0000000000000000       0x3c build/pic32mz/production/_ext/330555317/plib_uart2.o
 .text.UART2_WriteCallbackRegister
                0x0000000000000000       0x14 build/pic32mz/production/_ext/330555317/plib_uart2.o
 .text.UART2_WriteIsBusy
                0x0000000000000000        0xc build/pic32mz/production/_ext/330555317/plib_uart2.o
 .text.UART2_WriteCountGet
                0x0000000000000000        0xc build/pic32mz/production/_ext/330555317/plib_uart2.o
 .text          0x0000000000000000        0x0 build/pic32mz/production/_ext/1991269565/xc32_monitor.o
 .data          0x0000000000000000        0x0 build/pic32mz/production/_ext/1991269565/xc32_monitor.o
 .bss           0x0000000000000000        0x0 build/pic32mz/production/_ext/1991269565/xc32_monitor.o
 .reginfo       0x0000000000000000       0x18 build/pic32mz/production/_ext/1991269565/xc32_monitor.o
 .MIPS.abiflags
                0x0000000000000000       0x18 build/pic32mz/production/_ext/1991269565/xc32_monitor.o
 .text._mon_getc
                0x0000000000000000       0x30 build/pic32mz/production/_ext/1991269565/xc32_monitor.o
 .text          0x0000000000000000        0x0 build/pic32mz/production/_ext/1519118610/sys_cache.o
 .data          0x0000000000000000        0x0 build/pic32mz/production/_ext/1519118610/sys_cache.o
 .bss           0x0000000000000000        0x0 build/pic32mz/production/_ext/1519118610/sys_cache.o
 .reginfo       0x0000000000000000       0x18 build/pic32mz/production/_ext/1519118610/sys_cache.o
 .MIPS.abiflags
                0x0000000000000000       0x18 build/pic32mz/production/_ext/1519118610/sys_cache.o
 .text.SYS_CACHE_EnableCaches
                0x0000000000000000       0x1c build/pic32mz/production/_ext/1519118610/sys_cache.o
 .text.SYS_CACHE_DisableCaches
                0x0000000000000000       0x1c build/pic32mz/production/_ext/1519118610/sys_cache.o
 .text.SYS_CACHE_EnableICache
                0x0000000000000000       0x1c build/pic32mz/production/_ext/1519118610/sys_cache.o
 .text.SYS_CACHE_DisableICache
                0x0000000000000000       0x1c build/pic32mz/production/_ext/1519118610/sys_cache.o
 .text.SYS_CACHE_EnableDCache
                0x0000000000000000       0x1c build/pic32mz/production/_ext/1519118610/sys_cache.o
 .text.SYS_CACHE_DisableDCache
                0x0000000000000000       0x1c build/pic32mz/production/_ext/1519118610/sys_cache.o
 .text.SYS_CACHE_CleanDCache
                0x0000000000000000       0x1c build/pic32mz/production/_ext/1519118610/sys_cache.o
 .text.SYS_CACHE_CleanInvalidateDCache
                0x0000000000000000       0x38 build/pic32mz/production/_ext/1519118610/sys_cache.o
 .text.SYS_CACHE_InvalidateICache
                0x0000000000000000       0x38 build/pic32mz/production/_ext/1519118610/sys_cache.o
 .text.SYS_CACHE_InvalidateDCache
                0x0000000000000000       0x38 build/pic32mz/production/_ext/1519118610/sys_cache.o
 .text.SYS_CACHE_CleanInvalidateDCache_by_Addr
                0x0000000000000000       0x4c build/pic32mz/production/_ext/1519118610/sys_cache.o
 .text          0x0000000000000000        0x0 build/pic32mz/production/_ext/1373644956/sys_dma.o
 .data          0x0000000000000000        0x0 build/pic32mz/production/_ext/1373644956/sys_dma.o
 .bss           0x0000000000000000        0x0 build/pic32mz/production/_ext/1373644956/sys_dma.o
 .reginfo       0x0000000000000000       0x18 build/pic32mz/production/_ext/1373644956/sys_dma.o
 .MIPS.abiflags
                0x0000000000000000       0x18 build/pic32mz/production/_ext/1373644956/sys_dma.o
 .text.SYS_DMA_AddressingModeSetup
                0x0000000000000000        0x8 build/pic32mz/production/_ext/1373644956/sys_dma.o
 .text.SYS_DMA_DataWidthSetup
                0x0000000000000000        0x8 build/pic32mz/production/_ext/1373644956/sys_dma.o
 .text.SYS_DMA_ChannelTransfer
                0x0000000000000000        0x8 build/pic32mz/production/_ext/1373644956/sys_dma.o
 .text          0x0000000000000000        0x0 build/pic32mz/production/_ext/1192657380/ff.o
 .data          0x0000000000000000        0x0 build/pic32mz/production/_ext/1192657380/ff.o
 .reginfo       0x0000000000000000       0x18 build/pic32mz/production/_ext/1192657380/ff.o
 .MIPS.abiflags
                0x0000000000000000       0x18 build/pic32mz/production/_ext/1192657380/ff.o
 .text          0x0000000000000000        0x0 build/pic32mz/production/_ext/1192657380/ffunicode.o
 .data          0x0000000000000000        0x0 build/pic32mz/production/_ext/1192657380/ffunicode.o
 .bss           0x0000000000000000        0x0 build/pic32mz/production/_ext/1192657380/ffunicode.o
 .reginfo       0x0000000000000000       0x18 build/pic32mz/production/_ext/1192657380/ffunicode.o
 .MIPS.abiflags
                0x0000000000000000       0x18 build/pic32mz/production/_ext/1192657380/ffunicode.o
 .text          0x0000000000000000        0x0 build/pic32mz/production/_ext/727274963/diskio.o
 .data          0x0000000000000000        0x0 build/pic32mz/production/_ext/727274963/diskio.o
 .bss           0x0000000000000000        0x0 build/pic32mz/production/_ext/727274963/diskio.o
 .reginfo       0x0000000000000000       0x18 build/pic32mz/production/_ext/727274963/diskio.o
 .MIPS.abiflags
                0x0000000000000000       0x18 build/pic32mz/production/_ext/727274963/diskio.o
 .text          0x0000000000000000        0x0 build/pic32mz/production/_ext/252936118/sys_fs.o
 .data          0x0000000000000000        0x0 build/pic32mz/production/_ext/252936118/sys_fs.o
 .reginfo       0x0000000000000000       0x18 build/pic32mz/production/_ext/252936118/sys_fs.o
 .MIPS.abiflags
                0x0000000000000000       0x18 build/pic32mz/production/_ext/252936118/sys_fs.o
 .rodata.str1.4
                0x0000000000000000        0x8 build/pic32mz/production/_ext/252936118/sys_fs.o
 .text.SYS_FS_GetDisk
                0x0000000000000000      0x160 build/pic32mz/production/_ext/252936118/sys_fs.o
 .text.SYS_FS_Mount
                0x0000000000000000      0x268 build/pic32mz/production/_ext/252936118/sys_fs.o
 .text.SYS_FS_Unmount
                0x0000000000000000      0x154 build/pic32mz/production/_ext/252936118/sys_fs.o
 .text.SYS_FS_FileOpen
                0x0000000000000000      0x1f4 build/pic32mz/production/_ext/252936118/sys_fs.o
 .text.SYS_FS_FileClose
                0x0000000000000000       0xc8 build/pic32mz/production/_ext/252936118/sys_fs.o
 .text.SYS_FS_FileNameGet
                0x0000000000000000       0x84 build/pic32mz/production/_ext/252936118/sys_fs.o
 .text.SYS_FS_FileRead
                0x0000000000000000       0xc8 build/pic32mz/production/_ext/252936118/sys_fs.o
 .text.SYS_FS_FileSeek
                0x0000000000000000      0x174 build/pic32mz/production/_ext/252936118/sys_fs.o
 .text.SYS_FS_FileTell
                0x0000000000000000       0xc0 build/pic32mz/production/_ext/252936118/sys_fs.o
 .text.SYS_FS_FileSize
                0x0000000000000000       0xc0 build/pic32mz/production/_ext/252936118/sys_fs.o
 .text.SYS_FS_FileEOF
                0x0000000000000000       0xb0 build/pic32mz/production/_ext/252936118/sys_fs.o
 .text.SYS_FS_FileStat
                0x0000000000000000       0xdc build/pic32mz/production/_ext/252936118/sys_fs.o
 .text.SYS_FS_Error
                0x0000000000000000        0x8 build/pic32mz/production/_ext/252936118/sys_fs.o
 .text.SYS_FS_FileError
                0x0000000000000000       0x30 build/pic32mz/production/_ext/252936118/sys_fs.o
 .text.SYS_FS_DirOpen
                0x0000000000000000      0x15c build/pic32mz/production/_ext/252936118/sys_fs.o
 .text.SYS_FS_DirClose
                0x0000000000000000       0xc8 build/pic32mz/production/_ext/252936118/sys_fs.o
 .text.SYS_FS_DirRead
                0x0000000000000000       0xc8 build/pic32mz/production/_ext/252936118/sys_fs.o
 .text.SYS_FS_DirRewind
                0x0000000000000000       0xc4 build/pic32mz/production/_ext/252936118/sys_fs.o
 .text.SYS_FS_DirSearch
                0x0000000000000000      0x260 build/pic32mz/production/_ext/252936118/sys_fs.o
 .text.SYS_FS_FileStringGet
                0x0000000000000000       0xec build/pic32mz/production/_ext/252936118/sys_fs.o
 .text.SYS_FS_DirectoryChange
                0x0000000000000000       0xc8 build/pic32mz/production/_ext/252936118/sys_fs.o
 .text.SYS_FS_CurrentWorkingDirectoryGet
                0x0000000000000000      0x1c8 build/pic32mz/production/_ext/252936118/sys_fs.o
 .text.SYS_FS_CurrentDriveGet
                0x0000000000000000       0x7c build/pic32mz/production/_ext/252936118/sys_fs.o
 .text.SYS_FS_DriveLabelGet
                0x0000000000000000       0xf8 build/pic32mz/production/_ext/252936118/sys_fs.o
 .text.SYS_FS_FileWrite
                0x0000000000000000       0xcc build/pic32mz/production/_ext/252936118/sys_fs.o
 .text.SYS_FS_FileSync
                0x0000000000000000       0xc0 build/pic32mz/production/_ext/252936118/sys_fs.o
 .text.SYS_FS_FileTruncate
                0x0000000000000000       0xb4 build/pic32mz/production/_ext/252936118/sys_fs.o
 .text.SYS_FS_FileCharacterPut
                0x0000000000000000       0xd8 build/pic32mz/production/_ext/252936118/sys_fs.o
 .text.SYS_FS_FileStringPut
                0x0000000000000000       0xd4 build/pic32mz/production/_ext/252936118/sys_fs.o
 .text.SYS_FS_FilePrintf
                0x0000000000000000       0xe8 build/pic32mz/production/_ext/252936118/sys_fs.o
 .text.SYS_FS_FileTestError
                0x0000000000000000       0xb0 build/pic32mz/production/_ext/252936118/sys_fs.o
 .text.SYS_FS_DirectoryMake
                0x0000000000000000       0xc8 build/pic32mz/production/_ext/252936118/sys_fs.o
 .text.SYS_FS_FileDirectoryRemove
                0x0000000000000000       0xc8 build/pic32mz/production/_ext/252936118/sys_fs.o
 .text.SYS_FS_FileDirectoryModeSet
                0x0000000000000000       0xe8 build/pic32mz/production/_ext/252936118/sys_fs.o
 .text.SYS_FS_FileDirectoryTimeSet
                0x0000000000000000       0xec build/pic32mz/production/_ext/252936118/sys_fs.o
 .text.SYS_FS_FileDirectoryRenameMove
                0x0000000000000000      0x104 build/pic32mz/production/_ext/252936118/sys_fs.o
 .text.SYS_FS_CurrentDriveSet
                0x0000000000000000       0xe0 build/pic32mz/production/_ext/252936118/sys_fs.o
 .text.SYS_FS_DriveLabelSet
                0x0000000000000000      0x114 build/pic32mz/production/_ext/252936118/sys_fs.o
 .text.SYS_FS_DriveFormat
                0x0000000000000000       0xcc build/pic32mz/production/_ext/252936118/sys_fs.o
 .text.SYS_FS_DrivePartition
                0x0000000000000000       0xc0 build/pic32mz/production/_ext/252936118/sys_fs.o
 .text.SYS_FS_DriveSectorGet
                0x0000000000000000      0x108 build/pic32mz/production/_ext/252936118/sys_fs.o
 .text          0x0000000000000000        0x0 build/pic32mz/production/_ext/252936118/sys_fs_media_manager.o
 .reginfo       0x0000000000000000       0x18 build/pic32mz/production/_ext/252936118/sys_fs_media_manager.o
 .MIPS.abiflags
                0x0000000000000000       0x18 build/pic32mz/production/_ext/252936118/sys_fs_media_manager.o
 .text.SYS_FS_MEDIA_MANAGER_DeRegister
                0x0000000000000000       0x18 build/pic32mz/production/_ext/252936118/sys_fs_media_manager.o
 .text.SYS_FS_MEDIA_MANAGER_Read
                0x0000000000000000       0xc4 build/pic32mz/production/_ext/252936118/sys_fs_media_manager.o
 .text.SYS_FS_MEDIA_MANAGER_AddressGet
                0x0000000000000000       0x3c build/pic32mz/production/_ext/252936118/sys_fs_media_manager.o
 .text.SYS_FS_MEDIA_MANAGER_CommandStatusGet
                0x0000000000000000       0x50 build/pic32mz/production/_ext/252936118/sys_fs_media_manager.o
 .text.SYS_FS_MEDIA_MANAGER_MediaStatusGet
                0x0000000000000000       0xb4 build/pic32mz/production/_ext/252936118/sys_fs_media_manager.o
 .text.SYS_FS_MEDIA_MANAGER_VolumePropertyGet
                0x0000000000000000       0x74 build/pic32mz/production/_ext/252936118/sys_fs_media_manager.o
 .text          0x0000000000000000        0x0 build/pic32mz/production/_ext/252936118/sys_fs_fat_interface.o
 .data          0x0000000000000000        0x0 build/pic32mz/production/_ext/252936118/sys_fs_fat_interface.o
 .bss           0x0000000000000000        0x0 build/pic32mz/production/_ext/252936118/sys_fs_fat_interface.o
 .reginfo       0x0000000000000000       0x18 build/pic32mz/production/_ext/252936118/sys_fs_fat_interface.o
 .MIPS.abiflags
                0x0000000000000000       0x18 build/pic32mz/production/_ext/252936118/sys_fs_fat_interface.o
 .text.FATFS_getfree
                0x0000000000000000       0x1c build/pic32mz/production/_ext/252936118/sys_fs_fat_interface.o
 .text          0x0000000000000000        0x0 build/pic32mz/production/_ext/1832149040/sys_int.o
 .data          0x0000000000000000        0x0 build/pic32mz/production/_ext/1832149040/sys_int.o
 .bss           0x0000000000000000        0x0 build/pic32mz/production/_ext/1832149040/sys_int.o
 .reginfo       0x0000000000000000       0x18 build/pic32mz/production/_ext/1832149040/sys_int.o
 .MIPS.abiflags
                0x0000000000000000       0x18 build/pic32mz/production/_ext/1832149040/sys_int.o
 .text.SYS_INT_Enable
                0x0000000000000000       0x1c build/pic32mz/production/_ext/1832149040/sys_int.o
 .text          0x0000000000000000        0x0 build/pic32mz/production/_ext/1636986698/sys_time.o
 .data          0x0000000000000000        0x0 build/pic32mz/production/_ext/1636986698/sys_time.o
 .reginfo       0x0000000000000000       0x18 build/pic32mz/production/_ext/1636986698/sys_time.o
 .MIPS.abiflags
                0x0000000000000000       0x18 build/pic32mz/production/_ext/1636986698/sys_time.o
 .text.SYS_TIME_Deinitialize
                0x0000000000000000       0x9c build/pic32mz/production/_ext/1636986698/sys_time.o
 .text.SYS_TIME_Status
                0x0000000000000000       0x24 build/pic32mz/production/_ext/1636986698/sys_time.o
 .text.SYS_TIME_FrequencyGet
                0x0000000000000000        0xc build/pic32mz/production/_ext/1636986698/sys_time.o
 .text.SYS_TIME_Counter64Get
                0x0000000000000000       0x78 build/pic32mz/production/_ext/1636986698/sys_time.o
 .text.SYS_TIME_CounterGet
                0x0000000000000000       0x1c build/pic32mz/production/_ext/1636986698/sys_time.o
 .text.SYS_TIME_CounterSet
                0x0000000000000000       0x48 build/pic32mz/production/_ext/1636986698/sys_time.o
 .text.SYS_TIME_CountToUS
                0x0000000000000000       0x84 build/pic32mz/production/_ext/1636986698/sys_time.o
 .text.SYS_TIME_CountToMS
                0x0000000000000000       0x64 build/pic32mz/production/_ext/1636986698/sys_time.o
 .text.SYS_TIME_USToCount
                0x0000000000000000       0x38 build/pic32mz/production/_ext/1636986698/sys_time.o
 .text.SYS_TIME_MSToCount
                0x0000000000000000       0x34 build/pic32mz/production/_ext/1636986698/sys_time.o
 .text.SYS_TIME_TimerCreate
                0x0000000000000000       0x30 build/pic32mz/production/_ext/1636986698/sys_time.o
 .text.SYS_TIME_TimerReload
                0x0000000000000000      0x11c build/pic32mz/production/_ext/1636986698/sys_time.o
 .text.SYS_TIME_TimerStop
                0x0000000000000000       0x88 build/pic32mz/production/_ext/1636986698/sys_time.o
 .text.SYS_TIME_TimerCounterGet
                0x0000000000000000       0xfc build/pic32mz/production/_ext/1636986698/sys_time.o
 .text.SYS_TIME_TimerPeriodHasExpired
                0x0000000000000000       0x5c build/pic32mz/production/_ext/1636986698/sys_time.o
 .text.SYS_TIME_DelayUS
                0x0000000000000000       0xa0 build/pic32mz/production/_ext/1636986698/sys_time.o
 .text.SYS_TIME_DelayMS
                0x0000000000000000       0x9c build/pic32mz/production/_ext/1636986698/sys_time.o
 .text.SYS_TIME_DelayIsComplete
                0x0000000000000000       0x48 build/pic32mz/production/_ext/1636986698/sys_time.o
 .text.SYS_TIME_CallbackRegisterUS
                0x0000000000000000       0xb0 build/pic32mz/production/_ext/1636986698/sys_time.o
 .text          0x0000000000000000        0x0 build/pic32mz/production/_ext/202551283/usb_device.o
 .data          0x0000000000000000        0x0 build/pic32mz/production/_ext/202551283/usb_device.o
 .reginfo       0x0000000000000000       0x18 build/pic32mz/production/_ext/202551283/usb_device.o
 .MIPS.abiflags
                0x0000000000000000       0x18 build/pic32mz/production/_ext/202551283/usb_device.o
 .text.USB_DEVICE_Status
                0x0000000000000000       0x44 build/pic32mz/production/_ext/202551283/usb_device.o
 .text.USB_DEVICE_Deinitialize
                0x0000000000000000       0x40 build/pic32mz/production/_ext/202551283/usb_device.o
 .text.USB_DEVICE_Open
                0x0000000000000000       0x58 build/pic32mz/production/_ext/202551283/usb_device.o
 .text._USB_DEVICE_EventHandler
                0x0000000000000000      0x208 build/pic32mz/production/_ext/202551283/usb_device.o
 .text.USB_DEVICE_Attach
                0x0000000000000000       0x48 build/pic32mz/production/_ext/202551283/usb_device.o
 .text.USB_DEVICE_Detach
                0x0000000000000000       0x50 build/pic32mz/production/_ext/202551283/usb_device.o
 .text.USB_DEVICE_EndpointIsEnabled
                0x0000000000000000       0x44 build/pic32mz/production/_ext/202551283/usb_device.o
 .text.USB_DEVICE_EndpointStall
                0x0000000000000000       0x3c build/pic32mz/production/_ext/202551283/usb_device.o
 .text.USB_DEVICE_EndpointStallClear
                0x0000000000000000       0x3c build/pic32mz/production/_ext/202551283/usb_device.o
 .text.USB_DEVICE_EndpointIsStalled
                0x0000000000000000       0x44 build/pic32mz/production/_ext/202551283/usb_device.o
 .text.USB_DEVICE_IsSuspended
                0x0000000000000000       0x2c build/pic32mz/production/_ext/202551283/usb_device.o
 .text.USB_DEVICE_StateGet
                0x0000000000000000       0x2c build/pic32mz/production/_ext/202551283/usb_device.o
 .text.USB_DEVICE_Close
                0x0000000000000000       0x2c build/pic32mz/production/_ext/202551283/usb_device.o
 .text.USB_DEVICE_ClientStatusGet
                0x0000000000000000       0x28 build/pic32mz/production/_ext/202551283/usb_device.o
 .text.USB_DEVICE_EventHandlerSet
                0x0000000000000000       0x58 build/pic32mz/production/_ext/202551283/usb_device.o
 .text.USB_DEVICE_ActiveConfigurationGet
                0x0000000000000000       0x28 build/pic32mz/production/_ext/202551283/usb_device.o
 .text.USB_DEVICE_ActiveSpeedGet
                0x0000000000000000       0x2c build/pic32mz/production/_ext/202551283/usb_device.o
 .text.USB_DEVICE_ControlReceive
                0x0000000000000000       0x48 build/pic32mz/production/_ext/202551283/usb_device.o
 .text.USB_DEVICE_PowerStateSet
                0x0000000000000000       0x38 build/pic32mz/production/_ext/202551283/usb_device.o
 .text.USB_DEVICE_RemoteWakeupStatusGet
                0x0000000000000000       0x28 build/pic32mz/production/_ext/202551283/usb_device.o
 .text.USB_DEVICE_RemoteWakeupStop
                0x0000000000000000       0x34 build/pic32mz/production/_ext/202551283/usb_device.o
 .text.USB_DEVICE_RemoteWakeupStart
                0x0000000000000000       0x34 build/pic32mz/production/_ext/202551283/usb_device.o
 .text.USB_DEVICE_IRPSubmit
                0x0000000000000000       0x54 build/pic32mz/production/_ext/202551283/usb_device.o
 .text.USB_DEVICE_IRPCancel
                0x0000000000000000       0x44 build/pic32mz/production/_ext/202551283/usb_device.o
 .text._USB_DEVICE_EndpointMutexCreateFunction
                0x0000000000000000       0x1c build/pic32mz/production/_ext/202551283/usb_device.o
 .text._USB_DEVICE_EndpointMutexDeleteFunction
                0x0000000000000000        0x8 build/pic32mz/production/_ext/202551283/usb_device.o
 .text._USB_DEVICE_GetStringDescriptorRequestProcessAdvanced
                0x0000000000000000       0xac build/pic32mz/production/_ext/202551283/usb_device.o
 .text          0x0000000000000000        0x0 build/pic32mz/production/_ext/202551283/usb_device_cdc.o
 .data          0x0000000000000000        0x0 build/pic32mz/production/_ext/202551283/usb_device_cdc.o
 .reginfo       0x0000000000000000       0x18 build/pic32mz/production/_ext/202551283/usb_device_cdc.o
 .MIPS.abiflags
                0x0000000000000000       0x18 build/pic32mz/production/_ext/202551283/usb_device_cdc.o
 .text._USB_DEVICE_CDC_SerialStateSendIRPCallback
                0x0000000000000000       0xc0 build/pic32mz/production/_ext/202551283/usb_device_cdc.o
 .text._USB_DEVICE_CDC_ReadIRPCallback
                0x0000000000000000       0xc0 build/pic32mz/production/_ext/202551283/usb_device_cdc.o
 .text._USB_DEVICE_CDC_WriteIRPCallback
                0x0000000000000000       0xc0 build/pic32mz/production/_ext/202551283/usb_device_cdc.o
 .text.USB_DEVICE_CDC_Read
                0x0000000000000000      0x1ac build/pic32mz/production/_ext/202551283/usb_device_cdc.o
 .text.USB_DEVICE_CDC_Write
                0x0000000000000000      0x1c8 build/pic32mz/production/_ext/202551283/usb_device_cdc.o
 .text.USB_DEVICE_CDC_EventHandlerSet
                0x0000000000000000       0x38 build/pic32mz/production/_ext/202551283/usb_device_cdc.o
 .text.USB_DEVICE_CDC_ReadPacketSizeGet
                0x0000000000000000       0x1c build/pic32mz/production/_ext/202551283/usb_device_cdc.o
 .text.USB_DEVICE_CDC_WritePacketSizeGet
                0x0000000000000000       0x1c build/pic32mz/production/_ext/202551283/usb_device_cdc.o
 .text.USB_DEVICE_CDC_SerialStateNotificationSend
                0x0000000000000000      0x1d4 build/pic32mz/production/_ext/202551283/usb_device_cdc.o
 .text          0x0000000000000000        0x0 build/pic32mz/production/_ext/202551283/usb_device_cdc_acm.o
 .data          0x0000000000000000        0x0 build/pic32mz/production/_ext/202551283/usb_device_cdc_acm.o
 .bss           0x0000000000000000        0x0 build/pic32mz/production/_ext/202551283/usb_device_cdc_acm.o
 .reginfo       0x0000000000000000       0x18 build/pic32mz/production/_ext/202551283/usb_device_cdc_acm.o
 .MIPS.abiflags
                0x0000000000000000       0x18 build/pic32mz/production/_ext/202551283/usb_device_cdc_acm.o
 .text          0x0000000000000000        0x0 build/pic32mz/production/_ext/953055421/usb_device_init_data.o
 .data          0x0000000000000000        0x0 build/pic32mz/production/_ext/953055421/usb_device_init_data.o
 .bss           0x0000000000000000        0x0 build/pic32mz/production/_ext/953055421/usb_device_init_data.o
 .reginfo       0x0000000000000000       0x18 build/pic32mz/production/_ext/953055421/usb_device_init_data.o
 .MIPS.abiflags
                0x0000000000000000       0x18 build/pic32mz/production/_ext/953055421/usb_device_init_data.o
 .text          0x0000000000000000        0x0 build/pic32mz/production/_ext/953055421/tasks.o
 .data          0x0000000000000000        0x0 build/pic32mz/production/_ext/953055421/tasks.o
 .bss           0x0000000000000000        0x0 build/pic32mz/production/_ext/953055421/tasks.o
 .reginfo       0x0000000000000000       0x18 build/pic32mz/production/_ext/953055421/tasks.o
 .MIPS.abiflags
                0x0000000000000000       0x18 build/pic32mz/production/_ext/953055421/tasks.o
 .text          0x0000000000000000        0x0 build/pic32mz/production/_ext/953055421/initialization.o
 .data          0x0000000000000000        0x0 build/pic32mz/production/_ext/953055421/initialization.o
 .reginfo       0x0000000000000000       0x18 build/pic32mz/production/_ext/953055421/initialization.o
 .MIPS.abiflags
                0x0000000000000000       0x18 build/pic32mz/production/_ext/953055421/initialization.o
 .text          0x0000000000000000        0x0 build/pic32mz/production/_ext/953055421/interrupts.o
 .data          0x0000000000000000        0x0 build/pic32mz/production/_ext/953055421/interrupts.o
 .bss           0x0000000000000000        0x0 build/pic32mz/production/_ext/953055421/interrupts.o
 .reginfo       0x0000000000000000       0x18 build/pic32mz/production/_ext/953055421/interrupts.o
 .MIPS.abiflags
                0x0000000000000000       0x18 build/pic32mz/production/_ext/953055421/interrupts.o
 .text          0x0000000000000000        0x0 build/pic32mz/production/_ext/953055421/exceptions.o
 .data          0x0000000000000000        0x0 build/pic32mz/production/_ext/953055421/exceptions.o
 .bss           0x0000000000000000        0x0 build/pic32mz/production/_ext/953055421/exceptions.o
 .reginfo       0x0000000000000000       0x18 build/pic32mz/production/_ext/953055421/exceptions.o
 .MIPS.abiflags
                0x0000000000000000       0x18 build/pic32mz/production/_ext/953055421/exceptions.o
 .text          0x0000000000000000        0x0 build/pic32mz/production/_ext/1360937237/app.o
 .data          0x0000000000000000        0x0 build/pic32mz/production/_ext/1360937237/app.o
 .reginfo       0x0000000000000000       0x18 build/pic32mz/production/_ext/1360937237/app.o
 .MIPS.abiflags
                0x0000000000000000       0x18 build/pic32mz/production/_ext/1360937237/app.o
 .text          0x0000000000000000        0x0 build/pic32mz/production/_ext/1360937237/main.o
 .data          0x0000000000000000        0x0 build/pic32mz/production/_ext/1360937237/main.o
 .bss           0x0000000000000000        0x0 build/pic32mz/production/_ext/1360937237/main.o
 .reginfo       0x0000000000000000       0x18 build/pic32mz/production/_ext/1360937237/main.o
 .MIPS.abiflags
                0x0000000000000000       0x18 build/pic32mz/production/_ext/1360937237/main.o
 .text          0x0000000000000000        0x0 build/pic32mz/production/_ext/1360937237/communication.o
 .data          0x0000000000000000        0x0 build/pic32mz/production/_ext/1360937237/communication.o
 .reginfo       0x0000000000000000       0x18 build/pic32mz/production/_ext/1360937237/communication.o
 .MIPS.abiflags
                0x0000000000000000       0x18 build/pic32mz/production/_ext/1360937237/communication.o
 .text.communicationHandlingDone
                0x0000000000000000       0x18 build/pic32mz/production/_ext/1360937237/communication.o
 .text.uart6Busy
                0x0000000000000000       0x14 build/pic32mz/production/_ext/1360937237/communication.o
 .text          0x0000000000000000        0x0 build/pic32mz/production/_ext/1360937237/mdot.o
 .data          0x0000000000000000        0x0 build/pic32mz/production/_ext/1360937237/mdot.o
 .reginfo       0x0000000000000000       0x18 build/pic32mz/production/_ext/1360937237/mdot.o
 .MIPS.abiflags
                0x0000000000000000       0x18 build/pic32mz/production/_ext/1360937237/mdot.o
 .text.mDotSetEcho
                0x0000000000000000        0x8 build/pic32mz/production/_ext/1360937237/mdot.o
 .text.checkMDotResponse
                0x0000000000000000       0x78 build/pic32mz/production/_ext/1360937237/mdot.o
 .text          0x0000000000000000        0x0 build/pic32mz/production/_ext/1360937237/stringbuffer.o
 .data          0x0000000000000000        0x0 build/pic32mz/production/_ext/1360937237/stringbuffer.o
 .bss           0x0000000000000000        0x0 build/pic32mz/production/_ext/1360937237/stringbuffer.o
 .reginfo       0x0000000000000000       0x18 build/pic32mz/production/_ext/1360937237/stringbuffer.o
 .MIPS.abiflags
                0x0000000000000000       0x18 build/pic32mz/production/_ext/1360937237/stringbuffer.o
 .text          0x0000000000000000        0x0 C:\Users\VAMSIK~1.A\AppData\Local\Temp\cc9bld9L.o
 .data          0x0000000000000000        0x0 C:\Users\VAMSIK~1.A\AppData\Local\Temp\cc9bld9L.o
 .bss           0x0000000000000000        0x0 C:\Users\VAMSIK~1.A\AppData\Local\Temp\cc9bld9L.o
 .reginfo       0x0000000000000000       0x18 C:\Users\VAMSIK~1.A\AppData\Local\Temp\cc9bld9L.o
 .MIPS.abiflags
                0x0000000000000000       0x18 C:\Users\VAMSIK~1.A\AppData\Local\Temp\cc9bld9L.o
 .text          0x0000000000000000        0x0 C:\Users\VAMSIK~1.A\AppData\Local\Temp\ccZi5BUv.o
 .data          0x0000000000000000        0x0 C:\Users\VAMSIK~1.A\AppData\Local\Temp\ccZi5BUv.o
 .bss           0x0000000000000000        0x0 C:\Users\VAMSIK~1.A\AppData\Local\Temp\ccZi5BUv.o
 .reginfo       0x0000000000000000       0x18 C:\Users\VAMSIK~1.A\AppData\Local\Temp\ccZi5BUv.o
 .MIPS.abiflags
                0x0000000000000000       0x18 C:\Users\VAMSIK~1.A\AppData\Local\Temp\ccZi5BUv.o
 .text          0x0000000000000000        0x0 C:\Users\VAMSIK~1.A\AppData\Local\Temp\ccCYw0TJ.o
 .data          0x0000000000000000        0x0 C:\Users\VAMSIK~1.A\AppData\Local\Temp\ccCYw0TJ.o
 .bss           0x0000000000000000        0x0 C:\Users\VAMSIK~1.A\AppData\Local\Temp\ccCYw0TJ.o
 .reginfo       0x0000000000000000       0x18 C:\Users\VAMSIK~1.A\AppData\Local\Temp\ccCYw0TJ.o
 .MIPS.abiflags
                0x0000000000000000       0x18 C:\Users\VAMSIK~1.A\AppData\Local\Temp\ccCYw0TJ.o
 .text          0x0000000000000000        0x0 C:\Users\VAMSIK~1.A\AppData\Local\Temp\cchP97wt.o
 .data          0x0000000000000000        0x0 C:\Users\VAMSIK~1.A\AppData\Local\Temp\cchP97wt.o
 .bss           0x0000000000000000        0x0 C:\Users\VAMSIK~1.A\AppData\Local\Temp\cchP97wt.o
 .reginfo       0x0000000000000000       0x18 C:\Users\VAMSIK~1.A\AppData\Local\Temp\cchP97wt.o
 .MIPS.abiflags
                0x0000000000000000       0x18 C:\Users\VAMSIK~1.A\AppData\Local\Temp\cchP97wt.o
 .discard       0x0000000000000000        0x4 C:\Users\VAMSIK~1.A\AppData\Local\Temp\cchP97wt.o
 .data          0x0000000000000000        0x0 c:/program files/microchip/xc32/v3.00/bin/bin/../../lib/gcc/pic32mx/8.3.1/../../../../pic32mx/lib/fpu64\pic32_software_reset.o
 .bss           0x0000000000000000        0x0 c:/program files/microchip/xc32/v3.00/bin/bin/../../lib/gcc/pic32mx/8.3.1/../../../../pic32mx/lib/fpu64\pic32_software_reset.o
 .reginfo       0x0000000000000000       0x18 c:/program files/microchip/xc32/v3.00/bin/bin/../../lib/gcc/pic32mx/8.3.1/../../../../pic32mx/lib/fpu64\pic32_software_reset.o
 .MIPS.abiflags
                0x0000000000000000       0x18 c:/program files/microchip/xc32/v3.00/bin/bin/../../lib/gcc/pic32mx/8.3.1/../../../../pic32mx/lib/fpu64\pic32_software_reset.o
 .xc_stack_usage.hdr
                0x0000000000000000        0xe c:/program files/microchip/xc32/v3.00/bin/bin/../../lib/gcc/pic32mx/8.3.1/../../../../pic32mx/lib/fpu64\pic32_software_reset.o
 .xc_stack_usage
                0x0000000000000000       0x24 c:/program files/microchip/xc32/v3.00/bin/bin/../../lib/gcc/pic32mx/8.3.1/../../../../pic32mx/lib/fpu64\pic32_software_reset.o
 .data          0x0000000000000000        0x0 c:/program files/microchip/xc32/v3.00/bin/bin/../../lib/gcc/pic32mx/8.3.1/fpu64\libgcc.a(_udivdi3.o)
 .bss           0x0000000000000000        0x0 c:/program files/microchip/xc32/v3.00/bin/bin/../../lib/gcc/pic32mx/8.3.1/fpu64\libgcc.a(_udivdi3.o)
 .reginfo       0x0000000000000000       0x18 c:/program files/microchip/xc32/v3.00/bin/bin/../../lib/gcc/pic32mx/8.3.1/fpu64\libgcc.a(_udivdi3.o)
 .MIPS.abiflags
                0x0000000000000000       0x18 c:/program files/microchip/xc32/v3.00/bin/bin/../../lib/gcc/pic32mx/8.3.1/fpu64\libgcc.a(_udivdi3.o)
 .xc_stack_usage
                0x0000000000000000       0x17 c:/program files/microchip/xc32/v3.00/bin/bin/../../lib/gcc/pic32mx/8.3.1/fpu64\libgcc.a(_udivdi3.o)
 .xc_stack_usage.hdr
                0x0000000000000000        0xe c:/program files/microchip/xc32/v3.00/bin/bin/../../lib/gcc/pic32mx/8.3.1/fpu64\libgcc.a(_udivdi3.o)
 .data          0x0000000000000000        0x0 c:/program files/microchip/xc32/v3.00/bin/bin/../../lib/gcc/pic32mx/8.3.1/../../../../pic32mx/lib/fpu64\libpic32.a(memcmp.o)
 .bss           0x0000000000000000        0x0 c:/program files/microchip/xc32/v3.00/bin/bin/../../lib/gcc/pic32mx/8.3.1/../../../../pic32mx/lib/fpu64\libpic32.a(memcmp.o)
 .reginfo       0x0000000000000000       0x18 c:/program files/microchip/xc32/v3.00/bin/bin/../../lib/gcc/pic32mx/8.3.1/../../../../pic32mx/lib/fpu64\libpic32.a(memcmp.o)
 .MIPS.abiflags
                0x0000000000000000       0x18 c:/program files/microchip/xc32/v3.00/bin/bin/../../lib/gcc/pic32mx/8.3.1/../../../../pic32mx/lib/fpu64\libpic32.a(memcmp.o)
 .xc_stack_usage.hdr
                0x0000000000000000        0xe c:/program files/microchip/xc32/v3.00/bin/bin/../../lib/gcc/pic32mx/8.3.1/../../../../pic32mx/lib/fpu64\libpic32.a(memcmp.o)
 .xc_stack_usage
                0x0000000000000000       0x14 c:/program files/microchip/xc32/v3.00/bin/bin/../../lib/gcc/pic32mx/8.3.1/../../../../pic32mx/lib/fpu64\libpic32.a(memcmp.o)
 .data          0x0000000000000000        0x0 c:/program files/microchip/xc32/v3.00/bin/bin/../../lib/gcc/pic32mx/8.3.1/../../../../pic32mx/lib/fpu64\libpic32.a(memcpy.o)
 .bss           0x0000000000000000        0x0 c:/program files/microchip/xc32/v3.00/bin/bin/../../lib/gcc/pic32mx/8.3.1/../../../../pic32mx/lib/fpu64\libpic32.a(memcpy.o)
 .reginfo       0x0000000000000000       0x18 c:/program files/microchip/xc32/v3.00/bin/bin/../../lib/gcc/pic32mx/8.3.1/../../../../pic32mx/lib/fpu64\libpic32.a(memcpy.o)
 .MIPS.abiflags
                0x0000000000000000       0x18 c:/program files/microchip/xc32/v3.00/bin/bin/../../lib/gcc/pic32mx/8.3.1/../../../../pic32mx/lib/fpu64\libpic32.a(memcpy.o)
 .xc_stack_usage.hdr
                0x0000000000000000        0xe c:/program files/microchip/xc32/v3.00/bin/bin/../../lib/gcc/pic32mx/8.3.1/../../../../pic32mx/lib/fpu64\libpic32.a(memcpy.o)
 .xc_stack_usage
                0x0000000000000000       0x14 c:/program files/microchip/xc32/v3.00/bin/bin/../../lib/gcc/pic32mx/8.3.1/../../../../pic32mx/lib/fpu64\libpic32.a(memcpy.o)
 .data          0x0000000000000000        0x0 c:/program files/microchip/xc32/v3.00/bin/bin/../../lib/gcc/pic32mx/8.3.1/../../../../pic32mx/lib/fpu64\libpic32.a(memset.o)
 .bss           0x0000000000000000        0x0 c:/program files/microchip/xc32/v3.00/bin/bin/../../lib/gcc/pic32mx/8.3.1/../../../../pic32mx/lib/fpu64\libpic32.a(memset.o)
 .reginfo       0x0000000000000000       0x18 c:/program files/microchip/xc32/v3.00/bin/bin/../../lib/gcc/pic32mx/8.3.1/../../../../pic32mx/lib/fpu64\libpic32.a(memset.o)
 .MIPS.abiflags
                0x0000000000000000       0x18 c:/program files/microchip/xc32/v3.00/bin/bin/../../lib/gcc/pic32mx/8.3.1/../../../../pic32mx/lib/fpu64\libpic32.a(memset.o)
 .xc_stack_usage.hdr
                0x0000000000000000        0xe c:/program files/microchip/xc32/v3.00/bin/bin/../../lib/gcc/pic32mx/8.3.1/../../../../pic32mx/lib/fpu64\libpic32.a(memset.o)
 .xc_stack_usage
                0x0000000000000000       0x14 c:/program files/microchip/xc32/v3.00/bin/bin/../../lib/gcc/pic32mx/8.3.1/../../../../pic32mx/lib/fpu64\libpic32.a(memset.o)
 .text          0x0000000000000000      0x120 c:/program files/microchip/xc32/v3.00/bin/bin/../../lib/gcc/pic32mx/8.3.1/../../../../pic32mx/lib/fpu64\libpic32.a(strcmp.o)
 .data          0x0000000000000000        0x0 c:/program files/microchip/xc32/v3.00/bin/bin/../../lib/gcc/pic32mx/8.3.1/../../../../pic32mx/lib/fpu64\libpic32.a(strcmp.o)
 .bss           0x0000000000000000        0x0 c:/program files/microchip/xc32/v3.00/bin/bin/../../lib/gcc/pic32mx/8.3.1/../../../../pic32mx/lib/fpu64\libpic32.a(strcmp.o)
 .reginfo       0x0000000000000000       0x18 c:/program files/microchip/xc32/v3.00/bin/bin/../../lib/gcc/pic32mx/8.3.1/../../../../pic32mx/lib/fpu64\libpic32.a(strcmp.o)
 .MIPS.abiflags
                0x0000000000000000       0x18 c:/program files/microchip/xc32/v3.00/bin/bin/../../lib/gcc/pic32mx/8.3.1/../../../../pic32mx/lib/fpu64\libpic32.a(strcmp.o)
 .comment       0x0000000000000000       0x1a c:/program files/microchip/xc32/v3.00/bin/bin/../../lib/gcc/pic32mx/8.3.1/../../../../pic32mx/lib/fpu64\libpic32.a(strcmp.o)
 .xc_stack_usage.hdr
                0x0000000000000000        0xe c:/program files/microchip/xc32/v3.00/bin/bin/../../lib/gcc/pic32mx/8.3.1/../../../../pic32mx/lib/fpu64\libpic32.a(strcmp.o)
 .xc_stack_usage
                0x0000000000000000       0x14 c:/program files/microchip/xc32/v3.00/bin/bin/../../lib/gcc/pic32mx/8.3.1/../../../../pic32mx/lib/fpu64\libpic32.a(strcmp.o)
 .data          0x0000000000000000        0x0 c:/program files/microchip/xc32/v3.00/bin/bin/../../lib/gcc/pic32mx/8.3.1/../../../../pic32mx/lib/fpu64\libpic32.a(strcpy.o)
 .bss           0x0000000000000000        0x0 c:/program files/microchip/xc32/v3.00/bin/bin/../../lib/gcc/pic32mx/8.3.1/../../../../pic32mx/lib/fpu64\libpic32.a(strcpy.o)
 .reginfo       0x0000000000000000       0x18 c:/program files/microchip/xc32/v3.00/bin/bin/../../lib/gcc/pic32mx/8.3.1/../../../../pic32mx/lib/fpu64\libpic32.a(strcpy.o)
 .MIPS.abiflags
                0x0000000000000000       0x18 c:/program files/microchip/xc32/v3.00/bin/bin/../../lib/gcc/pic32mx/8.3.1/../../../../pic32mx/lib/fpu64\libpic32.a(strcpy.o)
 .xc_stack_usage.hdr
                0x0000000000000000        0xe c:/program files/microchip/xc32/v3.00/bin/bin/../../lib/gcc/pic32mx/8.3.1/../../../../pic32mx/lib/fpu64\libpic32.a(strcpy.o)
 .xc_stack_usage
                0x0000000000000000       0x14 c:/program files/microchip/xc32/v3.00/bin/bin/../../lib/gcc/pic32mx/8.3.1/../../../../pic32mx/lib/fpu64\libpic32.a(strcpy.o)
 .data          0x0000000000000000        0x0 c:/program files/microchip/xc32/v3.00/bin/bin/../../lib/gcc/pic32mx/8.3.1/../../../../pic32mx/lib/fpu64\libpic32.a(strlen.o)
 .bss           0x0000000000000000        0x0 c:/program files/microchip/xc32/v3.00/bin/bin/../../lib/gcc/pic32mx/8.3.1/../../../../pic32mx/lib/fpu64\libpic32.a(strlen.o)
 .reginfo       0x0000000000000000       0x18 c:/program files/microchip/xc32/v3.00/bin/bin/../../lib/gcc/pic32mx/8.3.1/../../../../pic32mx/lib/fpu64\libpic32.a(strlen.o)
 .MIPS.abiflags
                0x0000000000000000       0x18 c:/program files/microchip/xc32/v3.00/bin/bin/../../lib/gcc/pic32mx/8.3.1/../../../../pic32mx/lib/fpu64\libpic32.a(strlen.o)
 .xc_stack_usage.hdr
                0x0000000000000000        0xe c:/program files/microchip/xc32/v3.00/bin/bin/../../lib/gcc/pic32mx/8.3.1/../../../../pic32mx/lib/fpu64\libpic32.a(strlen.o)
 .xc_stack_usage
                0x0000000000000000       0x14 c:/program files/microchip/xc32/v3.00/bin/bin/../../lib/gcc/pic32mx/8.3.1/../../../../pic32mx/lib/fpu64\libpic32.a(strlen.o)
 .text          0x0000000000000000        0x0 c:/program files/microchip/xc32/v3.00/bin/bin/../../lib/gcc/pic32mx/8.3.1/../../../../pic32mx/lib/fpu64\libpic32.a(default-on-reset.o)
 .data          0x0000000000000000        0x0 c:/program files/microchip/xc32/v3.00/bin/bin/../../lib/gcc/pic32mx/8.3.1/../../../../pic32mx/lib/fpu64\libpic32.a(default-on-reset.o)
 .bss           0x0000000000000000        0x0 c:/program files/microchip/xc32/v3.00/bin/bin/../../lib/gcc/pic32mx/8.3.1/../../../../pic32mx/lib/fpu64\libpic32.a(default-on-reset.o)
 .reginfo       0x0000000000000000       0x18 c:/program files/microchip/xc32/v3.00/bin/bin/../../lib/gcc/pic32mx/8.3.1/../../../../pic32mx/lib/fpu64\libpic32.a(default-on-reset.o)
 .MIPS.abiflags
                0x0000000000000000       0x18 c:/program files/microchip/xc32/v3.00/bin/bin/../../lib/gcc/pic32mx/8.3.1/../../../../pic32mx/lib/fpu64\libpic32.a(default-on-reset.o)
 .xc_stack_usage
                0x0000000000000000       0x17 c:/program files/microchip/xc32/v3.00/bin/bin/../../lib/gcc/pic32mx/8.3.1/../../../../pic32mx/lib/fpu64\libpic32.a(default-on-reset.o)
 .xc_stack_usage.hdr
                0x0000000000000000        0xe c:/program files/microchip/xc32/v3.00/bin/bin/../../lib/gcc/pic32mx/8.3.1/../../../../pic32mx/lib/fpu64\libpic32.a(default-on-reset.o)
 .text          0x0000000000000000        0x0 c:/program files/microchip/xc32/v3.00/bin/bin/../../lib/gcc/pic32mx/8.3.1/../../../../pic32mx/lib/fpu64\libpic32.a(default-on-bootstrap.o)
 .data          0x0000000000000000        0x0 c:/program files/microchip/xc32/v3.00/bin/bin/../../lib/gcc/pic32mx/8.3.1/../../../../pic32mx/lib/fpu64\libpic32.a(default-on-bootstrap.o)
 .bss           0x0000000000000000        0x0 c:/program files/microchip/xc32/v3.00/bin/bin/../../lib/gcc/pic32mx/8.3.1/../../../../pic32mx/lib/fpu64\libpic32.a(default-on-bootstrap.o)
 .reginfo       0x0000000000000000       0x18 c:/program files/microchip/xc32/v3.00/bin/bin/../../lib/gcc/pic32mx/8.3.1/../../../../pic32mx/lib/fpu64\libpic32.a(default-on-bootstrap.o)
 .MIPS.abiflags
                0x0000000000000000       0x18 c:/program files/microchip/xc32/v3.00/bin/bin/../../lib/gcc/pic32mx/8.3.1/../../../../pic32mx/lib/fpu64\libpic32.a(default-on-bootstrap.o)
 .xc_stack_usage
                0x0000000000000000       0x1b c:/program files/microchip/xc32/v3.00/bin/bin/../../lib/gcc/pic32mx/8.3.1/../../../../pic32mx/lib/fpu64\libpic32.a(default-on-bootstrap.o)
 .xc_stack_usage.hdr
                0x0000000000000000        0xe c:/program files/microchip/xc32/v3.00/bin/bin/../../lib/gcc/pic32mx/8.3.1/../../../../pic32mx/lib/fpu64\libpic32.a(default-on-bootstrap.o)
 .data          0x0000000000000000        0x0 c:/program files/microchip/xc32/v3.00/bin/bin/../../lib/gcc/pic32mx/8.3.1/../../../../pic32mx/lib/fpu64\libpic32.a(default-nmi-handler.o)
 .bss           0x0000000000000000        0x0 c:/program files/microchip/xc32/v3.00/bin/bin/../../lib/gcc/pic32mx/8.3.1/../../../../pic32mx/lib/fpu64\libpic32.a(default-nmi-handler.o)
 .reginfo       0x0000000000000000       0x18 c:/program files/microchip/xc32/v3.00/bin/bin/../../lib/gcc/pic32mx/8.3.1/../../../../pic32mx/lib/fpu64\libpic32.a(default-nmi-handler.o)
 .MIPS.abiflags
                0x0000000000000000       0x18 c:/program files/microchip/xc32/v3.00/bin/bin/../../lib/gcc/pic32mx/8.3.1/../../../../pic32mx/lib/fpu64\libpic32.a(default-nmi-handler.o)
 .xc_stack_usage.hdr
                0x0000000000000000        0xe c:/program files/microchip/xc32/v3.00/bin/bin/../../lib/gcc/pic32mx/8.3.1/../../../../pic32mx/lib/fpu64\libpic32.a(default-nmi-handler.o)
 .xc_stack_usage
                0x0000000000000000       0x1a c:/program files/microchip/xc32/v3.00/bin/bin/../../lib/gcc/pic32mx/8.3.1/../../../../pic32mx/lib/fpu64\libpic32.a(default-nmi-handler.o)
 .data          0x0000000000000000        0x0 c:/program files/microchip/xc32/v3.00/bin/bin/../../lib/gcc/pic32mx/8.3.1/../../../../pic32mx/lib/fpu64\libpic32.a(pic32_data_init.o)
 .bss           0x0000000000000000        0x0 c:/program files/microchip/xc32/v3.00/bin/bin/../../lib/gcc/pic32mx/8.3.1/../../../../pic32mx/lib/fpu64\libpic32.a(pic32_data_init.o)
 .reginfo       0x0000000000000000       0x18 c:/program files/microchip/xc32/v3.00/bin/bin/../../lib/gcc/pic32mx/8.3.1/../../../../pic32mx/lib/fpu64\libpic32.a(pic32_data_init.o)
 .MIPS.abiflags
                0x0000000000000000       0x18 c:/program files/microchip/xc32/v3.00/bin/bin/../../lib/gcc/pic32mx/8.3.1/../../../../pic32mx/lib/fpu64\libpic32.a(pic32_data_init.o)
 .xc_stack_usage.hdr
                0x0000000000000000        0xe c:/program files/microchip/xc32/v3.00/bin/bin/../../lib/gcc/pic32mx/8.3.1/../../../../pic32mx/lib/fpu64\libpic32.a(pic32_data_init.o)
 .xc_stack_usage
                0x0000000000000000       0x1f c:/program files/microchip/xc32/v3.00/bin/bin/../../lib/gcc/pic32mx/8.3.1/../../../../pic32mx/lib/fpu64\libpic32.a(pic32_data_init.o)
 .text          0x0000000000000000        0x0 c:/program files/microchip/xc32/v3.00/bin/bin/../../lib/gcc/pic32mx/8.3.1/../../../../pic32mx/lib/fpu64\libpic32.a(pic32_init_cache.o)
 .data          0x0000000000000000        0x0 c:/program files/microchip/xc32/v3.00/bin/bin/../../lib/gcc/pic32mx/8.3.1/../../../../pic32mx/lib/fpu64\libpic32.a(pic32_init_cache.o)
 .bss           0x0000000000000000        0x0 c:/program files/microchip/xc32/v3.00/bin/bin/../../lib/gcc/pic32mx/8.3.1/../../../../pic32mx/lib/fpu64\libpic32.a(pic32_init_cache.o)
 .reginfo       0x0000000000000000       0x18 c:/program files/microchip/xc32/v3.00/bin/bin/../../lib/gcc/pic32mx/8.3.1/../../../../pic32mx/lib/fpu64\libpic32.a(pic32_init_cache.o)
 .MIPS.abiflags
                0x0000000000000000       0x18 c:/program files/microchip/xc32/v3.00/bin/bin/../../lib/gcc/pic32mx/8.3.1/../../../../pic32mx/lib/fpu64\libpic32.a(pic32_init_cache.o)
 .cache_init.pic32_size_cache
                0x0000000000000000       0x58 c:/program files/microchip/xc32/v3.00/bin/bin/../../lib/gcc/pic32mx/8.3.1/../../../../pic32mx/lib/fpu64\libpic32.a(pic32_init_cache.o)
 .xc_stack_usage.hdr
                0x0000000000000000        0xe c:/program files/microchip/xc32/v3.00/bin/bin/../../lib/gcc/pic32mx/8.3.1/../../../../pic32mx/lib/fpu64\libpic32.a(pic32_init_cache.o)
 .xc_stack_usage
                0x0000000000000000       0x5a c:/program files/microchip/xc32/v3.00/bin/bin/../../lib/gcc/pic32mx/8.3.1/../../../../pic32mx/lib/fpu64\libpic32.a(pic32_init_cache.o)
 .text          0x0000000000000000        0x0 c:/program files/microchip/xc32/v3.00/bin/bin/../../lib/gcc/pic32mx/8.3.1/../../../../pic32mx/lib/fpu64\libpic32.a(pic32_init_tlb_ebi_sqi.o)
 .data          0x0000000000000000        0x0 c:/program files/microchip/xc32/v3.00/bin/bin/../../lib/gcc/pic32mx/8.3.1/../../../../pic32mx/lib/fpu64\libpic32.a(pic32_init_tlb_ebi_sqi.o)
 .bss           0x0000000000000000        0x0 c:/program files/microchip/xc32/v3.00/bin/bin/../../lib/gcc/pic32mx/8.3.1/../../../../pic32mx/lib/fpu64\libpic32.a(pic32_init_tlb_ebi_sqi.o)
 .reginfo       0x0000000000000000       0x18 c:/program files/microchip/xc32/v3.00/bin/bin/../../lib/gcc/pic32mx/8.3.1/../../../../pic32mx/lib/fpu64\libpic32.a(pic32_init_tlb_ebi_sqi.o)
 .MIPS.abiflags
                0x0000000000000000       0x18 c:/program files/microchip/xc32/v3.00/bin/bin/../../lib/gcc/pic32mx/8.3.1/../../../../pic32mx/lib/fpu64\libpic32.a(pic32_init_tlb_ebi_sqi.o)
 .xc_stack_usage.hdr
                0x0000000000000000        0xe c:/program files/microchip/xc32/v3.00/bin/bin/../../lib/gcc/pic32mx/8.3.1/../../../../pic32mx/lib/fpu64\libpic32.a(pic32_init_tlb_ebi_sqi.o)
 .xc_stack_usage
                0x0000000000000000       0x26 c:/program files/microchip/xc32/v3.00/bin/bin/../../lib/gcc/pic32mx/8.3.1/../../../../pic32mx/lib/fpu64\libpic32.a(pic32_init_tlb_ebi_sqi.o)
 .text          0x0000000000000000        0x0 c:/program files/microchip/xc32/v3.00/bin/bin/../../lib/gcc/pic32mx/8.3.1/../../../../pic32mx/lib/fpu64\libpic32.a(general-exception.o)
 .data          0x0000000000000000        0x0 c:/program files/microchip/xc32/v3.00/bin/bin/../../lib/gcc/pic32mx/8.3.1/../../../../pic32mx/lib/fpu64\libpic32.a(general-exception.o)
 .bss           0x0000000000000000        0x0 c:/program files/microchip/xc32/v3.00/bin/bin/../../lib/gcc/pic32mx/8.3.1/../../../../pic32mx/lib/fpu64\libpic32.a(general-exception.o)
 .reginfo       0x0000000000000000       0x18 c:/program files/microchip/xc32/v3.00/bin/bin/../../lib/gcc/pic32mx/8.3.1/../../../../pic32mx/lib/fpu64\libpic32.a(general-exception.o)
 .MIPS.abiflags
                0x0000000000000000       0x18 c:/program files/microchip/xc32/v3.00/bin/bin/../../lib/gcc/pic32mx/8.3.1/../../../../pic32mx/lib/fpu64\libpic32.a(general-exception.o)
 .xc_stack_usage.hdr
                0x0000000000000000        0xe c:/program files/microchip/xc32/v3.00/bin/bin/../../lib/gcc/pic32mx/8.3.1/../../../../pic32mx/lib/fpu64\libpic32.a(general-exception.o)
 .xc_stack_usage
                0x0000000000000000       0x28 c:/program files/microchip/xc32/v3.00/bin/bin/../../lib/gcc/pic32mx/8.3.1/../../../../pic32mx/lib/fpu64\libpic32.a(general-exception.o)
 .text          0x0000000000000000        0x0 c:/program files/microchip/xc32/v3.00/bin/bin/../../lib/gcc/pic32mx/8.3.1/../../../../pic32mx/lib/fpu64\libpic32.a(cache-err-exception.o)
 .data          0x0000000000000000        0x0 c:/program files/microchip/xc32/v3.00/bin/bin/../../lib/gcc/pic32mx/8.3.1/../../../../pic32mx/lib/fpu64\libpic32.a(cache-err-exception.o)
 .bss           0x0000000000000000        0x0 c:/program files/microchip/xc32/v3.00/bin/bin/../../lib/gcc/pic32mx/8.3.1/../../../../pic32mx/lib/fpu64\libpic32.a(cache-err-exception.o)
 .reginfo       0x0000000000000000       0x18 c:/program files/microchip/xc32/v3.00/bin/bin/../../lib/gcc/pic32mx/8.3.1/../../../../pic32mx/lib/fpu64\libpic32.a(cache-err-exception.o)
 .MIPS.abiflags
                0x0000000000000000       0x18 c:/program files/microchip/xc32/v3.00/bin/bin/../../lib/gcc/pic32mx/8.3.1/../../../../pic32mx/lib/fpu64\libpic32.a(cache-err-exception.o)
 .xc_stack_usage.hdr
                0x0000000000000000        0xe c:/program files/microchip/xc32/v3.00/bin/bin/../../lib/gcc/pic32mx/8.3.1/../../../../pic32mx/lib/fpu64\libpic32.a(cache-err-exception.o)
 .xc_stack_usage
                0x0000000000000000       0x2a c:/program files/microchip/xc32/v3.00/bin/bin/../../lib/gcc/pic32mx/8.3.1/../../../../pic32mx/lib/fpu64\libpic32.a(cache-err-exception.o)
 .text          0x0000000000000000        0x0 c:/program files/microchip/xc32/v3.00/bin/bin/../../lib/gcc/pic32mx/8.3.1/../../../../pic32mx/lib/fpu64\libpic32.a(simple-tlb-refill-exception.o)
 .data          0x0000000000000000        0x0 c:/program files/microchip/xc32/v3.00/bin/bin/../../lib/gcc/pic32mx/8.3.1/../../../../pic32mx/lib/fpu64\libpic32.a(simple-tlb-refill-exception.o)
 .bss           0x0000000000000000        0x0 c:/program files/microchip/xc32/v3.00/bin/bin/../../lib/gcc/pic32mx/8.3.1/../../../../pic32mx/lib/fpu64\libpic32.a(simple-tlb-refill-exception.o)
 .reginfo       0x0000000000000000       0x18 c:/program files/microchip/xc32/v3.00/bin/bin/../../lib/gcc/pic32mx/8.3.1/../../../../pic32mx/lib/fpu64\libpic32.a(simple-tlb-refill-exception.o)
 .MIPS.abiflags
                0x0000000000000000       0x18 c:/program files/microchip/xc32/v3.00/bin/bin/../../lib/gcc/pic32mx/8.3.1/../../../../pic32mx/lib/fpu64\libpic32.a(simple-tlb-refill-exception.o)
 .xc_stack_usage.hdr
                0x0000000000000000        0xe c:/program files/microchip/xc32/v3.00/bin/bin/../../lib/gcc/pic32mx/8.3.1/../../../../pic32mx/lib/fpu64\libpic32.a(simple-tlb-refill-exception.o)
 .xc_stack_usage
                0x0000000000000000       0x32 c:/program files/microchip/xc32/v3.00/bin/bin/../../lib/gcc/pic32mx/8.3.1/../../../../pic32mx/lib/fpu64\libpic32.a(simple-tlb-refill-exception.o)
 .text          0x0000000000000000        0x0 c:/program files/microchip/xc32/v3.00/bin/bin/../../lib/gcc/pic32mx/8.3.1/../../../../pic32mx/lib/fpu64\libpic32.a(defaultinterrupt.o)
 .data          0x0000000000000000        0x0 c:/program files/microchip/xc32/v3.00/bin/bin/../../lib/gcc/pic32mx/8.3.1/../../../../pic32mx/lib/fpu64\libpic32.a(defaultinterrupt.o)
 .bss           0x0000000000000000        0x0 c:/program files/microchip/xc32/v3.00/bin/bin/../../lib/gcc/pic32mx/8.3.1/../../../../pic32mx/lib/fpu64\libpic32.a(defaultinterrupt.o)
 .reginfo       0x0000000000000000       0x18 c:/program files/microchip/xc32/v3.00/bin/bin/../../lib/gcc/pic32mx/8.3.1/../../../../pic32mx/lib/fpu64\libpic32.a(defaultinterrupt.o)
 .MIPS.abiflags
                0x0000000000000000       0x18 c:/program files/microchip/xc32/v3.00/bin/bin/../../lib/gcc/pic32mx/8.3.1/../../../../pic32mx/lib/fpu64\libpic32.a(defaultinterrupt.o)
 .xc_stack_usage
                0x0000000000000000       0x1f c:/program files/microchip/xc32/v3.00/bin/bin/../../lib/gcc/pic32mx/8.3.1/../../../../pic32mx/lib/fpu64\libpic32.a(defaultinterrupt.o)
 .xc_stack_usage.hdr
                0x0000000000000000        0xe c:/program files/microchip/xc32/v3.00/bin/bin/../../lib/gcc/pic32mx/8.3.1/../../../../pic32mx/lib/fpu64\libpic32.a(defaultinterrupt.o)
 .text          0x0000000000000000        0x0 c:/program files/microchip/xc32/v3.00/bin/bin/../../lib/gcc/pic32mx/8.3.1/../../../../pic32mx/lib/fpu64\libc.a(_iob.o)
 .reginfo       0x0000000000000000       0x18 c:/program files/microchip/xc32/v3.00/bin/bin/../../lib/gcc/pic32mx/8.3.1/../../../../pic32mx/lib/fpu64\libc.a(_iob.o)
 .MIPS.abiflags
                0x0000000000000000       0x18 c:/program files/microchip/xc32/v3.00/bin/bin/../../lib/gcc/pic32mx/8.3.1/../../../../pic32mx/lib/fpu64\libc.a(_iob.o)
 .xc_stack_usage.hdr
                0x0000000000000000        0xe c:/program files/microchip/xc32/v3.00/bin/bin/../../lib/gcc/pic32mx/8.3.1/../../../../pic32mx/lib/fpu64\libc.a(_iob.o)
 .text          0x0000000000000000        0x0 c:/program files/microchip/xc32/v3.00/bin/bin/../../lib/gcc/pic32mx/8.3.1/../../../../pic32mx/lib/fpu64\libc.a(memmove.o)
 .data          0x0000000000000000        0x0 c:/program files/microchip/xc32/v3.00/bin/bin/../../lib/gcc/pic32mx/8.3.1/../../../../pic32mx/lib/fpu64\libc.a(memmove.o)
 .bss           0x0000000000000000        0x0 c:/program files/microchip/xc32/v3.00/bin/bin/../../lib/gcc/pic32mx/8.3.1/../../../../pic32mx/lib/fpu64\libc.a(memmove.o)
 .reginfo       0x0000000000000000       0x18 c:/program files/microchip/xc32/v3.00/bin/bin/../../lib/gcc/pic32mx/8.3.1/../../../../pic32mx/lib/fpu64\libc.a(memmove.o)
 .MIPS.abiflags
                0x0000000000000000       0x18 c:/program files/microchip/xc32/v3.00/bin/bin/../../lib/gcc/pic32mx/8.3.1/../../../../pic32mx/lib/fpu64\libc.a(memmove.o)
 .xc_stack_usage
                0x0000000000000000       0x15 c:/program files/microchip/xc32/v3.00/bin/bin/../../lib/gcc/pic32mx/8.3.1/../../../../pic32mx/lib/fpu64\libc.a(memmove.o)
 .xc_stack_usage.hdr
                0x0000000000000000        0xe c:/program files/microchip/xc32/v3.00/bin/bin/../../lib/gcc/pic32mx/8.3.1/../../../../pic32mx/lib/fpu64\libc.a(memmove.o)
 .text          0x0000000000000000        0x0 c:/program files/microchip/xc32/v3.00/bin/bin/../../lib/gcc/pic32mx/8.3.1/../../../../pic32mx/lib/fpu64\libc.a(setbuf.o)
 .data          0x0000000000000000        0x0 c:/program files/microchip/xc32/v3.00/bin/bin/../../lib/gcc/pic32mx/8.3.1/../../../../pic32mx/lib/fpu64\libc.a(setbuf.o)
 .bss           0x0000000000000000        0x0 c:/program files/microchip/xc32/v3.00/bin/bin/../../lib/gcc/pic32mx/8.3.1/../../../../pic32mx/lib/fpu64\libc.a(setbuf.o)
 .reginfo       0x0000000000000000       0x18 c:/program files/microchip/xc32/v3.00/bin/bin/../../lib/gcc/pic32mx/8.3.1/../../../../pic32mx/lib/fpu64\libc.a(setbuf.o)
 .MIPS.abiflags
                0x0000000000000000       0x18 c:/program files/microchip/xc32/v3.00/bin/bin/../../lib/gcc/pic32mx/8.3.1/../../../../pic32mx/lib/fpu64\libc.a(setbuf.o)
 .xc_stack_usage
                0x0000000000000000       0x29 c:/program files/microchip/xc32/v3.00/bin/bin/../../lib/gcc/pic32mx/8.3.1/../../../../pic32mx/lib/fpu64\libc.a(setbuf.o)
 .xc_stack_usage.hdr
                0x0000000000000000        0xe c:/program files/microchip/xc32/v3.00/bin/bin/../../lib/gcc/pic32mx/8.3.1/../../../../pic32mx/lib/fpu64\libc.a(setbuf.o)
 .text          0x0000000000000000        0x0 c:/program files/microchip/xc32/v3.00/bin/bin/../../lib/gcc/pic32mx/8.3.1/../../../../pic32mx/lib/fpu64\libc.a(strncmp.o)
 .data          0x0000000000000000        0x0 c:/program files/microchip/xc32/v3.00/bin/bin/../../lib/gcc/pic32mx/8.3.1/../../../../pic32mx/lib/fpu64\libc.a(strncmp.o)
 .bss           0x0000000000000000        0x0 c:/program files/microchip/xc32/v3.00/bin/bin/../../lib/gcc/pic32mx/8.3.1/../../../../pic32mx/lib/fpu64\libc.a(strncmp.o)
 .reginfo       0x0000000000000000       0x18 c:/program files/microchip/xc32/v3.00/bin/bin/../../lib/gcc/pic32mx/8.3.1/../../../../pic32mx/lib/fpu64\libc.a(strncmp.o)
 .MIPS.abiflags
                0x0000000000000000       0x18 c:/program files/microchip/xc32/v3.00/bin/bin/../../lib/gcc/pic32mx/8.3.1/../../../../pic32mx/lib/fpu64\libc.a(strncmp.o)
 .xc_stack_usage
                0x0000000000000000       0x15 c:/program files/microchip/xc32/v3.00/bin/bin/../../lib/gcc/pic32mx/8.3.1/../../../../pic32mx/lib/fpu64\libc.a(strncmp.o)
 .text.strncmp  0x0000000000000000       0x3c c:/program files/microchip/xc32/v3.00/bin/bin/../../lib/gcc/pic32mx/8.3.1/../../../../pic32mx/lib/fpu64\libc.a(strncmp.o)
 .xc_stack_usage.hdr
                0x0000000000000000        0xe c:/program files/microchip/xc32/v3.00/bin/bin/../../lib/gcc/pic32mx/8.3.1/../../../../pic32mx/lib/fpu64\libc.a(strncmp.o)
 .text          0x0000000000000000        0x0 c:/program files/microchip/xc32/v3.00/bin/bin/../../lib/gcc/pic32mx/8.3.1/../../../../pic32mx/lib/fpu64\libc.a(strncpy.o)
 .data          0x0000000000000000        0x0 c:/program files/microchip/xc32/v3.00/bin/bin/../../lib/gcc/pic32mx/8.3.1/../../../../pic32mx/lib/fpu64\libc.a(strncpy.o)
 .bss           0x0000000000000000        0x0 c:/program files/microchip/xc32/v3.00/bin/bin/../../lib/gcc/pic32mx/8.3.1/../../../../pic32mx/lib/fpu64\libc.a(strncpy.o)
 .reginfo       0x0000000000000000       0x18 c:/program files/microchip/xc32/v3.00/bin/bin/../../lib/gcc/pic32mx/8.3.1/../../../../pic32mx/lib/fpu64\libc.a(strncpy.o)
 .MIPS.abiflags
                0x0000000000000000       0x18 c:/program files/microchip/xc32/v3.00/bin/bin/../../lib/gcc/pic32mx/8.3.1/../../../../pic32mx/lib/fpu64\libc.a(strncpy.o)
 .xc_stack_usage
                0x0000000000000000       0x15 c:/program files/microchip/xc32/v3.00/bin/bin/../../lib/gcc/pic32mx/8.3.1/../../../../pic32mx/lib/fpu64\libc.a(strncpy.o)
 .text.strncpy  0x0000000000000000       0x44 c:/program files/microchip/xc32/v3.00/bin/bin/../../lib/gcc/pic32mx/8.3.1/../../../../pic32mx/lib/fpu64\libc.a(strncpy.o)
 .xc_stack_usage.hdr
                0x0000000000000000        0xe c:/program files/microchip/xc32/v3.00/bin/bin/../../lib/gcc/pic32mx/8.3.1/../../../../pic32mx/lib/fpu64\libc.a(strncpy.o)
 .text          0x0000000000000000        0x0 c:/program files/microchip/xc32/v3.00/bin/bin/../../lib/gcc/pic32mx/8.3.1/../../../../pic32mx/lib/fpu64\libc.a(sprintf_cdnopsuxX.eo)
 .data          0x0000000000000000        0x0 c:/program files/microchip/xc32/v3.00/bin/bin/../../lib/gcc/pic32mx/8.3.1/../../../../pic32mx/lib/fpu64\libc.a(sprintf_cdnopsuxX.eo)
 .bss           0x0000000000000000        0x0 c:/program files/microchip/xc32/v3.00/bin/bin/../../lib/gcc/pic32mx/8.3.1/../../../../pic32mx/lib/fpu64\libc.a(sprintf_cdnopsuxX.eo)
 .reginfo       0x0000000000000000       0x18 c:/program files/microchip/xc32/v3.00/bin/bin/../../lib/gcc/pic32mx/8.3.1/../../../../pic32mx/lib/fpu64\libc.a(sprintf_cdnopsuxX.eo)
 .MIPS.abiflags
                0x0000000000000000       0x18 c:/program files/microchip/xc32/v3.00/bin/bin/../../lib/gcc/pic32mx/8.3.1/../../../../pic32mx/lib/fpu64\libc.a(sprintf_cdnopsuxX.eo)
 .xc_stack_usage
                0x0000000000000000       0x20 c:/program files/microchip/xc32/v3.00/bin/bin/../../lib/gcc/pic32mx/8.3.1/../../../../pic32mx/lib/fpu64\libc.a(sprintf_cdnopsuxX.eo)
 .xc_stack_usage.hdr
                0x0000000000000000        0xe c:/program files/microchip/xc32/v3.00/bin/bin/../../lib/gcc/pic32mx/8.3.1/../../../../pic32mx/lib/fpu64\libc.a(sprintf_cdnopsuxX.eo)
 .text          0x0000000000000000        0x0 c:/program files/microchip/xc32/v3.00/bin/bin/../../lib/gcc/pic32mx/8.3.1/../../../../pic32mx/lib/fpu64\libc.a(buf.o)
 .data          0x0000000000000000        0x0 c:/program files/microchip/xc32/v3.00/bin/bin/../../lib/gcc/pic32mx/8.3.1/../../../../pic32mx/lib/fpu64\libc.a(buf.o)
 .reginfo       0x0000000000000000       0x18 c:/program files/microchip/xc32/v3.00/bin/bin/../../lib/gcc/pic32mx/8.3.1/../../../../pic32mx/lib/fpu64\libc.a(buf.o)
 .MIPS.abiflags
                0x0000000000000000       0x18 c:/program files/microchip/xc32/v3.00/bin/bin/../../lib/gcc/pic32mx/8.3.1/../../../../pic32mx/lib/fpu64\libc.a(buf.o)
 .xc_stack_usage
                0x0000000000000000       0x2c c:/program files/microchip/xc32/v3.00/bin/bin/../../lib/gcc/pic32mx/8.3.1/../../../../pic32mx/lib/fpu64\libc.a(buf.o)
 .xc_stack_usage.hdr
                0x0000000000000000        0xe c:/program files/microchip/xc32/v3.00/bin/bin/../../lib/gcc/pic32mx/8.3.1/../../../../pic32mx/lib/fpu64\libc.a(buf.o)
 .text          0x0000000000000000        0x0 c:/program files/microchip/xc32/v3.00/bin/bin/../../lib/gcc/pic32mx/8.3.1/../../../../pic32mx/lib/fpu64\libc.a(errno.o)
 .data          0x0000000000000000        0x0 c:/program files/microchip/xc32/v3.00/bin/bin/../../lib/gcc/pic32mx/8.3.1/../../../../pic32mx/lib/fpu64\libc.a(errno.o)
 .bss           0x0000000000000000        0x0 c:/program files/microchip/xc32/v3.00/bin/bin/../../lib/gcc/pic32mx/8.3.1/../../../../pic32mx/lib/fpu64\libc.a(errno.o)
 .reginfo       0x0000000000000000       0x18 c:/program files/microchip/xc32/v3.00/bin/bin/../../lib/gcc/pic32mx/8.3.1/../../../../pic32mx/lib/fpu64\libc.a(errno.o)
 .MIPS.abiflags
                0x0000000000000000       0x18 c:/program files/microchip/xc32/v3.00/bin/bin/../../lib/gcc/pic32mx/8.3.1/../../../../pic32mx/lib/fpu64\libc.a(errno.o)
 .xc_stack_usage.hdr
                0x0000000000000000        0xe c:/program files/microchip/xc32/v3.00/bin/bin/../../lib/gcc/pic32mx/8.3.1/../../../../pic32mx/lib/fpu64\libc.a(errno.o)
 .text          0x0000000000000000        0x0 c:/program files/microchip/xc32/v3.00/bin/bin/../../lib/gcc/pic32mx/8.3.1/../../../../pic32mx/lib/fpu64\libc.a(doprnt_cdnopsuxX.eo)
 .data          0x0000000000000000        0x0 c:/program files/microchip/xc32/v3.00/bin/bin/../../lib/gcc/pic32mx/8.3.1/../../../../pic32mx/lib/fpu64\libc.a(doprnt_cdnopsuxX.eo)
 .bss           0x0000000000000000        0x0 c:/program files/microchip/xc32/v3.00/bin/bin/../../lib/gcc/pic32mx/8.3.1/../../../../pic32mx/lib/fpu64\libc.a(doprnt_cdnopsuxX.eo)
 .reginfo       0x0000000000000000       0x18 c:/program files/microchip/xc32/v3.00/bin/bin/../../lib/gcc/pic32mx/8.3.1/../../../../pic32mx/lib/fpu64\libc.a(doprnt_cdnopsuxX.eo)
 .MIPS.abiflags
                0x0000000000000000       0x18 c:/program files/microchip/xc32/v3.00/bin/bin/../../lib/gcc/pic32mx/8.3.1/../../../../pic32mx/lib/fpu64\libc.a(doprnt_cdnopsuxX.eo)
 .xc_stack_usage
                0x0000000000000000       0x21 c:/program files/microchip/xc32/v3.00/bin/bin/../../lib/gcc/pic32mx/8.3.1/../../../../pic32mx/lib/fpu64\libc.a(doprnt_cdnopsuxX.eo)
 .xc_stack_usage.hdr
                0x0000000000000000        0xe c:/program files/microchip/xc32/v3.00/bin/bin/../../lib/gcc/pic32mx/8.3.1/../../../../pic32mx/lib/fpu64\libc.a(doprnt_cdnopsuxX.eo)
 .text          0x0000000000000000        0x0 c:/program files/microchip/xc32/v3.00/bin/bin/../../lib/gcc/pic32mx/8.3.1/../../../../pic32mx/lib/fpu64\libc.a(_fputc_simple.o)
 .data          0x0000000000000000        0x0 c:/program files/microchip/xc32/v3.00/bin/bin/../../lib/gcc/pic32mx/8.3.1/../../../../pic32mx/lib/fpu64\libc.a(_fputc_simple.o)
 .bss           0x0000000000000000        0x0 c:/program files/microchip/xc32/v3.00/bin/bin/../../lib/gcc/pic32mx/8.3.1/../../../../pic32mx/lib/fpu64\libc.a(_fputc_simple.o)
 .reginfo       0x0000000000000000       0x18 c:/program files/microchip/xc32/v3.00/bin/bin/../../lib/gcc/pic32mx/8.3.1/../../../../pic32mx/lib/fpu64\libc.a(_fputc_simple.o)
 .MIPS.abiflags
                0x0000000000000000       0x18 c:/program files/microchip/xc32/v3.00/bin/bin/../../lib/gcc/pic32mx/8.3.1/../../../../pic32mx/lib/fpu64\libc.a(_fputc_simple.o)
 .xc_stack_usage
                0x0000000000000000       0x13 c:/program files/microchip/xc32/v3.00/bin/bin/../../lib/gcc/pic32mx/8.3.1/../../../../pic32mx/lib/fpu64\libc.a(_fputc_simple.o)
 .xc_stack_usage.hdr
                0x0000000000000000        0xe c:/program files/microchip/xc32/v3.00/bin/bin/../../lib/gcc/pic32mx/8.3.1/../../../../pic32mx/lib/fpu64\libc.a(_fputc_simple.o)
 .text          0x0000000000000000        0x0 c:/program files/microchip/xc32/v3.00/bin/bin/../../lib/gcc/pic32mx/8.3.1/../../../../pic32mx/lib/fpu64\libc.a(ctype.o)
 .data          0x0000000000000000        0x0 c:/program files/microchip/xc32/v3.00/bin/bin/../../lib/gcc/pic32mx/8.3.1/../../../../pic32mx/lib/fpu64\libc.a(ctype.o)
 .bss           0x0000000000000000        0x0 c:/program files/microchip/xc32/v3.00/bin/bin/../../lib/gcc/pic32mx/8.3.1/../../../../pic32mx/lib/fpu64\libc.a(ctype.o)
 .reginfo       0x0000000000000000       0x18 c:/program files/microchip/xc32/v3.00/bin/bin/../../lib/gcc/pic32mx/8.3.1/../../../../pic32mx/lib/fpu64\libc.a(ctype.o)
 .MIPS.abiflags
                0x0000000000000000       0x18 c:/program files/microchip/xc32/v3.00/bin/bin/../../lib/gcc/pic32mx/8.3.1/../../../../pic32mx/lib/fpu64\libc.a(ctype.o)
 .xc_stack_usage.hdr
                0x0000000000000000        0xe c:/program files/microchip/xc32/v3.00/bin/bin/../../lib/gcc/pic32mx/8.3.1/../../../../pic32mx/lib/fpu64\libc.a(ctype.o)
 .text          0x0000000000000000        0x0 c:/program files/microchip/xc32/v3.00/bin/bin/../../lib/gcc/pic32mx/8.3.1/../../../../pic32mx/lib/fpu64\libc.a(_flsbuf_simple.o)
 .data          0x0000000000000000        0x0 c:/program files/microchip/xc32/v3.00/bin/bin/../../lib/gcc/pic32mx/8.3.1/../../../../pic32mx/lib/fpu64\libc.a(_flsbuf_simple.o)
 .bss           0x0000000000000000        0x0 c:/program files/microchip/xc32/v3.00/bin/bin/../../lib/gcc/pic32mx/8.3.1/../../../../pic32mx/lib/fpu64\libc.a(_flsbuf_simple.o)
 .reginfo       0x0000000000000000       0x18 c:/program files/microchip/xc32/v3.00/bin/bin/../../lib/gcc/pic32mx/8.3.1/../../../../pic32mx/lib/fpu64\libc.a(_flsbuf_simple.o)
 .MIPS.abiflags
                0x0000000000000000       0x18 c:/program files/microchip/xc32/v3.00/bin/bin/../../lib/gcc/pic32mx/8.3.1/../../../../pic32mx/lib/fpu64\libc.a(_flsbuf_simple.o)
 .xc_stack_usage
                0x0000000000000000       0x15 c:/program files/microchip/xc32/v3.00/bin/bin/../../lib/gcc/pic32mx/8.3.1/../../../../pic32mx/lib/fpu64\libc.a(_flsbuf_simple.o)
 .xc_stack_usage.hdr
                0x0000000000000000        0xe c:/program files/microchip/xc32/v3.00/bin/bin/../../lib/gcc/pic32mx/8.3.1/../../../../pic32mx/lib/fpu64\libc.a(_flsbuf_simple.o)
 .data          0x0000000000000000        0x0 c:/program files/microchip/xc32/v3.00/bin/bin/../../lib/gcc/pic32mx/8.3.1/fpu64\libgcc.a(_lshrdi3.o)
 .bss           0x0000000000000000        0x0 c:/program files/microchip/xc32/v3.00/bin/bin/../../lib/gcc/pic32mx/8.3.1/fpu64\libgcc.a(_lshrdi3.o)
 .reginfo       0x0000000000000000       0x18 c:/program files/microchip/xc32/v3.00/bin/bin/../../lib/gcc/pic32mx/8.3.1/fpu64\libgcc.a(_lshrdi3.o)
 .MIPS.abiflags
                0x0000000000000000       0x18 c:/program files/microchip/xc32/v3.00/bin/bin/../../lib/gcc/pic32mx/8.3.1/fpu64\libgcc.a(_lshrdi3.o)
 .xc_stack_usage
                0x0000000000000000       0x17 c:/program files/microchip/xc32/v3.00/bin/bin/../../lib/gcc/pic32mx/8.3.1/fpu64\libgcc.a(_lshrdi3.o)
 .xc_stack_usage.hdr
                0x0000000000000000        0xe c:/program files/microchip/xc32/v3.00/bin/bin/../../lib/gcc/pic32mx/8.3.1/fpu64\libgcc.a(_lshrdi3.o)
 .data          0x0000000000000000        0x0 c:/program files/microchip/xc32/v3.00/bin/bin/../../lib/gcc/pic32mx/8.3.1/fpu64\libgcc.a(_umoddi3.o)
 .bss           0x0000000000000000        0x0 c:/program files/microchip/xc32/v3.00/bin/bin/../../lib/gcc/pic32mx/8.3.1/fpu64\libgcc.a(_umoddi3.o)
 .reginfo       0x0000000000000000       0x18 c:/program files/microchip/xc32/v3.00/bin/bin/../../lib/gcc/pic32mx/8.3.1/fpu64\libgcc.a(_umoddi3.o)
 .MIPS.abiflags
                0x0000000000000000       0x18 c:/program files/microchip/xc32/v3.00/bin/bin/../../lib/gcc/pic32mx/8.3.1/fpu64\libgcc.a(_umoddi3.o)
 .xc_stack_usage
                0x0000000000000000       0x17 c:/program files/microchip/xc32/v3.00/bin/bin/../../lib/gcc/pic32mx/8.3.1/fpu64\libgcc.a(_umoddi3.o)
 .xc_stack_usage.hdr
                0x0000000000000000        0xe c:/program files/microchip/xc32/v3.00/bin/bin/../../lib/gcc/pic32mx/8.3.1/fpu64\libgcc.a(_umoddi3.o)
 .text          0x0000000000000000        0x0 c:/program files/microchip/xc32/v3.00/bin/bin/../../lib/gcc/pic32mx/8.3.1/../../../../pic32mx/lib/fpu64\libpic32.a(sbrk.o)
 .data          0x0000000000000000        0x0 c:/program files/microchip/xc32/v3.00/bin/bin/../../lib/gcc/pic32mx/8.3.1/../../../../pic32mx/lib/fpu64\libpic32.a(sbrk.o)
 .reginfo       0x0000000000000000       0x18 c:/program files/microchip/xc32/v3.00/bin/bin/../../lib/gcc/pic32mx/8.3.1/../../../../pic32mx/lib/fpu64\libpic32.a(sbrk.o)
 .MIPS.abiflags
                0x0000000000000000       0x18 c:/program files/microchip/xc32/v3.00/bin/bin/../../lib/gcc/pic32mx/8.3.1/../../../../pic32mx/lib/fpu64\libpic32.a(sbrk.o)
 .xc_stack_usage
                0x0000000000000000       0x77 c:/program files/microchip/xc32/v3.00/bin/bin/../../lib/gcc/pic32mx/8.3.1/../../../../pic32mx/lib/fpu64\libpic32.a(sbrk.o)
 .text.getpagesize
                0x0000000000000000        0x8 c:/program files/microchip/xc32/v3.00/bin/bin/../../lib/gcc/pic32mx/8.3.1/../../../../pic32mx/lib/fpu64\libpic32.a(sbrk.o)
 .xc_stack_usage.hdr
                0x0000000000000000        0xe c:/program files/microchip/xc32/v3.00/bin/bin/../../lib/gcc/pic32mx/8.3.1/../../../../pic32mx/lib/fpu64\libpic32.a(sbrk.o)
 .text          0x0000000000000000        0x0 c:/program files/microchip/xc32/v3.00/bin/bin/../../lib/gcc/pic32mx/8.3.1/../../../../pic32mx/lib/fpu64\libpic32.a(write.o)
 .data          0x0000000000000000        0x0 c:/program files/microchip/xc32/v3.00/bin/bin/../../lib/gcc/pic32mx/8.3.1/../../../../pic32mx/lib/fpu64\libpic32.a(write.o)
 .bss           0x0000000000000000        0x0 c:/program files/microchip/xc32/v3.00/bin/bin/../../lib/gcc/pic32mx/8.3.1/../../../../pic32mx/lib/fpu64\libpic32.a(write.o)
 .reginfo       0x0000000000000000       0x18 c:/program files/microchip/xc32/v3.00/bin/bin/../../lib/gcc/pic32mx/8.3.1/../../../../pic32mx/lib/fpu64\libpic32.a(write.o)
 .MIPS.abiflags
                0x0000000000000000       0x18 c:/program files/microchip/xc32/v3.00/bin/bin/../../lib/gcc/pic32mx/8.3.1/../../../../pic32mx/lib/fpu64\libpic32.a(write.o)
 .xc_stack_usage
                0x0000000000000000       0x13 c:/program files/microchip/xc32/v3.00/bin/bin/../../lib/gcc/pic32mx/8.3.1/../../../../pic32mx/lib/fpu64\libpic32.a(write.o)
 .xc_stack_usage.hdr
                0x0000000000000000        0xe c:/program files/microchip/xc32/v3.00/bin/bin/../../lib/gcc/pic32mx/8.3.1/../../../../pic32mx/lib/fpu64\libpic32.a(write.o)

Memory Configuration

Name             Origin             Length             Attributes
kseg0_program_mem 0x000000009d000000 0x0000000000200000 xr
kseg0_boot_mem   0x000000009fc004b0 0x0000000000000000
kseg1_boot_mem   0x00000000bfc00000 0x0000000000000480
kseg1_boot_mem_4B0 0x00000000bfc004b0 0x000000000000fa50
config_BFC0FF40  0x00000000bfc0ff40 0x0000000000000004
config_BFC0FF44  0x00000000bfc0ff44 0x0000000000000004
config_BFC0FF48  0x00000000bfc0ff48 0x0000000000000004
config_BFC0FF4C  0x00000000bfc0ff4c 0x0000000000000004
config_BFC0FF50  0x00000000bfc0ff50 0x0000000000000004
config_BFC0FF54  0x00000000bfc0ff54 0x0000000000000004
config_BFC0FF58  0x00000000bfc0ff58 0x0000000000000004
config_BFC0FF5C  0x00000000bfc0ff5c 0x0000000000000004
config_BFC0FF60  0x00000000bfc0ff60 0x0000000000000004
config_BFC0FF64  0x00000000bfc0ff64 0x0000000000000004
config_BFC0FF68  0x00000000bfc0ff68 0x0000000000000004
config_BFC0FF6C  0x00000000bfc0ff6c 0x0000000000000004
config_BFC0FF70  0x00000000bfc0ff70 0x0000000000000004
config_BFC0FF74  0x00000000bfc0ff74 0x0000000000000004
config_BFC0FF78  0x00000000bfc0ff78 0x0000000000000004
config_BFC0FF7C  0x00000000bfc0ff7c 0x0000000000000004
config_BFC0FFC0  0x00000000bfc0ffc0 0x0000000000000004
config_BFC0FFC4  0x00000000bfc0ffc4 0x0000000000000004
config_BFC0FFC8  0x00000000bfc0ffc8 0x0000000000000004
config_BFC0FFCC  0x00000000bfc0ffcc 0x0000000000000004
config_BFC0FFD0  0x00000000bfc0ffd0 0x0000000000000004
config_BFC0FFD4  0x00000000bfc0ffd4 0x0000000000000004
config_BFC0FFD8  0x00000000bfc0ffd8 0x0000000000000004
config_BFC0FFDC  0x00000000bfc0ffdc 0x0000000000000004
config_BFC0FFE0  0x00000000bfc0ffe0 0x0000000000000004
config_BFC0FFE4  0x00000000bfc0ffe4 0x0000000000000004
config_BFC0FFE8  0x00000000bfc0ffe8 0x0000000000000004
config_BFC0FFEC  0x00000000bfc0ffec 0x0000000000000004
config_BFC0FFF0  0x00000000bfc0fff0 0x0000000000000004
config_BFC0FFF4  0x00000000bfc0fff4 0x0000000000000004
config_BFC0FFF8  0x00000000bfc0fff8 0x0000000000000004
config_BFC0FFFC  0x00000000bfc0fffc 0x0000000000000004
lowerbootaliaslastpage 0x00000000bfc10000 0x0000000000004000
upperbootalias   0x00000000bfc20000 0x000000000000ff00
config_BFC2FF40  0x00000000bfc2ff40 0x0000000000000004
config_BFC2FF44  0x00000000bfc2ff44 0x0000000000000004
config_BFC2FF48  0x00000000bfc2ff48 0x0000000000000004
config_BFC2FF4C  0x00000000bfc2ff4c 0x0000000000000004
config_BFC2FF50  0x00000000bfc2ff50 0x0000000000000004
config_BFC2FF54  0x00000000bfc2ff54 0x0000000000000004
config_BFC2FF58  0x00000000bfc2ff58 0x0000000000000004
config_BFC2FF5C  0x00000000bfc2ff5c 0x0000000000000004
config_BFC2FF60  0x00000000bfc2ff60 0x0000000000000004
config_BFC2FF64  0x00000000bfc2ff64 0x0000000000000004
config_BFC2FF68  0x00000000bfc2ff68 0x0000000000000004
config_BFC2FF6C  0x00000000bfc2ff6c 0x0000000000000004
config_BFC2FF70  0x00000000bfc2ff70 0x0000000000000004
config_BFC2FF74  0x00000000bfc2ff74 0x0000000000000004
config_BFC2FF78  0x00000000bfc2ff78 0x0000000000000004
config_BFC2FF7C  0x00000000bfc2ff7c 0x0000000000000004
config_BFC2FFC0  0x00000000bfc2ffc0 0x0000000000000004
config_BFC2FFC4  0x00000000bfc2ffc4 0x0000000000000004
config_BFC2FFC8  0x00000000bfc2ffc8 0x0000000000000004
config_BFC2FFCC  0x00000000bfc2ffcc 0x0000000000000004
config_BFC2FFD0  0x00000000bfc2ffd0 0x0000000000000004
config_BFC2FFD4  0x00000000bfc2ffd4 0x0000000000000004
config_BFC2FFD8  0x00000000bfc2ffd8 0x0000000000000004
config_BFC2FFDC  0x00000000bfc2ffdc 0x0000000000000004
config_BFC2FFE0  0x00000000bfc2ffe0 0x0000000000000004
config_BFC2FFE4  0x00000000bfc2ffe4 0x0000000000000004
config_BFC2FFE8  0x00000000bfc2ffe8 0x0000000000000004
config_BFC2FFEC  0x00000000bfc2ffec 0x0000000000000004
config_BFC2FFF0  0x00000000bfc2fff0 0x0000000000000004
config_BFC2FFF4  0x00000000bfc2fff4 0x0000000000000004
config_BFC2FFF8  0x00000000bfc2fff8 0x0000000000000004
config_BFC2FFFC  0x00000000bfc2fffc 0x0000000000000004
upperbootaliaslastpage 0x00000000bfc30000 0x0000000000004000
boot1            0x00000000bfc40000 0x000000000000ff00
config_BFC4FF40  0x00000000bfc4ff40 0x0000000000000004
config_BFC4FF44  0x00000000bfc4ff44 0x0000000000000004
config_BFC4FF48  0x00000000bfc4ff48 0x0000000000000004
config_BFC4FF4C  0x00000000bfc4ff4c 0x0000000000000004
config_BFC4FF50  0x00000000bfc4ff50 0x0000000000000004
config_BFC4FF54  0x00000000bfc4ff54 0x0000000000000004
config_BFC4FF58  0x00000000bfc4ff58 0x0000000000000004
config_BFC4FF5C  0x00000000bfc4ff5c 0x0000000000000004
config_BFC4FF60  0x00000000bfc4ff60 0x0000000000000004
config_BFC4FF64  0x00000000bfc4ff64 0x0000000000000004
config_BFC4FF68  0x00000000bfc4ff68 0x0000000000000004
config_BFC4FF6C  0x00000000bfc4ff6c 0x0000000000000004
config_BFC4FF70  0x00000000bfc4ff70 0x0000000000000004
config_BFC4FF74  0x00000000bfc4ff74 0x0000000000000004
config_BFC4FF78  0x00000000bfc4ff78 0x0000000000000004
config_BFC4FF7C  0x00000000bfc4ff7c 0x0000000000000004
config_BFC4FFC0  0x00000000bfc4ffc0 0x0000000000000004
config_BFC4FFC4  0x00000000bfc4ffc4 0x0000000000000004
config_BFC4FFC8  0x00000000bfc4ffc8 0x0000000000000004
config_BFC4FFCC  0x00000000bfc4ffcc 0x0000000000000004
config_BFC4FFD0  0x00000000bfc4ffd0 0x0000000000000004
config_BFC4FFD4  0x00000000bfc4ffd4 0x0000000000000004
config_BFC4FFD8  0x00000000bfc4ffd8 0x0000000000000004
config_BFC4FFDC  0x00000000bfc4ffdc 0x0000000000000004
config_BFC4FFE0  0x00000000bfc4ffe0 0x0000000000000004
config_BFC4FFE4  0x00000000bfc4ffe4 0x0000000000000004
config_BFC4FFE8  0x00000000bfc4ffe8 0x0000000000000004
config_BFC4FFEC  0x00000000bfc4ffec 0x0000000000000004
config_BFC4FFF0  0x00000000bfc4fff0 0x0000000000000004
config_BFC4FFF4  0x00000000bfc4fff4 0x0000000000000004
config_BFC4FFF8  0x00000000bfc4fff8 0x0000000000000004
config_BFC4FFFC  0x00000000bfc4fffc 0x0000000000000004
boot1lastpage    0x00000000bfc50000 0x0000000000004000
config_BFC54000  0x00000000bfc54000 0x0000000000000004
config_BFC54004  0x00000000bfc54004 0x0000000000000004
config_BFC54008  0x00000000bfc54008 0x0000000000000004
config_BFC5400C  0x00000000bfc5400c 0x0000000000000004
config_BFC54010  0x00000000bfc54010 0x0000000000000004
config_BFC5401C  0x00000000bfc5401c 0x0000000000000004
config_BFC54020  0x00000000bfc54020 0x0000000000000004
config_BFC54024  0x00000000bfc54024 0x0000000000000004
boot2            0x00000000bfc60000 0x000000000000ff00
config_BFC6FF40  0x00000000bfc6ff40 0x0000000000000004
config_BFC6FF44  0x00000000bfc6ff44 0x0000000000000004
config_BFC6FF48  0x00000000bfc6ff48 0x0000000000000004
config_BFC6FF4C  0x00000000bfc6ff4c 0x0000000000000004
config_BFC6FF50  0x00000000bfc6ff50 0x0000000000000004
config_BFC6FF54  0x00000000bfc6ff54 0x0000000000000004
config_BFC6FF58  0x00000000bfc6ff58 0x0000000000000004
config_BFC6FF5C  0x00000000bfc6ff5c 0x0000000000000004
config_BFC6FF60  0x00000000bfc6ff60 0x0000000000000004
config_BFC6FF64  0x00000000bfc6ff64 0x0000000000000004
config_BFC6FF68  0x00000000bfc6ff68 0x0000000000000004
config_BFC6FF6C  0x00000000bfc6ff6c 0x0000000000000004
config_BFC6FF70  0x00000000bfc6ff70 0x0000000000000004
config_BFC6FF74  0x00000000bfc6ff74 0x0000000000000004
config_BFC6FF78  0x00000000bfc6ff78 0x0000000000000004
config_BFC6FF7C  0x00000000bfc6ff7c 0x0000000000000004
config_BFC6FFC0  0x00000000bfc6ffc0 0x0000000000000004
config_BFC6FFC4  0x00000000bfc6ffc4 0x0000000000000004
config_BFC6FFC8  0x00000000bfc6ffc8 0x0000000000000004
config_BFC6FFCC  0x00000000bfc6ffcc 0x0000000000000004
config_BFC6FFD0  0x00000000bfc6ffd0 0x0000000000000004
config_BFC6FFD4  0x00000000bfc6ffd4 0x0000000000000004
config_BFC6FFD8  0x00000000bfc6ffd8 0x0000000000000004
config_BFC6FFDC  0x00000000bfc6ffdc 0x0000000000000004
config_BFC6FFE0  0x00000000bfc6ffe0 0x0000000000000004
config_BFC6FFE4  0x00000000bfc6ffe4 0x0000000000000004
config_BFC6FFE8  0x00000000bfc6ffe8 0x0000000000000004
config_BFC6FFEC  0x00000000bfc6ffec 0x0000000000000004
config_BFC6FFF0  0x00000000bfc6fff0 0x0000000000000004
config_BFC6FFF4  0x00000000bfc6fff4 0x0000000000000004
config_BFC6FFF8  0x00000000bfc6fff8 0x0000000000000004
config_BFC6FFFC  0x00000000bfc6fffc 0x0000000000000004
boot2lastpage    0x00000000bfc70000 0x0000000000004000
kseg0_data_mem   0x0000000080000000 0x0000000000080000 w !x
sfrs             0x00000000bf800000 0x0000000000100000
configsfrs_BFC0FF40 0x00000000bfc0ff40 0x0000000000000040
configsfrs_BFC0FFC0 0x00000000bfc0ffc0 0x0000000000000040
configsfrs_BFC2FF40 0x00000000bfc2ff40 0x0000000000000040
configsfrs_BFC2FFC0 0x00000000bfc2ffc0 0x0000000000000040
configsfrs_BFC4FF40 0x00000000bfc4ff40 0x0000000000000040
configsfrs_BFC4FFC0 0x00000000bfc4ffc0 0x0000000000000040
configsfrs_BFC54000 0x00000000bfc54000 0x0000000000000020
configsfrs_BFC6FF40 0x00000000bfc6ff40 0x0000000000000040
configsfrs_BFC6FFC0 0x00000000bfc6ffc0 0x0000000000000040
kseg2_ebi_data_mem 0x00000000c0000000 0x0000000004000000
kseg2_sqi_data_mem 0x00000000d0000000 0x0000000004000000
kseg3_ebi_data_mem 0x00000000e0000000 0x0000000004000000
kseg3_sqi_data_mem 0x00000000f0000000 0x0000000004000000
*default*        0x0000000000000000 0xffffffffffffffff

Linker script and memory map

LOAD c:/program files/microchip/xc32/v3.00/bin/bin/../../lib/gcc/pic32mx/8.3.1/../../../../pic32mx/lib/fpu64\debug-exception-return.o
LOAD build/pic32mz/production/_ext/757013429/drv_sdspi.o
LOAD build/pic32mz/production/_ext/757013429/drv_sdspi_driver_interface.o
LOAD build/pic32mz/production/_ext/757013429/drv_sdspi_file_system.o
LOAD build/pic32mz/production/_ext/2120450970/drv_spi.o
LOAD build/pic32mz/production/_ext/1783409726/drv_usbhs.o
LOAD build/pic32mz/production/_ext/1783409726/drv_usbhs_device.o
LOAD build/pic32mz/production/_ext/1640642171/plib_cache.o
LOAD build/pic32mz/production/_ext/1640642171/plib_cache_pic32mz.o
LOAD build/pic32mz/production/_ext/10646107/plib_clk.o
LOAD build/pic32mz/production/_ext/809018751/plib_coretimer.o
LOAD build/pic32mz/production/_ext/330098546/plib_evic.o
LOAD build/pic32mz/production/_ext/330152374/plib_gpio.o
LOAD build/pic32mz/production/_ext/249272802/plib_i2c2_master.o
LOAD build/pic32mz/production/_ext/249272802/plib_i2c4_master.o
LOAD build/pic32mz/production/_ext/867254719/plib_spi4_master.o
LOAD build/pic32mz/production/_ext/867254719/plib_spi2_master.o
LOAD build/pic32mz/production/_ext/867254719/plib_spi1_master.o
LOAD build/pic32mz/production/_ext/10662482/plib_tmr2.o
LOAD build/pic32mz/production/_ext/330555317/plib_uart5.o
LOAD build/pic32mz/production/_ext/330555317/plib_uart6.o
LOAD build/pic32mz/production/_ext/330555317/plib_uart3.o
LOAD build/pic32mz/production/_ext/330555317/plib_uart4.o
LOAD build/pic32mz/production/_ext/330555317/plib_uart1.o
LOAD build/pic32mz/production/_ext/330555317/plib_uart2.o
LOAD build/pic32mz/production/_ext/1991269565/xc32_monitor.o
LOAD build/pic32mz/production/_ext/1519118610/sys_cache.o
LOAD build/pic32mz/production/_ext/1373644956/sys_dma.o
LOAD build/pic32mz/production/_ext/1192657380/ff.o
LOAD build/pic32mz/production/_ext/1192657380/ffunicode.o
LOAD build/pic32mz/production/_ext/727274963/diskio.o
LOAD build/pic32mz/production/_ext/252936118/sys_fs.o
LOAD build/pic32mz/production/_ext/252936118/sys_fs_media_manager.o
LOAD build/pic32mz/production/_ext/252936118/sys_fs_fat_interface.o
LOAD build/pic32mz/production/_ext/1832149040/sys_int.o
LOAD build/pic32mz/production/_ext/1636986698/sys_time.o
LOAD build/pic32mz/production/_ext/202551283/usb_device.o
LOAD build/pic32mz/production/_ext/202551283/usb_device_cdc.o
LOAD build/pic32mz/production/_ext/202551283/usb_device_cdc_acm.o
LOAD build/pic32mz/production/_ext/953055421/usb_device_init_data.o
LOAD build/pic32mz/production/_ext/953055421/tasks.o
LOAD build/pic32mz/production/_ext/953055421/initialization.o
LOAD build/pic32mz/production/_ext/953055421/interrupts.o
LOAD build/pic32mz/production/_ext/953055421/exceptions.o
LOAD build/pic32mz/production/_ext/1360937237/app.o
LOAD build/pic32mz/production/_ext/1360937237/main.o
LOAD build/pic32mz/production/_ext/1360937237/communication.o
LOAD build/pic32mz/production/_ext/1360937237/mdot.o
LOAD build/pic32mz/production/_ext/1360937237/stringbuffer.o
                0x0000000000000001                __MPLAB_BUILD = 0x1
                0x0000000000000400                PROVIDE (_min_stack_size = 0x400)
START GROUP
LOAD vector_offset_init.o
END GROUP
                0x0000000000000001                PROVIDE (_vector_spacing = 0x1)
                0x000000009d000000                PROVIDE (_ebase_address = 0x9d000000)
                0x00000000bfc00000                _RESET_ADDR = 0xbfc00000
                0x00000000bfc00380                _BEV_EXCPT_ADDR = 0xbfc00380
                0x00000000bfc00480                _DBG_EXCPT_ADDR = 0xbfc00480
                0x000000009d000000                _SIMPLE_TLB_REFILL_EXCPT_ADDR = (_ebase_address + 0x0)
                0x000000009d000100                _CACHE_ERR_EXCPT_ADDR = (_ebase_address + 0x100)
                0x000000009d000180                _GEN_EXCPT_ADDR = (_ebase_address + 0x180)

.config_BFC0FF40
 *(.config_BFC0FF40)

.config_BFC0FF44
 *(.config_BFC0FF44)

.config_BFC0FF48
 *(.config_BFC0FF48)

.config_BFC0FF4C
 *(.config_BFC0FF4C)

.config_BFC0FF50
 *(.config_BFC0FF50)

.config_BFC0FF54
 *(.config_BFC0FF54)

.config_BFC0FF58
 *(.config_BFC0FF58)

.config_BFC0FF5C
 *(.config_BFC0FF5C)

.config_BFC0FF60
 *(.config_BFC0FF60)

.config_BFC0FF64
 *(.config_BFC0FF64)

.config_BFC0FF68
 *(.config_BFC0FF68)

.config_BFC0FF6C
 *(.config_BFC0FF6C)

.config_BFC0FF70
 *(.config_BFC0FF70)

.config_BFC0FF74
 *(.config_BFC0FF74)

.config_BFC0FF78
 *(.config_BFC0FF78)

.config_BFC0FF7C
 *(.config_BFC0FF7C)

.config_BFC0FFC0
                0x00000000bfc0ffc0        0x4
 *(.config_BFC0FFC0)
 .config_BFC0FFC0
                0x00000000bfc0ffc0        0x4 build/pic32mz/production/_ext/953055421/initialization.o
                0x00000000bfc0ffc0                __config_BFC0FFC0

.config_BFC0FFC4
                0x00000000bfc0ffc4        0x4
 *(.config_BFC0FFC4)
 .config_BFC0FFC4
                0x00000000bfc0ffc4        0x4 build/pic32mz/production/_ext/953055421/initialization.o
                0x00000000bfc0ffc4                __config_BFC0FFC4

.config_BFC0FFC8
                0x00000000bfc0ffc8        0x4
 *(.config_BFC0FFC8)
 .config_BFC0FFC8
                0x00000000bfc0ffc8        0x4 build/pic32mz/production/_ext/953055421/initialization.o
                0x00000000bfc0ffc8                __config_BFC0FFC8

.config_BFC0FFCC
                0x00000000bfc0ffcc        0x4
 *(.config_BFC0FFCC)
 .config_BFC0FFCC
                0x00000000bfc0ffcc        0x4 build/pic32mz/production/_ext/953055421/initialization.o
                0x00000000bfc0ffcc                __config_BFC0FFCC

.config_BFC0FFD0
 *(.config_BFC0FFD0)

.config_BFC0FFD4
 *(.config_BFC0FFD4)

.config_BFC0FFD8
 *(.config_BFC0FFD8)

.config_BFC0FFDC
                0x00000000bfc0ffdc        0x4
 *(.config_BFC0FFDC)
 .config_BFC0FFDC
                0x00000000bfc0ffdc        0x4 build/pic32mz/production/_ext/953055421/initialization.o
                0x00000000bfc0ffdc                __config_BFC0FFDC

.config_BFC0FFE0
 *(.config_BFC0FFE0)

.config_BFC0FFE4
 *(.config_BFC0FFE4)

.config_BFC0FFE8
 *(.config_BFC0FFE8)

.config_BFC0FFEC
 *(.config_BFC0FFEC)

.config_BFC0FFF0
                0x00000000bfc0fff0        0x4
 *(.config_BFC0FFF0)
 .config_BFC0FFF0
                0x00000000bfc0fff0        0x4 build/pic32mz/production/_ext/953055421/initialization.o
                0x00000000bfc0fff0                __config_BFC0FFF0

.config_BFC0FFF4
 *(.config_BFC0FFF4)

.config_BFC0FFF8
 *(.config_BFC0FFF8)

.config_BFC0FFFC
 *(.config_BFC0FFFC)

.config_BFC2FF40
 *(.config_BFC2FF40)

.config_BFC2FF44
 *(.config_BFC2FF44)

.config_BFC2FF48
 *(.config_BFC2FF48)

.config_BFC2FF4C
 *(.config_BFC2FF4C)

.config_BFC2FF50
 *(.config_BFC2FF50)

.config_BFC2FF54
 *(.config_BFC2FF54)

.config_BFC2FF58
 *(.config_BFC2FF58)

.config_BFC2FF5C
 *(.config_BFC2FF5C)

.config_BFC2FF60
 *(.config_BFC2FF60)

.config_BFC2FF64
 *(.config_BFC2FF64)

.config_BFC2FF68
 *(.config_BFC2FF68)

.config_BFC2FF6C
 *(.config_BFC2FF6C)

.config_BFC2FF70
 *(.config_BFC2FF70)

.config_BFC2FF74
 *(.config_BFC2FF74)

.config_BFC2FF78
 *(.config_BFC2FF78)

.config_BFC2FF7C
 *(.config_BFC2FF7C)

.config_BFC2FFC0
 *(.config_BFC2FFC0)

.config_BFC2FFC4
 *(.config_BFC2FFC4)

.config_BFC2FFC8
 *(.config_BFC2FFC8)

.config_BFC2FFCC
 *(.config_BFC2FFCC)

.config_BFC2FFD0
 *(.config_BFC2FFD0)

.config_BFC2FFD4
 *(.config_BFC2FFD4)

.config_BFC2FFD8
 *(.config_BFC2FFD8)

.config_BFC2FFDC
 *(.config_BFC2FFDC)

.config_BFC2FFE0
 *(.config_BFC2FFE0)

.config_BFC2FFE4
 *(.config_BFC2FFE4)

.config_BFC2FFE8
 *(.config_BFC2FFE8)

.config_BFC2FFEC
 *(.config_BFC2FFEC)

.config_BFC2FFF0
 *(.config_BFC2FFF0)

.config_BFC2FFF4
 *(.config_BFC2FFF4)

.config_BFC2FFF8
 *(.config_BFC2FFF8)

.config_BFC2FFFC
 *(.config_BFC2FFFC)

.config_BFC4FF40
 *(.config_BFC4FF40)

.config_BFC4FF44
 *(.config_BFC4FF44)

.config_BFC4FF48
 *(.config_BFC4FF48)

.config_BFC4FF4C
 *(.config_BFC4FF4C)

.config_BFC4FF50
 *(.config_BFC4FF50)

.config_BFC4FF54
 *(.config_BFC4FF54)

.config_BFC4FF58
 *(.config_BFC4FF58)

.config_BFC4FF5C
 *(.config_BFC4FF5C)

.config_BFC4FF60
 *(.config_BFC4FF60)

.config_BFC4FF64
 *(.config_BFC4FF64)

.config_BFC4FF68
 *(.config_BFC4FF68)

.config_BFC4FF6C
 *(.config_BFC4FF6C)

.config_BFC4FF70
 *(.config_BFC4FF70)

.config_BFC4FF74
 *(.config_BFC4FF74)

.config_BFC4FF78
 *(.config_BFC4FF78)

.config_BFC4FF7C
 *(.config_BFC4FF7C)

.config_BFC4FFC0
 *(.config_BFC4FFC0)

.config_BFC4FFC4
 *(.config_BFC4FFC4)

.config_BFC4FFC8
 *(.config_BFC4FFC8)

.config_BFC4FFCC
 *(.config_BFC4FFCC)

.config_BFC4FFD0
 *(.config_BFC4FFD0)

.config_BFC4FFD4
 *(.config_BFC4FFD4)

.config_BFC4FFD8
 *(.config_BFC4FFD8)

.config_BFC4FFDC
 *(.config_BFC4FFDC)

.config_BFC4FFE0
 *(.config_BFC4FFE0)

.config_BFC4FFE4
 *(.config_BFC4FFE4)

.config_BFC4FFE8
 *(.config_BFC4FFE8)

.config_BFC4FFEC
 *(.config_BFC4FFEC)

.config_BFC4FFF0
 *(.config_BFC4FFF0)

.config_BFC4FFF4
 *(.config_BFC4FFF4)

.config_BFC4FFF8
 *(.config_BFC4FFF8)

.config_BFC4FFFC
 *(.config_BFC4FFFC)

.config_BFC54000
 *(.config_BFC54000)

.config_BFC54004
 *(.config_BFC54004)

.config_BFC54008
 *(.config_BFC54008)

.config_BFC5400C
 *(.config_BFC5400C)

.config_BFC54010
 *(.config_BFC54010)

.config_BFC5401C
 *(.config_BFC5401C)

.config_BFC54020
 *(.config_BFC54020)

.config_BFC54024
 *(.config_BFC54024)

.config_BFC6FF40
 *(.config_BFC6FF40)

.config_BFC6FF44
 *(.config_BFC6FF44)

.config_BFC6FF48
 *(.config_BFC6FF48)

.config_BFC6FF4C
 *(.config_BFC6FF4C)

.config_BFC6FF50
 *(.config_BFC6FF50)

.config_BFC6FF54
 *(.config_BFC6FF54)

.config_BFC6FF58
 *(.config_BFC6FF58)

.config_BFC6FF5C
 *(.config_BFC6FF5C)

.config_BFC6FF60
 *(.config_BFC6FF60)

.config_BFC6FF64
 *(.config_BFC6FF64)

.config_BFC6FF68
 *(.config_BFC6FF68)

.config_BFC6FF6C
 *(.config_BFC6FF6C)

.config_BFC6FF70
 *(.config_BFC6FF70)

.config_BFC6FF74
 *(.config_BFC6FF74)

.config_BFC6FF78
 *(.config_BFC6FF78)

.config_BFC6FF7C
 *(.config_BFC6FF7C)

.config_BFC6FFC0
 *(.config_BFC6FFC0)

.config_BFC6FFC4
 *(.config_BFC6FFC4)

.config_BFC6FFC8
 *(.config_BFC6FFC8)

.config_BFC6FFCC
 *(.config_BFC6FFCC)

.config_BFC6FFD0
 *(.config_BFC6FFD0)

.config_BFC6FFD4
 *(.config_BFC6FFD4)

.config_BFC6FFD8
 *(.config_BFC6FFD8)

.config_BFC6FFDC
 *(.config_BFC6FFDC)

.config_BFC6FFE0
 *(.config_BFC6FFE0)

.config_BFC6FFE4
 *(.config_BFC6FFE4)

.config_BFC6FFE8
 *(.config_BFC6FFE8)

.config_BFC6FFEC
 *(.config_BFC6FFEC)

.config_BFC6FFF0
 *(.config_BFC6FFF0)

.config_BFC6FFF4
 *(.config_BFC6FFF4)

.config_BFC6FFF8
 *(.config_BFC6FFF8)

.config_BFC6FFFC
 *(.config_BFC6FFFC)

.reset          0x00000000bfc00000      0x1c4
 *(.reset)
 .reset         0x00000000bfc00000       0x18 C:\Users\VAMSIK~1.A\AppData\Local\Temp\cc9bld9L.o
                0x00000000bfc00000                _reset
 *(.reset.startup)
 .reset.startup
                0x00000000bfc00018      0x1ac C:\Users\VAMSIK~1.A\AppData\Local\Temp\cc9bld9L.o
                0x00000000bfc00018                _startup

.bev_excpt      0x00000000bfc00380       0x10
 *(.bev_handler)
 .bev_handler   0x00000000bfc00380       0x10 C:\Users\VAMSIK~1.A\AppData\Local\Temp\cc9bld9L.o

.cache_init     0x00000000bfc004b0      0x1c0
 *(.cache_init)
 *(.cache_init.*)
 .cache_init.cache
                0x00000000bfc004b0       0xc0 c:/program files/microchip/xc32/v3.00/bin/bin/../../lib/gcc/pic32mx/8.3.1/../../../../pic32mx/lib/fpu64\libpic32.a(pic32_init_cache.o)
 .cache_init.pic32_init_cache
                0x00000000bfc00570      0x100 c:/program files/microchip/xc32/v3.00/bin/bin/../../lib/gcc/pic32mx/8.3.1/../../../../pic32mx/lib/fpu64\libpic32.a(pic32_init_cache.o)
                0x00000000bfc00570                __pic32_init_cache

.simple_tlb_refill_excpt
                0x000000009d000000       0x10
 *(.simple_tlb_refill_vector)
 .simple_tlb_refill_vector
                0x000000009d000000       0x10 C:\Users\VAMSIK~1.A\AppData\Local\Temp\cc9bld9L.o

.cache_err_excpt
                0x000000009d000100       0x10
 *(.cache_err_vector)
 .cache_err_vector
                0x000000009d000100       0x10 C:\Users\VAMSIK~1.A\AppData\Local\Temp\cc9bld9L.o

.app_excpt      0x000000009d000180       0x10
 *(.gen_handler)
 .gen_handler   0x000000009d000180       0x10 C:\Users\VAMSIK~1.A\AppData\Local\Temp\cc9bld9L.o

.vectors        0x000000009d000200      0x138
                0x000000009d000200                . = ALIGN (0x4)
                0x0000000000000200                __vector_offset_0 = DEFINED (__vector_dispatch_0)?(. - _ebase_address):__vector_offset_default
 *(.vector_0)
 .vector_0      0x000000009d000200        0x8 build/pic32mz/production/_ext/953055421/interrupts.o
                0x000000009d000200                __vector_dispatch_0
                0x000000009d000208                . = ALIGN (0x4)
                0x00000000000002f0                __vector_offset_1 = DEFINED (__vector_dispatch_1)?(. - _ebase_address):__vector_offset_default
 *(.vector_1)
                0x000000009d000208                . = ALIGN (0x4)
                0x00000000000002f0                __vector_offset_2 = DEFINED (__vector_dispatch_2)?(. - _ebase_address):__vector_offset_default
 *(.vector_2)
                0x000000009d000208                . = ALIGN (0x4)
                0x00000000000002f0                __vector_offset_3 = DEFINED (__vector_dispatch_3)?(. - _ebase_address):__vector_offset_default
 *(.vector_3)
                0x000000009d000208                . = ALIGN (0x4)
                0x00000000000002f0                __vector_offset_4 = DEFINED (__vector_dispatch_4)?(. - _ebase_address):__vector_offset_default
 *(.vector_4)
                0x000000009d000208                . = ALIGN (0x4)
                0x00000000000002f0                __vector_offset_5 = DEFINED (__vector_dispatch_5)?(. - _ebase_address):__vector_offset_default
 *(.vector_5)
                0x000000009d000208                . = ALIGN (0x4)
                0x00000000000002f0                __vector_offset_6 = DEFINED (__vector_dispatch_6)?(. - _ebase_address):__vector_offset_default
 *(.vector_6)
                0x000000009d000208                . = ALIGN (0x4)
                0x00000000000002f0                __vector_offset_7 = DEFINED (__vector_dispatch_7)?(. - _ebase_address):__vector_offset_default
 *(.vector_7)
                0x000000009d000208                . = ALIGN (0x4)
                0x00000000000002f0                __vector_offset_8 = DEFINED (__vector_dispatch_8)?(. - _ebase_address):__vector_offset_default
 *(.vector_8)
                0x000000009d000208                . = ALIGN (0x4)
                0x0000000000000208                __vector_offset_9 = DEFINED (__vector_dispatch_9)?(. - _ebase_address):__vector_offset_default
 *(.vector_9)
 .vector_9      0x000000009d000208        0x8 build/pic32mz/production/_ext/953055421/interrupts.o
                0x000000009d000208                __vector_dispatch_9
                0x000000009d000210                . = ALIGN (0x4)
                0x00000000000002f0                __vector_offset_10 = DEFINED (__vector_dispatch_10)?(. - _ebase_address):__vector_offset_default
 *(.vector_10)
                0x000000009d000210                . = ALIGN (0x4)
                0x00000000000002f0                __vector_offset_11 = DEFINED (__vector_dispatch_11)?(. - _ebase_address):__vector_offset_default
 *(.vector_11)
                0x000000009d000210                . = ALIGN (0x4)
                0x00000000000002f0                __vector_offset_12 = DEFINED (__vector_dispatch_12)?(. - _ebase_address):__vector_offset_default
 *(.vector_12)
                0x000000009d000210                . = ALIGN (0x4)
                0x00000000000002f0                __vector_offset_13 = DEFINED (__vector_dispatch_13)?(. - _ebase_address):__vector_offset_default
 *(.vector_13)
                0x000000009d000210                . = ALIGN (0x4)
                0x00000000000002f0                __vector_offset_14 = DEFINED (__vector_dispatch_14)?(. - _ebase_address):__vector_offset_default
 *(.vector_14)
                0x000000009d000210                . = ALIGN (0x4)
                0x00000000000002f0                __vector_offset_15 = DEFINED (__vector_dispatch_15)?(. - _ebase_address):__vector_offset_default
 *(.vector_15)
                0x000000009d000210                . = ALIGN (0x4)
                0x00000000000002f0                __vector_offset_16 = DEFINED (__vector_dispatch_16)?(. - _ebase_address):__vector_offset_default
 *(.vector_16)
                0x000000009d000210                . = ALIGN (0x4)
                0x00000000000002f0                __vector_offset_17 = DEFINED (__vector_dispatch_17)?(. - _ebase_address):__vector_offset_default
 *(.vector_17)
                0x000000009d000210                . = ALIGN (0x4)
                0x00000000000002f0                __vector_offset_18 = DEFINED (__vector_dispatch_18)?(. - _ebase_address):__vector_offset_default
 *(.vector_18)
                0x000000009d000210                . = ALIGN (0x4)
                0x00000000000002f0                __vector_offset_19 = DEFINED (__vector_dispatch_19)?(. - _ebase_address):__vector_offset_default
 *(.vector_19)
                0x000000009d000210                . = ALIGN (0x4)
                0x00000000000002f0                __vector_offset_20 = DEFINED (__vector_dispatch_20)?(. - _ebase_address):__vector_offset_default
 *(.vector_20)
                0x000000009d000210                . = ALIGN (0x4)
                0x00000000000002f0                __vector_offset_21 = DEFINED (__vector_dispatch_21)?(. - _ebase_address):__vector_offset_default
 *(.vector_21)
                0x000000009d000210                . = ALIGN (0x4)
                0x00000000000002f0                __vector_offset_22 = DEFINED (__vector_dispatch_22)?(. - _ebase_address):__vector_offset_default
 *(.vector_22)
                0x000000009d000210                . = ALIGN (0x4)
                0x00000000000002f0                __vector_offset_23 = DEFINED (__vector_dispatch_23)?(. - _ebase_address):__vector_offset_default
 *(.vector_23)
                0x000000009d000210                . = ALIGN (0x4)
                0x00000000000002f0                __vector_offset_24 = DEFINED (__vector_dispatch_24)?(. - _ebase_address):__vector_offset_default
 *(.vector_24)
                0x000000009d000210                . = ALIGN (0x4)
                0x00000000000002f0                __vector_offset_25 = DEFINED (__vector_dispatch_25)?(. - _ebase_address):__vector_offset_default
 *(.vector_25)
                0x000000009d000210                . = ALIGN (0x4)
                0x00000000000002f0                __vector_offset_26 = DEFINED (__vector_dispatch_26)?(. - _ebase_address):__vector_offset_default
 *(.vector_26)
                0x000000009d000210                . = ALIGN (0x4)
                0x00000000000002f0                __vector_offset_27 = DEFINED (__vector_dispatch_27)?(. - _ebase_address):__vector_offset_default
 *(.vector_27)
                0x000000009d000210                . = ALIGN (0x4)
                0x00000000000002f0                __vector_offset_28 = DEFINED (__vector_dispatch_28)?(. - _ebase_address):__vector_offset_default
 *(.vector_28)
                0x000000009d000210                . = ALIGN (0x4)
                0x00000000000002f0                __vector_offset_29 = DEFINED (__vector_dispatch_29)?(. - _ebase_address):__vector_offset_default
 *(.vector_29)
                0x000000009d000210                . = ALIGN (0x4)
                0x00000000000002f0                __vector_offset_30 = DEFINED (__vector_dispatch_30)?(. - _ebase_address):__vector_offset_default
 *(.vector_30)
                0x000000009d000210                . = ALIGN (0x4)
                0x00000000000002f0                __vector_offset_31 = DEFINED (__vector_dispatch_31)?(. - _ebase_address):__vector_offset_default
 *(.vector_31)
                0x000000009d000210                . = ALIGN (0x4)
                0x00000000000002f0                __vector_offset_32 = DEFINED (__vector_dispatch_32)?(. - _ebase_address):__vector_offset_default
 *(.vector_32)
                0x000000009d000210                . = ALIGN (0x4)
                0x00000000000002f0                __vector_offset_33 = DEFINED (__vector_dispatch_33)?(. - _ebase_address):__vector_offset_default
 *(.vector_33)
                0x000000009d000210                . = ALIGN (0x4)
                0x00000000000002f0                __vector_offset_34 = DEFINED (__vector_dispatch_34)?(. - _ebase_address):__vector_offset_default
 *(.vector_34)
                0x000000009d000210                . = ALIGN (0x4)
                0x00000000000002f0                __vector_offset_35 = DEFINED (__vector_dispatch_35)?(. - _ebase_address):__vector_offset_default
 *(.vector_35)
                0x000000009d000210                . = ALIGN (0x4)
                0x00000000000002f0                __vector_offset_36 = DEFINED (__vector_dispatch_36)?(. - _ebase_address):__vector_offset_default
 *(.vector_36)
                0x000000009d000210                . = ALIGN (0x4)
                0x00000000000002f0                __vector_offset_37 = DEFINED (__vector_dispatch_37)?(. - _ebase_address):__vector_offset_default
 *(.vector_37)
                0x000000009d000210                . = ALIGN (0x4)
                0x00000000000002f0                __vector_offset_38 = DEFINED (__vector_dispatch_38)?(. - _ebase_address):__vector_offset_default
 *(.vector_38)
                0x000000009d000210                . = ALIGN (0x4)
                0x00000000000002f0                __vector_offset_39 = DEFINED (__vector_dispatch_39)?(. - _ebase_address):__vector_offset_default
 *(.vector_39)
                0x000000009d000210                . = ALIGN (0x4)
                0x00000000000002f0                __vector_offset_40 = DEFINED (__vector_dispatch_40)?(. - _ebase_address):__vector_offset_default
 *(.vector_40)
                0x000000009d000210                . = ALIGN (0x4)
                0x00000000000002f0                __vector_offset_41 = DEFINED (__vector_dispatch_41)?(. - _ebase_address):__vector_offset_default
 *(.vector_41)
                0x000000009d000210                . = ALIGN (0x4)
                0x00000000000002f0                __vector_offset_42 = DEFINED (__vector_dispatch_42)?(. - _ebase_address):__vector_offset_default
 *(.vector_42)
                0x000000009d000210                . = ALIGN (0x4)
                0x00000000000002f0                __vector_offset_43 = DEFINED (__vector_dispatch_43)?(. - _ebase_address):__vector_offset_default
 *(.vector_43)
                0x000000009d000210                . = ALIGN (0x4)
                0x00000000000002f0                __vector_offset_44 = DEFINED (__vector_dispatch_44)?(. - _ebase_address):__vector_offset_default
 *(.vector_44)
                0x000000009d000210                . = ALIGN (0x4)
                0x00000000000002f0                __vector_offset_45 = DEFINED (__vector_dispatch_45)?(. - _ebase_address):__vector_offset_default
 *(.vector_45)
                0x000000009d000210                . = ALIGN (0x4)
                0x00000000000002f0                __vector_offset_46 = DEFINED (__vector_dispatch_46)?(. - _ebase_address):__vector_offset_default
 *(.vector_46)
                0x000000009d000210                . = ALIGN (0x4)
                0x00000000000002f0                __vector_offset_47 = DEFINED (__vector_dispatch_47)?(. - _ebase_address):__vector_offset_default
 *(.vector_47)
                0x000000009d000210                . = ALIGN (0x4)
                0x00000000000002f0                __vector_offset_48 = DEFINED (__vector_dispatch_48)?(. - _ebase_address):__vector_offset_default
 *(.vector_48)
                0x000000009d000210                . = ALIGN (0x4)
                0x00000000000002f0                __vector_offset_49 = DEFINED (__vector_dispatch_49)?(. - _ebase_address):__vector_offset_default
 *(.vector_49)
                0x000000009d000210                . = ALIGN (0x4)
                0x00000000000002f0                __vector_offset_50 = DEFINED (__vector_dispatch_50)?(. - _ebase_address):__vector_offset_default
 *(.vector_50)
                0x000000009d000210                . = ALIGN (0x4)
                0x00000000000002f0                __vector_offset_51 = DEFINED (__vector_dispatch_51)?(. - _ebase_address):__vector_offset_default
 *(.vector_51)
                0x000000009d000210                . = ALIGN (0x4)
                0x00000000000002f0                __vector_offset_52 = DEFINED (__vector_dispatch_52)?(. - _ebase_address):__vector_offset_default
 *(.vector_52)
                0x000000009d000210                . = ALIGN (0x4)
                0x00000000000002f0                __vector_offset_53 = DEFINED (__vector_dispatch_53)?(. - _ebase_address):__vector_offset_default
 *(.vector_53)
                0x000000009d000210                . = ALIGN (0x4)
                0x00000000000002f0                __vector_offset_54 = DEFINED (__vector_dispatch_54)?(. - _ebase_address):__vector_offset_default
 *(.vector_54)
                0x000000009d000210                . = ALIGN (0x4)
                0x00000000000002f0                __vector_offset_55 = DEFINED (__vector_dispatch_55)?(. - _ebase_address):__vector_offset_default
 *(.vector_55)
                0x000000009d000210                . = ALIGN (0x4)
                0x00000000000002f0                __vector_offset_56 = DEFINED (__vector_dispatch_56)?(. - _ebase_address):__vector_offset_default
 *(.vector_56)
                0x000000009d000210                . = ALIGN (0x4)
                0x00000000000002f0                __vector_offset_57 = DEFINED (__vector_dispatch_57)?(. - _ebase_address):__vector_offset_default
 *(.vector_57)
                0x000000009d000210                . = ALIGN (0x4)
                0x00000000000002f0                __vector_offset_58 = DEFINED (__vector_dispatch_58)?(. - _ebase_address):__vector_offset_default
 *(.vector_58)
                0x000000009d000210                . = ALIGN (0x4)
                0x00000000000002f0                __vector_offset_59 = DEFINED (__vector_dispatch_59)?(. - _ebase_address):__vector_offset_default
 *(.vector_59)
                0x000000009d000210                . = ALIGN (0x4)
                0x00000000000002f0                __vector_offset_60 = DEFINED (__vector_dispatch_60)?(. - _ebase_address):__vector_offset_default
 *(.vector_60)
                0x000000009d000210                . = ALIGN (0x4)
                0x00000000000002f0                __vector_offset_61 = DEFINED (__vector_dispatch_61)?(. - _ebase_address):__vector_offset_default
 *(.vector_61)
                0x000000009d000210                . = ALIGN (0x4)
                0x00000000000002f0                __vector_offset_62 = DEFINED (__vector_dispatch_62)?(. - _ebase_address):__vector_offset_default
 *(.vector_62)
                0x000000009d000210                . = ALIGN (0x4)
                0x00000000000002f0                __vector_offset_63 = DEFINED (__vector_dispatch_63)?(. - _ebase_address):__vector_offset_default
 *(.vector_63)
                0x000000009d000210                . = ALIGN (0x4)
                0x00000000000002f0                __vector_offset_64 = DEFINED (__vector_dispatch_64)?(. - _ebase_address):__vector_offset_default
 *(.vector_64)
                0x000000009d000210                . = ALIGN (0x4)
                0x00000000000002f0                __vector_offset_65 = DEFINED (__vector_dispatch_65)?(. - _ebase_address):__vector_offset_default
 *(.vector_65)
                0x000000009d000210                . = ALIGN (0x4)
                0x00000000000002f0                __vector_offset_66 = DEFINED (__vector_dispatch_66)?(. - _ebase_address):__vector_offset_default
 *(.vector_66)
                0x000000009d000210                . = ALIGN (0x4)
                0x00000000000002f0                __vector_offset_67 = DEFINED (__vector_dispatch_67)?(. - _ebase_address):__vector_offset_default
 *(.vector_67)
                0x000000009d000210                . = ALIGN (0x4)
                0x00000000000002f0                __vector_offset_68 = DEFINED (__vector_dispatch_68)?(. - _ebase_address):__vector_offset_default
 *(.vector_68)
                0x000000009d000210                . = ALIGN (0x4)
                0x00000000000002f0                __vector_offset_69 = DEFINED (__vector_dispatch_69)?(. - _ebase_address):__vector_offset_default
 *(.vector_69)
                0x000000009d000210                . = ALIGN (0x4)
                0x00000000000002f0                __vector_offset_70 = DEFINED (__vector_dispatch_70)?(. - _ebase_address):__vector_offset_default
 *(.vector_70)
                0x000000009d000210                . = ALIGN (0x4)
                0x00000000000002f0                __vector_offset_71 = DEFINED (__vector_dispatch_71)?(. - _ebase_address):__vector_offset_default
 *(.vector_71)
                0x000000009d000210                . = ALIGN (0x4)
                0x00000000000002f0                __vector_offset_72 = DEFINED (__vector_dispatch_72)?(. - _ebase_address):__vector_offset_default
 *(.vector_72)
                0x000000009d000210                . = ALIGN (0x4)
                0x00000000000002f0                __vector_offset_73 = DEFINED (__vector_dispatch_73)?(. - _ebase_address):__vector_offset_default
 *(.vector_73)
                0x000000009d000210                . = ALIGN (0x4)
                0x00000000000002f0                __vector_offset_74 = DEFINED (__vector_dispatch_74)?(. - _ebase_address):__vector_offset_default
 *(.vector_74)
                0x000000009d000210                . = ALIGN (0x4)
                0x00000000000002f0                __vector_offset_75 = DEFINED (__vector_dispatch_75)?(. - _ebase_address):__vector_offset_default
 *(.vector_75)
                0x000000009d000210                . = ALIGN (0x4)
                0x00000000000002f0                __vector_offset_76 = DEFINED (__vector_dispatch_76)?(. - _ebase_address):__vector_offset_default
 *(.vector_76)
                0x000000009d000210                . = ALIGN (0x4)
                0x00000000000002f0                __vector_offset_77 = DEFINED (__vector_dispatch_77)?(. - _ebase_address):__vector_offset_default
 *(.vector_77)
                0x000000009d000210                . = ALIGN (0x4)
                0x00000000000002f0                __vector_offset_78 = DEFINED (__vector_dispatch_78)?(. - _ebase_address):__vector_offset_default
 *(.vector_78)
                0x000000009d000210                . = ALIGN (0x4)
                0x00000000000002f0                __vector_offset_79 = DEFINED (__vector_dispatch_79)?(. - _ebase_address):__vector_offset_default
 *(.vector_79)
                0x000000009d000210                . = ALIGN (0x4)
                0x00000000000002f0                __vector_offset_80 = DEFINED (__vector_dispatch_80)?(. - _ebase_address):__vector_offset_default
 *(.vector_80)
                0x000000009d000210                . = ALIGN (0x4)
                0x00000000000002f0                __vector_offset_81 = DEFINED (__vector_dispatch_81)?(. - _ebase_address):__vector_offset_default
 *(.vector_81)
                0x000000009d000210                . = ALIGN (0x4)
                0x00000000000002f0                __vector_offset_82 = DEFINED (__vector_dispatch_82)?(. - _ebase_address):__vector_offset_default
 *(.vector_82)
                0x000000009d000210                . = ALIGN (0x4)
                0x00000000000002f0                __vector_offset_83 = DEFINED (__vector_dispatch_83)?(. - _ebase_address):__vector_offset_default
 *(.vector_83)
                0x000000009d000210                . = ALIGN (0x4)
                0x00000000000002f0                __vector_offset_84 = DEFINED (__vector_dispatch_84)?(. - _ebase_address):__vector_offset_default
 *(.vector_84)
                0x000000009d000210                . = ALIGN (0x4)
                0x00000000000002f0                __vector_offset_85 = DEFINED (__vector_dispatch_85)?(. - _ebase_address):__vector_offset_default
 *(.vector_85)
                0x000000009d000210                . = ALIGN (0x4)
                0x00000000000002f0                __vector_offset_86 = DEFINED (__vector_dispatch_86)?(. - _ebase_address):__vector_offset_default
 *(.vector_86)
                0x000000009d000210                . = ALIGN (0x4)
                0x00000000000002f0                __vector_offset_87 = DEFINED (__vector_dispatch_87)?(. - _ebase_address):__vector_offset_default
 *(.vector_87)
                0x000000009d000210                . = ALIGN (0x4)
                0x00000000000002f0                __vector_offset_88 = DEFINED (__vector_dispatch_88)?(. - _ebase_address):__vector_offset_default
 *(.vector_88)
                0x000000009d000210                . = ALIGN (0x4)
                0x00000000000002f0                __vector_offset_89 = DEFINED (__vector_dispatch_89)?(. - _ebase_address):__vector_offset_default
 *(.vector_89)
                0x000000009d000210                . = ALIGN (0x4)
                0x00000000000002f0                __vector_offset_90 = DEFINED (__vector_dispatch_90)?(. - _ebase_address):__vector_offset_default
 *(.vector_90)
                0x000000009d000210                . = ALIGN (0x4)
                0x00000000000002f0                __vector_offset_91 = DEFINED (__vector_dispatch_91)?(. - _ebase_address):__vector_offset_default
 *(.vector_91)
                0x000000009d000210                . = ALIGN (0x4)
                0x00000000000002f0                __vector_offset_92 = DEFINED (__vector_dispatch_92)?(. - _ebase_address):__vector_offset_default
 *(.vector_92)
                0x000000009d000210                . = ALIGN (0x4)
                0x00000000000002f0                __vector_offset_93 = DEFINED (__vector_dispatch_93)?(. - _ebase_address):__vector_offset_default
 *(.vector_93)
                0x000000009d000210                . = ALIGN (0x4)
                0x00000000000002f0                __vector_offset_94 = DEFINED (__vector_dispatch_94)?(. - _ebase_address):__vector_offset_default
 *(.vector_94)
                0x000000009d000210                . = ALIGN (0x4)
                0x00000000000002f0                __vector_offset_95 = DEFINED (__vector_dispatch_95)?(. - _ebase_address):__vector_offset_default
 *(.vector_95)
                0x000000009d000210                . = ALIGN (0x4)
                0x00000000000002f0                __vector_offset_96 = DEFINED (__vector_dispatch_96)?(. - _ebase_address):__vector_offset_default
 *(.vector_96)
                0x000000009d000210                . = ALIGN (0x4)
                0x00000000000002f0                __vector_offset_97 = DEFINED (__vector_dispatch_97)?(. - _ebase_address):__vector_offset_default
 *(.vector_97)
                0x000000009d000210                . = ALIGN (0x4)
                0x00000000000002f0                __vector_offset_98 = DEFINED (__vector_dispatch_98)?(. - _ebase_address):__vector_offset_default
 *(.vector_98)
                0x000000009d000210                . = ALIGN (0x4)
                0x00000000000002f0                __vector_offset_99 = DEFINED (__vector_dispatch_99)?(. - _ebase_address):__vector_offset_default
 *(.vector_99)
                0x000000009d000210                . = ALIGN (0x4)
                0x00000000000002f0                __vector_offset_100 = DEFINED (__vector_dispatch_100)?(. - _ebase_address):__vector_offset_default
 *(.vector_100)
                0x000000009d000210                . = ALIGN (0x4)
                0x00000000000002f0                __vector_offset_101 = DEFINED (__vector_dispatch_101)?(. - _ebase_address):__vector_offset_default
 *(.vector_101)
                0x000000009d000210                . = ALIGN (0x4)
                0x00000000000002f0                __vector_offset_102 = DEFINED (__vector_dispatch_102)?(. - _ebase_address):__vector_offset_default
 *(.vector_102)
                0x000000009d000210                . = ALIGN (0x4)
                0x00000000000002f0                __vector_offset_103 = DEFINED (__vector_dispatch_103)?(. - _ebase_address):__vector_offset_default
 *(.vector_103)
                0x000000009d000210                . = ALIGN (0x4)
                0x00000000000002f0                __vector_offset_104 = DEFINED (__vector_dispatch_104)?(. - _ebase_address):__vector_offset_default
 *(.vector_104)
                0x000000009d000210                . = ALIGN (0x4)
                0x00000000000002f0                __vector_offset_105 = DEFINED (__vector_dispatch_105)?(. - _ebase_address):__vector_offset_default
 *(.vector_105)
                0x000000009d000210                . = ALIGN (0x4)
                0x00000000000002f0                __vector_offset_106 = DEFINED (__vector_dispatch_106)?(. - _ebase_address):__vector_offset_default
 *(.vector_106)
                0x000000009d000210                . = ALIGN (0x4)
                0x00000000000002f0                __vector_offset_107 = DEFINED (__vector_dispatch_107)?(. - _ebase_address):__vector_offset_default
 *(.vector_107)
                0x000000009d000210                . = ALIGN (0x4)
                0x00000000000002f0                __vector_offset_108 = DEFINED (__vector_dispatch_108)?(. - _ebase_address):__vector_offset_default
 *(.vector_108)
                0x000000009d000210                . = ALIGN (0x4)
                0x00000000000002f0                __vector_offset_109 = DEFINED (__vector_dispatch_109)?(. - _ebase_address):__vector_offset_default
 *(.vector_109)
                0x000000009d000210                . = ALIGN (0x4)
                0x0000000000000210                __vector_offset_110 = DEFINED (__vector_dispatch_110)?(. - _ebase_address):__vector_offset_default
 *(.vector_110)
 .vector_110    0x000000009d000210        0x8 build/pic32mz/production/_ext/953055421/interrupts.o
                0x000000009d000210                __vector_dispatch_110
                0x000000009d000218                . = ALIGN (0x4)
                0x0000000000000218                __vector_offset_111 = DEFINED (__vector_dispatch_111)?(. - _ebase_address):__vector_offset_default
 *(.vector_111)
 .vector_111    0x000000009d000218        0x8 build/pic32mz/production/_ext/953055421/interrupts.o
                0x000000009d000218                __vector_dispatch_111
                0x000000009d000220                . = ALIGN (0x4)
                0x0000000000000220                __vector_offset_112 = DEFINED (__vector_dispatch_112)?(. - _ebase_address):__vector_offset_default
 *(.vector_112)
 .vector_112    0x000000009d000220        0x8 build/pic32mz/production/_ext/953055421/interrupts.o
                0x000000009d000220                __vector_dispatch_112
                0x000000009d000228                . = ALIGN (0x4)
                0x0000000000000228                __vector_offset_113 = DEFINED (__vector_dispatch_113)?(. - _ebase_address):__vector_offset_default
 *(.vector_113)
 .vector_113    0x000000009d000228        0x8 build/pic32mz/production/_ext/953055421/interrupts.o
                0x000000009d000228                __vector_dispatch_113
                0x000000009d000230                . = ALIGN (0x4)
                0x0000000000000230                __vector_offset_114 = DEFINED (__vector_dispatch_114)?(. - _ebase_address):__vector_offset_default
 *(.vector_114)
 .vector_114    0x000000009d000230        0x8 build/pic32mz/production/_ext/953055421/interrupts.o
                0x000000009d000230                __vector_dispatch_114
                0x000000009d000238                . = ALIGN (0x4)
                0x00000000000002f0                __vector_offset_115 = DEFINED (__vector_dispatch_115)?(. - _ebase_address):__vector_offset_default
 *(.vector_115)
                0x000000009d000238                . = ALIGN (0x4)
                0x00000000000002f0                __vector_offset_116 = DEFINED (__vector_dispatch_116)?(. - _ebase_address):__vector_offset_default
 *(.vector_116)
                0x000000009d000238                . = ALIGN (0x4)
                0x00000000000002f0                __vector_offset_117 = DEFINED (__vector_dispatch_117)?(. - _ebase_address):__vector_offset_default
 *(.vector_117)
                0x000000009d000238                . = ALIGN (0x4)
                0x00000000000002f0                __vector_offset_118 = DEFINED (__vector_dispatch_118)?(. - _ebase_address):__vector_offset_default
 *(.vector_118)
                0x000000009d000238                . = ALIGN (0x4)
                0x00000000000002f0                __vector_offset_119 = DEFINED (__vector_dispatch_119)?(. - _ebase_address):__vector_offset_default
 *(.vector_119)
                0x000000009d000238                . = ALIGN (0x4)
                0x00000000000002f0                __vector_offset_120 = DEFINED (__vector_dispatch_120)?(. - _ebase_address):__vector_offset_default
 *(.vector_120)
                0x000000009d000238                . = ALIGN (0x4)
                0x00000000000002f0                __vector_offset_121 = DEFINED (__vector_dispatch_121)?(. - _ebase_address):__vector_offset_default
 *(.vector_121)
                0x000000009d000238                . = ALIGN (0x4)
                0x00000000000002f0                __vector_offset_122 = DEFINED (__vector_dispatch_122)?(. - _ebase_address):__vector_offset_default
 *(.vector_122)
                0x000000009d000238                . = ALIGN (0x4)
                0x00000000000002f0                __vector_offset_123 = DEFINED (__vector_dispatch_123)?(. - _ebase_address):__vector_offset_default
 *(.vector_123)
                0x000000009d000238                . = ALIGN (0x4)
                0x00000000000002f0                __vector_offset_124 = DEFINED (__vector_dispatch_124)?(. - _ebase_address):__vector_offset_default
 *(.vector_124)
                0x000000009d000238                . = ALIGN (0x4)
                0x00000000000002f0                __vector_offset_125 = DEFINED (__vector_dispatch_125)?(. - _ebase_address):__vector_offset_default
 *(.vector_125)
                0x000000009d000238                . = ALIGN (0x4)
                0x0000000000000238                __vector_offset_126 = DEFINED (__vector_dispatch_126)?(. - _ebase_address):__vector_offset_default
 *(.vector_126)
 .vector_126    0x000000009d000238        0x8 build/pic32mz/production/_ext/953055421/interrupts.o
                0x000000009d000238                __vector_dispatch_126
                0x000000009d000240                . = ALIGN (0x4)
                0x00000000000002f0                __vector_offset_127 = DEFINED (__vector_dispatch_127)?(. - _ebase_address):__vector_offset_default
 *(.vector_127)
                0x000000009d000240                . = ALIGN (0x4)
                0x00000000000002f0                __vector_offset_128 = DEFINED (__vector_dispatch_128)?(. - _ebase_address):__vector_offset_default
 *(.vector_128)
                0x000000009d000240                . = ALIGN (0x4)
                0x00000000000002f0                __vector_offset_129 = DEFINED (__vector_dispatch_129)?(. - _ebase_address):__vector_offset_default
 *(.vector_129)
                0x000000009d000240                . = ALIGN (0x4)
                0x00000000000002f0                __vector_offset_130 = DEFINED (__vector_dispatch_130)?(. - _ebase_address):__vector_offset_default
 *(.vector_130)
                0x000000009d000240                . = ALIGN (0x4)
                0x00000000000002f0                __vector_offset_131 = DEFINED (__vector_dispatch_131)?(. - _ebase_address):__vector_offset_default
 *(.vector_131)
                0x000000009d000240                . = ALIGN (0x4)
                0x0000000000000240                __vector_offset_132 = DEFINED (__vector_dispatch_132)?(. - _ebase_address):__vector_offset_default
 *(.vector_132)
 .vector_132    0x000000009d000240        0x8 build/pic32mz/production/_ext/953055421/interrupts.o
                0x000000009d000240                __vector_dispatch_132
                0x000000009d000248                . = ALIGN (0x4)
                0x0000000000000248                __vector_offset_133 = DEFINED (__vector_dispatch_133)?(. - _ebase_address):__vector_offset_default
 *(.vector_133)
 .vector_133    0x000000009d000248        0x8 build/pic32mz/production/_ext/953055421/interrupts.o
                0x000000009d000248                __vector_dispatch_133
                0x000000009d000250                . = ALIGN (0x4)
                0x00000000000002f0                __vector_offset_134 = DEFINED (__vector_dispatch_134)?(. - _ebase_address):__vector_offset_default
 *(.vector_134)
                0x000000009d000250                . = ALIGN (0x4)
                0x00000000000002f0                __vector_offset_135 = DEFINED (__vector_dispatch_135)?(. - _ebase_address):__vector_offset_default
 *(.vector_135)
                0x000000009d000250                . = ALIGN (0x4)
                0x00000000000002f0                __vector_offset_136 = DEFINED (__vector_dispatch_136)?(. - _ebase_address):__vector_offset_default
 *(.vector_136)
                0x000000009d000250                . = ALIGN (0x4)
                0x00000000000002f0                __vector_offset_137 = DEFINED (__vector_dispatch_137)?(. - _ebase_address):__vector_offset_default
 *(.vector_137)
                0x000000009d000250                . = ALIGN (0x4)
                0x00000000000002f0                __vector_offset_138 = DEFINED (__vector_dispatch_138)?(. - _ebase_address):__vector_offset_default
 *(.vector_138)
                0x000000009d000250                . = ALIGN (0x4)
                0x00000000000002f0                __vector_offset_139 = DEFINED (__vector_dispatch_139)?(. - _ebase_address):__vector_offset_default
 *(.vector_139)
                0x000000009d000250                . = ALIGN (0x4)
                0x00000000000002f0                __vector_offset_140 = DEFINED (__vector_dispatch_140)?(. - _ebase_address):__vector_offset_default
 *(.vector_140)
                0x000000009d000250                . = ALIGN (0x4)
                0x00000000000002f0                __vector_offset_141 = DEFINED (__vector_dispatch_141)?(. - _ebase_address):__vector_offset_default
 *(.vector_141)
                0x000000009d000250                . = ALIGN (0x4)
                0x00000000000002f0                __vector_offset_142 = DEFINED (__vector_dispatch_142)?(. - _ebase_address):__vector_offset_default
 *(.vector_142)
                0x000000009d000250                . = ALIGN (0x4)
                0x0000000000000250                __vector_offset_143 = DEFINED (__vector_dispatch_143)?(. - _ebase_address):__vector_offset_default
 *(.vector_143)
 .vector_143    0x000000009d000250        0x8 build/pic32mz/production/_ext/953055421/interrupts.o
                0x000000009d000250                __vector_dispatch_143
                0x000000009d000258                . = ALIGN (0x4)
                0x0000000000000258                __vector_offset_144 = DEFINED (__vector_dispatch_144)?(. - _ebase_address):__vector_offset_default
 *(.vector_144)
 .vector_144    0x000000009d000258        0x8 build/pic32mz/production/_ext/953055421/interrupts.o
                0x000000009d000258                __vector_dispatch_144
                0x000000009d000260                . = ALIGN (0x4)
                0x0000000000000260                __vector_offset_145 = DEFINED (__vector_dispatch_145)?(. - _ebase_address):__vector_offset_default
 *(.vector_145)
 .vector_145    0x000000009d000260        0x8 build/pic32mz/production/_ext/953055421/interrupts.o
                0x000000009d000260                __vector_dispatch_145
                0x000000009d000268                . = ALIGN (0x4)
                0x0000000000000268                __vector_offset_146 = DEFINED (__vector_dispatch_146)?(. - _ebase_address):__vector_offset_default
 *(.vector_146)
 .vector_146    0x000000009d000268        0x8 build/pic32mz/production/_ext/953055421/interrupts.o
                0x000000009d000268                __vector_dispatch_146
                0x000000009d000270                . = ALIGN (0x4)
                0x0000000000000270                __vector_offset_147 = DEFINED (__vector_dispatch_147)?(. - _ebase_address):__vector_offset_default
 *(.vector_147)
 .vector_147    0x000000009d000270        0x8 build/pic32mz/production/_ext/953055421/interrupts.o
                0x000000009d000270                __vector_dispatch_147
                0x000000009d000278                . = ALIGN (0x4)
                0x0000000000000278                __vector_offset_148 = DEFINED (__vector_dispatch_148)?(. - _ebase_address):__vector_offset_default
 *(.vector_148)
 .vector_148    0x000000009d000278        0x8 build/pic32mz/production/_ext/953055421/interrupts.o
                0x000000009d000278                __vector_dispatch_148
                0x000000009d000280                . = ALIGN (0x4)
                0x00000000000002f0                __vector_offset_149 = DEFINED (__vector_dispatch_149)?(. - _ebase_address):__vector_offset_default
 *(.vector_149)
                0x000000009d000280                . = ALIGN (0x4)
                0x0000000000000280                __vector_offset_150 = DEFINED (__vector_dispatch_150)?(. - _ebase_address):__vector_offset_default
 *(.vector_150)
 .vector_150    0x000000009d000280        0x8 build/pic32mz/production/_ext/953055421/interrupts.o
                0x000000009d000280                __vector_dispatch_150
                0x000000009d000288                . = ALIGN (0x4)
                0x00000000000002f0                __vector_offset_151 = DEFINED (__vector_dispatch_151)?(. - _ebase_address):__vector_offset_default
 *(.vector_151)
                0x000000009d000288                . = ALIGN (0x4)
                0x00000000000002f0                __vector_offset_152 = DEFINED (__vector_dispatch_152)?(. - _ebase_address):__vector_offset_default
 *(.vector_152)
                0x000000009d000288                . = ALIGN (0x4)
                0x00000000000002f0                __vector_offset_153 = DEFINED (__vector_dispatch_153)?(. - _ebase_address):__vector_offset_default
 *(.vector_153)
                0x000000009d000288                . = ALIGN (0x4)
                0x00000000000002f0                __vector_offset_154 = DEFINED (__vector_dispatch_154)?(. - _ebase_address):__vector_offset_default
 *(.vector_154)
                0x000000009d000288                . = ALIGN (0x4)
                0x00000000000002f0                __vector_offset_155 = DEFINED (__vector_dispatch_155)?(. - _ebase_address):__vector_offset_default
 *(.vector_155)
                0x000000009d000288                . = ALIGN (0x4)
                0x00000000000002f0                __vector_offset_156 = DEFINED (__vector_dispatch_156)?(. - _ebase_address):__vector_offset_default
 *(.vector_156)
                0x000000009d000288                . = ALIGN (0x4)
                0x0000000000000288                __vector_offset_157 = DEFINED (__vector_dispatch_157)?(. - _ebase_address):__vector_offset_default
 *(.vector_157)
 .vector_157    0x000000009d000288        0x8 build/pic32mz/production/_ext/953055421/interrupts.o
                0x000000009d000288                __vector_dispatch_157
                0x000000009d000290                . = ALIGN (0x4)
                0x0000000000000290                __vector_offset_158 = DEFINED (__vector_dispatch_158)?(. - _ebase_address):__vector_offset_default
 *(.vector_158)
 .vector_158    0x000000009d000290        0x8 build/pic32mz/production/_ext/953055421/interrupts.o
                0x000000009d000290                __vector_dispatch_158
                0x000000009d000298                . = ALIGN (0x4)
                0x0000000000000298                __vector_offset_159 = DEFINED (__vector_dispatch_159)?(. - _ebase_address):__vector_offset_default
 *(.vector_159)
 .vector_159    0x000000009d000298        0x8 build/pic32mz/production/_ext/953055421/interrupts.o
                0x000000009d000298                __vector_dispatch_159
                0x000000009d0002a0                . = ALIGN (0x4)
                0x00000000000002f0                __vector_offset_160 = DEFINED (__vector_dispatch_160)?(. - _ebase_address):__vector_offset_default
 *(.vector_160)
                0x000000009d0002a0                . = ALIGN (0x4)
                0x00000000000002f0                __vector_offset_161 = DEFINED (__vector_dispatch_161)?(. - _ebase_address):__vector_offset_default
 *(.vector_161)
                0x000000009d0002a0                . = ALIGN (0x4)
                0x00000000000002f0                __vector_offset_162 = DEFINED (__vector_dispatch_162)?(. - _ebase_address):__vector_offset_default
 *(.vector_162)
                0x000000009d0002a0                . = ALIGN (0x4)
                0x00000000000002f0                __vector_offset_163 = DEFINED (__vector_dispatch_163)?(. - _ebase_address):__vector_offset_default
 *(.vector_163)
                0x000000009d0002a0                . = ALIGN (0x4)
                0x00000000000002a0                __vector_offset_164 = DEFINED (__vector_dispatch_164)?(. - _ebase_address):__vector_offset_default
 *(.vector_164)
 .vector_164    0x000000009d0002a0        0x8 build/pic32mz/production/_ext/953055421/interrupts.o
                0x000000009d0002a0                __vector_dispatch_164
                0x000000009d0002a8                . = ALIGN (0x4)
                0x00000000000002a8                __vector_offset_165 = DEFINED (__vector_dispatch_165)?(. - _ebase_address):__vector_offset_default
 *(.vector_165)
 .vector_165    0x000000009d0002a8        0x8 build/pic32mz/production/_ext/953055421/interrupts.o
                0x000000009d0002a8                __vector_dispatch_165
                0x000000009d0002b0                . = ALIGN (0x4)
                0x00000000000002f0                __vector_offset_166 = DEFINED (__vector_dispatch_166)?(. - _ebase_address):__vector_offset_default
 *(.vector_166)
                0x000000009d0002b0                . = ALIGN (0x4)
                0x00000000000002f0                __vector_offset_167 = DEFINED (__vector_dispatch_167)?(. - _ebase_address):__vector_offset_default
 *(.vector_167)
                0x000000009d0002b0                . = ALIGN (0x4)
                0x00000000000002f0                __vector_offset_168 = DEFINED (__vector_dispatch_168)?(. - _ebase_address):__vector_offset_default
 *(.vector_168)
                0x000000009d0002b0                . = ALIGN (0x4)
                0x00000000000002f0                __vector_offset_169 = DEFINED (__vector_dispatch_169)?(. - _ebase_address):__vector_offset_default
 *(.vector_169)
                0x000000009d0002b0                . = ALIGN (0x4)
                0x00000000000002b0                __vector_offset_170 = DEFINED (__vector_dispatch_170)?(. - _ebase_address):__vector_offset_default
 *(.vector_170)
 .vector_170    0x000000009d0002b0        0x8 build/pic32mz/production/_ext/953055421/interrupts.o
                0x000000009d0002b0                __vector_dispatch_170
                0x000000009d0002b8                . = ALIGN (0x4)
                0x00000000000002b8                __vector_offset_171 = DEFINED (__vector_dispatch_171)?(. - _ebase_address):__vector_offset_default
 *(.vector_171)
 .vector_171    0x000000009d0002b8        0x8 build/pic32mz/production/_ext/953055421/interrupts.o
                0x000000009d0002b8                __vector_dispatch_171
                0x000000009d0002c0                . = ALIGN (0x4)
                0x00000000000002c0                __vector_offset_172 = DEFINED (__vector_dispatch_172)?(. - _ebase_address):__vector_offset_default
 *(.vector_172)
 .vector_172    0x000000009d0002c0        0x8 build/pic32mz/production/_ext/953055421/interrupts.o
                0x000000009d0002c0                __vector_dispatch_172
                0x000000009d0002c8                . = ALIGN (0x4)
                0x00000000000002c8                __vector_offset_173 = DEFINED (__vector_dispatch_173)?(. - _ebase_address):__vector_offset_default
 *(.vector_173)
 .vector_173    0x000000009d0002c8        0x8 build/pic32mz/production/_ext/953055421/interrupts.o
                0x000000009d0002c8                __vector_dispatch_173
                0x000000009d0002d0                . = ALIGN (0x4)
                0x00000000000002f0                __vector_offset_174 = DEFINED (__vector_dispatch_174)?(. - _ebase_address):__vector_offset_default
 *(.vector_174)
                0x000000009d0002d0                . = ALIGN (0x4)
                0x00000000000002d0                __vector_offset_175 = DEFINED (__vector_dispatch_175)?(. - _ebase_address):__vector_offset_default
 *(.vector_175)
 .vector_175    0x000000009d0002d0        0x8 build/pic32mz/production/_ext/953055421/interrupts.o
                0x000000009d0002d0                __vector_dispatch_175
                0x000000009d0002d8                . = ALIGN (0x4)
                0x00000000000002f0                __vector_offset_176 = DEFINED (__vector_dispatch_176)?(. - _ebase_address):__vector_offset_default
 *(.vector_176)
                0x000000009d0002d8                . = ALIGN (0x4)
                0x00000000000002f0                __vector_offset_177 = DEFINED (__vector_dispatch_177)?(. - _ebase_address):__vector_offset_default
 *(.vector_177)
                0x000000009d0002d8                . = ALIGN (0x4)
                0x00000000000002f0                __vector_offset_178 = DEFINED (__vector_dispatch_178)?(. - _ebase_address):__vector_offset_default
 *(.vector_178)
                0x000000009d0002d8                . = ALIGN (0x4)
                0x00000000000002f0                __vector_offset_179 = DEFINED (__vector_dispatch_179)?(. - _ebase_address):__vector_offset_default
 *(.vector_179)
                0x000000009d0002d8                . = ALIGN (0x4)
                0x00000000000002f0                __vector_offset_180 = DEFINED (__vector_dispatch_180)?(. - _ebase_address):__vector_offset_default
 *(.vector_180)
                0x000000009d0002d8                . = ALIGN (0x4)
                0x00000000000002f0                __vector_offset_181 = DEFINED (__vector_dispatch_181)?(. - _ebase_address):__vector_offset_default
 *(.vector_181)
                0x000000009d0002d8                . = ALIGN (0x4)
                0x00000000000002f0                __vector_offset_182 = DEFINED (__vector_dispatch_182)?(. - _ebase_address):__vector_offset_default
 *(.vector_182)
                0x000000009d0002d8                . = ALIGN (0x4)
                0x00000000000002f0                __vector_offset_183 = DEFINED (__vector_dispatch_183)?(. - _ebase_address):__vector_offset_default
 *(.vector_183)
                0x000000009d0002d8                . = ALIGN (0x4)
                0x00000000000002f0                __vector_offset_184 = DEFINED (__vector_dispatch_184)?(. - _ebase_address):__vector_offset_default
 *(.vector_184)
                0x000000009d0002d8                . = ALIGN (0x4)
                0x00000000000002f0                __vector_offset_185 = DEFINED (__vector_dispatch_185)?(. - _ebase_address):__vector_offset_default
 *(.vector_185)
                0x000000009d0002d8                . = ALIGN (0x4)
                0x00000000000002f0                __vector_offset_186 = DEFINED (__vector_dispatch_186)?(. - _ebase_address):__vector_offset_default
 *(.vector_186)
                0x000000009d0002d8                . = ALIGN (0x4)
                0x00000000000002f0                __vector_offset_187 = DEFINED (__vector_dispatch_187)?(. - _ebase_address):__vector_offset_default
 *(.vector_187)
                0x000000009d0002d8                . = ALIGN (0x4)
                0x00000000000002d8                __vector_offset_188 = DEFINED (__vector_dispatch_188)?(. - _ebase_address):__vector_offset_default
 *(.vector_188)
 .vector_188    0x000000009d0002d8        0x8 build/pic32mz/production/_ext/953055421/interrupts.o
                0x000000009d0002d8                __vector_dispatch_188
                0x000000009d0002e0                . = ALIGN (0x4)
                0x00000000000002e0                __vector_offset_189 = DEFINED (__vector_dispatch_189)?(. - _ebase_address):__vector_offset_default
 *(.vector_189)
 .vector_189    0x000000009d0002e0        0x8 build/pic32mz/production/_ext/953055421/interrupts.o
                0x000000009d0002e0                __vector_dispatch_189
                0x000000009d0002e8                . = ALIGN (0x4)
                0x00000000000002e8                __vector_offset_190 = DEFINED (__vector_dispatch_190)?(. - _ebase_address):__vector_offset_default
 *(.vector_190)
 .vector_190    0x000000009d0002e8        0x8 build/pic32mz/production/_ext/953055421/interrupts.o
                0x000000009d0002e8                __vector_dispatch_190
                0x000000009d0002f0                . = ALIGN (0x4)
                0x00000000000002f0                __vector_offset_191 = DEFINED (__vector_dispatch_191)?(. - _ebase_address):__vector_offset_default
 *(.vector_191)
                0x000000009d0002f0                . = ALIGN (0x4)
                0x00000000000002f0                __vector_offset_192 = DEFINED (__vector_dispatch_192)?(. - _ebase_address):__vector_offset_default
 *(.vector_192)
                0x000000009d0002f0                . = ALIGN (0x4)
                0x00000000000002f0                __vector_offset_193 = DEFINED (__vector_dispatch_193)?(. - _ebase_address):__vector_offset_default
 *(.vector_193)
                0x000000009d0002f0                . = ALIGN (0x4)
                0x00000000000002f0                __vector_offset_194 = DEFINED (__vector_dispatch_194)?(. - _ebase_address):__vector_offset_default
 *(.vector_194)
                0x000000009d0002f0                . = ALIGN (0x4)
                0x00000000000002f0                __vector_offset_195 = DEFINED (__vector_dispatch_195)?(. - _ebase_address):__vector_offset_default
 *(.vector_195)
                0x000000009d0002f0                . = ALIGN (0x4)
                0x00000000000002f0                __vector_offset_196 = DEFINED (__vector_dispatch_196)?(. - _ebase_address):__vector_offset_default
 *(.vector_196)
                0x000000009d0002f0                . = ALIGN (0x4)
                0x00000000000002f0                __vector_offset_197 = DEFINED (__vector_dispatch_197)?(. - _ebase_address):__vector_offset_default
 *(.vector_197)
                0x000000009d0002f0                . = ALIGN (0x4)
                0x00000000000002f0                __vector_offset_198 = DEFINED (__vector_dispatch_198)?(. - _ebase_address):__vector_offset_default
 *(.vector_198)
                0x000000009d0002f0                . = ALIGN (0x4)
                0x00000000000002f0                __vector_offset_199 = DEFINED (__vector_dispatch_199)?(. - _ebase_address):__vector_offset_default
 *(.vector_199)
                0x000000009d0002f0                . = ALIGN (0x4)
                0x00000000000002f0                __vector_offset_200 = DEFINED (__vector_dispatch_200)?(. - _ebase_address):__vector_offset_default
 *(.vector_200)
                0x000000009d0002f0                . = ALIGN (0x4)
                0x00000000000002f0                __vector_offset_201 = DEFINED (__vector_dispatch_201)?(. - _ebase_address):__vector_offset_default
 *(.vector_201)
                0x000000009d0002f0                . = ALIGN (0x4)
                0x00000000000002f0                __vector_offset_202 = DEFINED (__vector_dispatch_202)?(. - _ebase_address):__vector_offset_default
 *(.vector_202)
                0x000000009d0002f0                . = ALIGN (0x4)
                0x00000000000002f0                __vector_offset_203 = DEFINED (__vector_dispatch_203)?(. - _ebase_address):__vector_offset_default
 *(.vector_203)
                0x000000009d0002f0                . = ALIGN (0x4)
                0x00000000000002f0                __vector_offset_204 = DEFINED (__vector_dispatch_204)?(. - _ebase_address):__vector_offset_default
 *(.vector_204)
                0x000000009d0002f0                . = ALIGN (0x4)
                0x00000000000002f0                __vector_offset_205 = DEFINED (__vector_dispatch_205)?(. - _ebase_address):__vector_offset_default
 *(.vector_205)
                0x000000009d0002f0                . = ALIGN (0x4)
                0x00000000000002f0                __vector_offset_206 = DEFINED (__vector_dispatch_206)?(. - _ebase_address):__vector_offset_default
 *(.vector_206)
                0x000000009d0002f0                . = ALIGN (0x4)
                0x00000000000002f0                __vector_offset_207 = DEFINED (__vector_dispatch_207)?(. - _ebase_address):__vector_offset_default
 *(.vector_207)
                0x000000009d0002f0                . = ALIGN (0x4)
                0x00000000000002f0                __vector_offset_208 = DEFINED (__vector_dispatch_208)?(. - _ebase_address):__vector_offset_default
 *(.vector_208)
                0x000000009d0002f0                . = ALIGN (0x4)
                0x00000000000002f0                __vector_offset_209 = DEFINED (__vector_dispatch_209)?(. - _ebase_address):__vector_offset_default
 *(.vector_209)
                0x000000009d0002f0                . = ALIGN (0x4)
                0x00000000000002f0                __vector_offset_210 = DEFINED (__vector_dispatch_210)?(. - _ebase_address):__vector_offset_default
 *(.vector_210)
                0x000000009d0002f0                . = ALIGN (0x4)
                0x00000000000002f0                __vector_offset_211 = DEFINED (__vector_dispatch_211)?(. - _ebase_address):__vector_offset_default
 *(.vector_211)
                0x000000009d0002f0                . = ALIGN (0x4)
                0x00000000000002f0                __vector_offset_212 = DEFINED (__vector_dispatch_212)?(. - _ebase_address):__vector_offset_default
 *(.vector_212)
                0x000000009d0002f0                . = ALIGN (0x4)
                0x00000000000002f0                __vector_offset_213 = DEFINED (__vector_dispatch_213)?(. - _ebase_address):__vector_offset_default
 *(.vector_213)
                0x000000009d0002f0                . = ALIGN (0x4)
                0x00000000000002f0                __vector_offset_214 = DEFINED (__vector_dispatch_214)?(. - _ebase_address):__vector_offset_default
 *(.vector_214)
                0x000000009d0002f0                . = ALIGN (0x4)
                0x00000000000002f0                __vector_offset_215 = DEFINED (__vector_dispatch_215)?(. - _ebase_address):__vector_offset_default
 *(.vector_215)
                0x000000009d0002f0                . = ALIGN (0x4)
                0x00000000000002f0                __vector_offset_216 = DEFINED (__vector_dispatch_216)?(. - _ebase_address):__vector_offset_default
 *(.vector_216)
                0x000000009d0002f0                . = ALIGN (0x4)
                0x00000000000002f0                __vector_offset_217 = DEFINED (__vector_dispatch_217)?(. - _ebase_address):__vector_offset_default
 *(.vector_217)
                0x000000009d0002f0                . = ALIGN (0x4)
                0x00000000000002f0                __vector_offset_218 = DEFINED (__vector_dispatch_218)?(. - _ebase_address):__vector_offset_default
 *(.vector_218)
                0x000000009d0002f0                . = ALIGN (0x4)
                0x00000000000002f0                __vector_offset_219 = DEFINED (__vector_dispatch_219)?(. - _ebase_address):__vector_offset_default
 *(.vector_219)
                0x000000009d0002f0                . = ALIGN (0x4)
                0x00000000000002f0                __vector_offset_220 = DEFINED (__vector_dispatch_220)?(. - _ebase_address):__vector_offset_default
 *(.vector_220)
                0x000000009d0002f0                . = ALIGN (0x4)
                0x00000000000002f0                __vector_offset_221 = DEFINED (__vector_dispatch_221)?(. - _ebase_address):__vector_offset_default
 *(.vector_221)
                0x000000009d0002f0                . = ALIGN (0x4)
                0x00000000000002f0                __vector_offset_222 = DEFINED (__vector_dispatch_222)?(. - _ebase_address):__vector_offset_default
 *(.vector_222)
                0x000000009d0002f0                . = ALIGN (0x4)
                0x00000000000002f0                __vector_offset_223 = DEFINED (__vector_dispatch_223)?(. - _ebase_address):__vector_offset_default
 *(.vector_223)
                0x000000009d0002f0                . = ALIGN (0x4)
                0x00000000000002f0                __vector_offset_224 = DEFINED (__vector_dispatch_224)?(. - _ebase_address):__vector_offset_default
 *(.vector_224)
                0x000000009d0002f0                . = ALIGN (0x4)
                0x00000000000002f0                __vector_offset_225 = DEFINED (__vector_dispatch_225)?(. - _ebase_address):__vector_offset_default
 *(.vector_225)
                0x000000009d0002f0                . = ALIGN (0x4)
                0x00000000000002f0                __vector_offset_226 = DEFINED (__vector_dispatch_226)?(. - _ebase_address):__vector_offset_default
 *(.vector_226)
                0x000000009d0002f0                . = ALIGN (0x4)
                0x00000000000002f0                __vector_offset_227 = DEFINED (__vector_dispatch_227)?(. - _ebase_address):__vector_offset_default
 *(.vector_227)
                0x000000009d0002f0                . = ALIGN (0x4)
                0x00000000000002f0                __vector_offset_228 = DEFINED (__vector_dispatch_228)?(. - _ebase_address):__vector_offset_default
 *(.vector_228)
                0x000000009d0002f0                . = ALIGN (0x4)
                0x00000000000002f0                __vector_offset_229 = DEFINED (__vector_dispatch_229)?(. - _ebase_address):__vector_offset_default
 *(.vector_229)
                0x000000009d0002f0                . = ALIGN (0x4)
                0x00000000000002f0                __vector_offset_230 = DEFINED (__vector_dispatch_230)?(. - _ebase_address):__vector_offset_default
 *(.vector_230)
                0x000000009d0002f0                . = ALIGN (0x4)
                0x00000000000002f0                __vector_offset_231 = DEFINED (__vector_dispatch_231)?(. - _ebase_address):__vector_offset_default
 *(.vector_231)
                0x000000009d0002f0                . = ALIGN (0x4)
                0x00000000000002f0                __vector_offset_232 = DEFINED (__vector_dispatch_232)?(. - _ebase_address):__vector_offset_default
 *(.vector_232)
                0x000000009d0002f0                . = ALIGN (0x4)
                0x00000000000002f0                __vector_offset_233 = DEFINED (__vector_dispatch_233)?(. - _ebase_address):__vector_offset_default
 *(.vector_233)
                0x000000009d0002f0                . = ALIGN (0x4)
                0x00000000000002f0                __vector_offset_234 = DEFINED (__vector_dispatch_234)?(. - _ebase_address):__vector_offset_default
 *(.vector_234)
                0x000000009d0002f0                . = ALIGN (0x4)
                0x00000000000002f0                __vector_offset_235 = DEFINED (__vector_dispatch_235)?(. - _ebase_address):__vector_offset_default
 *(.vector_235)
                0x000000009d0002f0                . = ALIGN (0x4)
                0x00000000000002f0                __vector_offset_236 = DEFINED (__vector_dispatch_236)?(. - _ebase_address):__vector_offset_default
 *(.vector_236)
                0x000000009d0002f0                . = ALIGN (0x4)
                0x00000000000002f0                __vector_offset_237 = DEFINED (__vector_dispatch_237)?(. - _ebase_address):__vector_offset_default
 *(.vector_237)
                0x000000009d0002f0                . = ALIGN (0x4)
                0x00000000000002f0                __vector_offset_238 = DEFINED (__vector_dispatch_238)?(. - _ebase_address):__vector_offset_default
 *(.vector_238)
                0x000000009d0002f0                . = ALIGN (0x4)
                0x00000000000002f0                __vector_offset_239 = DEFINED (__vector_dispatch_239)?(. - _ebase_address):__vector_offset_default
 *(.vector_239)
                0x000000009d0002f0                . = ALIGN (0x4)
                0x00000000000002f0                __vector_offset_240 = DEFINED (__vector_dispatch_240)?(. - _ebase_address):__vector_offset_default
 *(.vector_240)
                0x000000009d0002f0                . = ALIGN (0x4)
                0x00000000000002f0                __vector_offset_241 = DEFINED (__vector_dispatch_241)?(. - _ebase_address):__vector_offset_default
 *(.vector_241)
                0x000000009d0002f0                . = ALIGN (0x4)
                0x00000000000002f0                __vector_offset_242 = DEFINED (__vector_dispatch_242)?(. - _ebase_address):__vector_offset_default
 *(.vector_242)
                0x000000009d0002f0                . = ALIGN (0x4)
                0x00000000000002f0                __vector_offset_243 = DEFINED (__vector_dispatch_243)?(. - _ebase_address):__vector_offset_default
 *(.vector_243)
                0x000000009d0002f0                . = ALIGN (0x4)
                0x00000000000002f0                __vector_offset_244 = DEFINED (__vector_dispatch_244)?(. - _ebase_address):__vector_offset_default
 *(.vector_244)
                0x000000009d0002f0                . = ALIGN (0x4)
                0x00000000000002f0                __vector_offset_245 = DEFINED (__vector_dispatch_245)?(. - _ebase_address):__vector_offset_default
 *(.vector_245)
                0x000000009d0002f0                . = ALIGN (0x4)
                0x00000000000002f0                __vector_offset_246 = DEFINED (__vector_dispatch_246)?(. - _ebase_address):__vector_offset_default
 *(.vector_246)
                0x000000009d0002f0                . = ALIGN (0x4)
                0x00000000000002f0                __vector_offset_247 = DEFINED (__vector_dispatch_247)?(. - _ebase_address):__vector_offset_default
 *(.vector_247)
                0x000000009d0002f0                . = ALIGN (0x4)
                0x00000000000002f0                __vector_offset_248 = DEFINED (__vector_dispatch_248)?(. - _ebase_address):__vector_offset_default
 *(.vector_248)
                0x000000009d0002f0                . = ALIGN (0x4)
                0x00000000000002f0                __vector_offset_249 = DEFINED (__vector_dispatch_249)?(. - _ebase_address):__vector_offset_default
 *(.vector_249)
                0x000000009d0002f0                . = ALIGN (0x4)
                0x00000000000002f0                __vector_offset_250 = DEFINED (__vector_dispatch_250)?(. - _ebase_address):__vector_offset_default
 *(.vector_250)
                0x000000009d0002f0                . = ALIGN (0x4)
                0x00000000000002f0                __vector_offset_251 = DEFINED (__vector_dispatch_251)?(. - _ebase_address):__vector_offset_default
 *(.vector_251)
                0x000000009d0002f0                . = ALIGN (0x4)
                0x00000000000002f0                __vector_offset_252 = DEFINED (__vector_dispatch_252)?(. - _ebase_address):__vector_offset_default
 *(.vector_252)
                0x000000009d0002f0                . = ALIGN (0x4)
                0x00000000000002f0                __vector_offset_253 = DEFINED (__vector_dispatch_253)?(. - _ebase_address):__vector_offset_default
 *(.vector_253)
                0x000000009d0002f0                . = ALIGN (0x4)
                0x00000000000002f0                __vector_offset_254 = DEFINED (__vector_dispatch_254)?(. - _ebase_address):__vector_offset_default
 *(.vector_254)
                0x000000009d0002f0                . = ALIGN (0x4)
                0x00000000000002f0                __vector_offset_255 = DEFINED (__vector_dispatch_255)?(. - _ebase_address):__vector_offset_default
 *(.vector_255)
                0x000000009d0002f0                . = ALIGN (0x4)
                0x00000000000002f0                __vector_offset_default = (. - _ebase_address)
 *(.vector_default)
 .vector_default
                0x000000009d0002f0       0x48 c:/program files/microchip/xc32/v3.00/bin/bin/../../lib/gcc/pic32mx/8.3.1/../../../../pic32mx/lib/fpu64\libpic32.a(defaultinterrupt.o)
                0x000000009d0002f0                _DefaultInterrupt

.startup
 *(.startup)

.text           0x000000009d000338        0x0
 *(.stub .gnu.linkonce.t.*)
 *(.text.*personality*)
 *(.mips16.fn.*)
 *(.mips16.call.*)
 *(.gnu.warning)
                0x000000009d000338                . = ALIGN (0x4)

.init           0x000000009d000338        0x0
 *crti.o(.init)
 *crtbegin.o(.init)
 *(EXCLUDE_FILE(*crtn.o *crtend?.o *crtend.o) .init)
 *crtend.o(.init)
 *crtn.o(.init)
                0x000000009d000338                . = ALIGN (0x4)

.fini           0x000000009d000338        0x0
 *(.fini)
                0x000000009d000338                . = ALIGN (0x4)

.preinit_array  0x000000009d000338        0x0
                [!provide]                        PROVIDE (__preinit_array_start = .)
 *(.preinit_array)
                [!provide]                        PROVIDE (__preinit_array_end = .)
                0x000000009d000338                . = ALIGN (0x4)

.init_array     0x000000009d000338        0x0
                [!provide]                        PROVIDE (__init_array_start = .)
 *(SORT_BY_NAME(.init_array.*))
 *(.init_array)
                [!provide]                        PROVIDE (__init_array_end = .)
                0x000000009d000338                . = ALIGN (0x4)

.fini_array     0x000000009d000338        0x0
                [!provide]                        PROVIDE (__fini_array_start = .)
 *(SORT_BY_NAME(.fini_array.*))
 *(.fini_array)
                [!provide]                        PROVIDE (__fini_array_end = .)
                0x000000009d000338                . = ALIGN (0x4)

.ctors          0x000000009d000338        0x0
 *crtbegin.o(.ctors)
 *crtbegin?.o(.ctors)
 *(EXCLUDE_FILE(*crtend?.o *crtend.o) .ctors)
 *(SORT_BY_NAME(.ctors.*))
 *(.ctors)
                0x000000009d000338                . = ALIGN (0x4)

.dtors          0x000000009d000338        0x0
 *crtbegin.o(.dtors)
 *crtbegin?.o(.dtors)
 *(EXCLUDE_FILE(*crtend?.o *crtend.o) .dtors)
 *(SORT_BY_NAME(.dtors.*))
 *(.dtors)
                0x000000009d000338                . = ALIGN (0x4)

.rodata         0x000000009d000338        0x0
 *(.gnu.linkonce.r.*)
 *(.rodata1)
                0x000000009d000338                . = ALIGN (0x4)

.sdata2         0x000000009d000338        0x0
 *(.sdata2 .sdata2.* .gnu.linkonce.s2.*)
                0x000000009d000338                . = ALIGN (0x4)

.sbss2          0x000000009d000338        0x0
 *(.sbss2 .sbss2.* .gnu.linkonce.sb2.*)
                0x000000009d000338                . = ALIGN (0x4)

.eh_frame_hdr
 *(.eh_frame_hdr)
                0x000000009d000338                . = ALIGN (0x4)

.eh_frame
 *(.eh_frame)
                0x000000009d000338                . = ALIGN (0x4)

.gcc_except_table
 *(.gcc_except_table .gcc_except_table.*)
                0x000000009d000338                . = ALIGN (0x4)

.dbg_data       0x0000000080000000        0x0
                0x0000000080000000                . = (. + DEFINED (_DEBUGGER)?0x200:0x0)
                0x0000000080000000                . = (. + DEFINED (_DEBUGGER)?0x80:0x0)
                0x0000000080000000                . = (. + DEFINED (_DEBUGGER)?0x100:0x0)

.jcr            0x0000000080000000        0x0
 *(.jcr)
                0x0000000080000000                . = ALIGN (0x4)

.eh_frame
 *(.eh_frame)
                0x0000000080000000                . = ALIGN (0x4)

.gcc_except_table
 *(.gcc_except_table .gcc_except_table.*)
                0x0000000080000000                . = ALIGN (0x4)

.persist        0x0000000080000000        0x0
                0x0000000080000000                _persist_begin = .
 *(.persist .persist.*)
                0x0000000080000000                . = ALIGN (0x4)
                0x0000000080000000                _persist_end = .

.data           0x0000000080000000        0x0
 *(.gnu.linkonce.d.*)
 *(.data1)
                0x0000000080000000                . = ALIGN (0x4)
                0x0000000080000000                . = .
                0x0000000080007ff0                _gp = (ALIGN (0x10) + 0x7ff0)

.got            0x0000000080000000        0x0
 *(.got.plt)
 *(.got)
                0x0000000080000000                . = ALIGN (0x4)

.sdata          0x0000000080000000       0x2c
                0x0000000080000000                _sdata_begin = .
 *(.sdata .sdata.* .gnu.linkonce.s.*)
 .sdata         0x0000000080000000        0x2 build/pic32mz/production/_ext/1636986698/sys_time.o
 *fill*         0x0000000080000002        0x2 
 .sdata         0x0000000080000004        0x4 build/pic32mz/production/_ext/1360937237/mdot.o
                0x0000000080000004                testMD
 .sdata         0x0000000080000008       0x24 c:/program files/microchip/xc32/v3.00/bin/bin/../../lib/gcc/pic32mx/8.3.1/../../../../pic32mx/lib/fpu64\libpic32.a(pic32_init_cache.o)
                0x0000000080000008                __pic32_icache_size
                0x000000008000000c                __pic32_icache_linesize
                0x0000000080000010                __pic32_icache_ways
                0x0000000080000014                __pic32_dcache_size
                0x0000000080000018                __pic32_dcache_linesize
                0x000000008000001c                __pic32_dcache_ways
                0x0000000080000020                __pic32_scache_size
                0x0000000080000024                __pic32_scache_linesize
                0x0000000080000028                __pic32_scache_ways
                0x000000008000002c                . = ALIGN (0x4)
                0x000000008000002c                _sdata_end = .

.lit8
 *(.lit8)

.lit4
 *(.lit4)
                0x000000008000002c                . = ALIGN (0x4)
                0x000000008000002c                _data_end = .
                0x000000008000002c                _bss_begin = .

.sbss           0x000000008000002c       0x70
                0x000000008000002c                _sbss_begin = .
 *(.dynsbss)
 *(.sbss .sbss.* .gnu.linkonce.sb.*)
 .sbss          0x000000008000002c        0x8 build/pic32mz/production/_ext/809018751/plib_coretimer.o
                0x000000008000002c                coreTmr
 .sbss          0x0000000080000034        0x8 build/pic32mz/production/_ext/10662482/plib_tmr2.o
 .sbss          0x000000008000003c        0x8 build/pic32mz/production/_ext/1192657380/ff.o
 .sbss          0x0000000080000044       0x18 build/pic32mz/production/_ext/252936118/sys_fs.o
                0x0000000080000044                errorValue
                0x0000000080000048                gSysFsMutex
                0x000000008000004c                gSYSFSCurrentMountPoint
                0x0000000080000054                gSYSFSObj
 .sbss          0x000000008000005c        0x2 build/pic32mz/production/_ext/252936118/sys_fs_media_manager.o
                0x000000008000005c                VolToPart
 .sbss          0x000000008000005e        0x1 build/pic32mz/production/_ext/252936118/sys_fs_fat_interface.o
 *fill*         0x000000008000005f        0x1 
 .sbss          0x0000000080000060        0x2 build/pic32mz/production/_ext/202551283/usb_device_cdc.o
                0x0000000080000060                gUSBDeviceCdcCommonDataObj
 *fill*         0x0000000080000062        0x2 
 .sbss          0x0000000080000064       0x1c build/pic32mz/production/_ext/1360937237/app.o
                0x0000000080000064                flag10ms
                0x0000000080000068                count10ms
                0x000000008000006c                flag100ms
                0x0000000080000070                count100ms
                0x0000000080000074                latch
                0x0000000080000078                divider
                0x000000008000007c                clkFreq
 .sbss          0x0000000080000080        0xf build/pic32mz/production/_ext/1360937237/communication.o
                0x0000000080000080                testreq
                0x0000000080000084                testsend
                0x0000000080000088                uart6_eofFlag
                0x0000000080000089                uart6_timeoutFlag
                0x000000008000008a                uart6_eof
                0x000000008000008c                uart6_timeout
                0x000000008000008e                rxByte
 *fill*         0x000000008000008f        0x1 
 .sbss          0x0000000080000090        0xc build/pic32mz/production/_ext/1360937237/mdot.o
                0x0000000080000090                resTest
                0x0000000080000094                mDotErrorCount
                0x0000000080000096                mDotSentCount
                0x0000000080000098                mDotTimoutCount
                0x000000008000009a                timeout
 *(.scommon)
                0x000000008000009c                _sbss_end = .
                0x000000008000009c                . = ALIGN (0x4)

.bss            0x000000008000009c        0x0
 *(.dynbss)
 *(COMMON)
                0x000000008000009c                . = ALIGN ((. != 0x0)?0x4:0x1)
                0x000000008000009c                . = ALIGN (0x4)
                0x000000008000009c                _end = .
                0x000000008000009c                _bss_end = .
                0x0000000000080000                _bmxdudba_address = LENGTH (kseg0_data_mem)
                0x0000000000080000                _bmxdupba_address = LENGTH (kseg0_data_mem)

/DISCARD/
 *(.pdr)
 *(.rel.dyn)
 *(.note.GNU-stack)
 *(.note.GNU-stack)
 *(.gnu_debuglink)
 *(.gnu.lto_*)
 *(.discard)

.gptab.sdata
 *(.gptab.data)
 *(.gptab.sdata)

.gptab.sbss
 *(.gptab.bss)
 *(.gptab.sbss)

.mdebug.abi32   0x0000000000000000        0x0
 *(.mdebug.abi32)
 .mdebug.abi32  0x0000000000000000        0x0 build/pic32mz/production/_ext/757013429/drv_sdspi.o
 .mdebug.abi32  0x0000000000000000        0x0 build/pic32mz/production/_ext/757013429/drv_sdspi_driver_interface.o
 .mdebug.abi32  0x0000000000000000        0x0 build/pic32mz/production/_ext/757013429/drv_sdspi_file_system.o
 .mdebug.abi32  0x0000000000000000        0x0 build/pic32mz/production/_ext/2120450970/drv_spi.o
 .mdebug.abi32  0x0000000000000000        0x0 build/pic32mz/production/_ext/1783409726/drv_usbhs.o
 .mdebug.abi32  0x0000000000000000        0x0 build/pic32mz/production/_ext/1783409726/drv_usbhs_device.o
 .mdebug.abi32  0x0000000000000000        0x0 build/pic32mz/production/_ext/1640642171/plib_cache.o
 .mdebug.abi32  0x0000000000000000        0x0 build/pic32mz/production/_ext/10646107/plib_clk.o
 .mdebug.abi32  0x0000000000000000        0x0 build/pic32mz/production/_ext/809018751/plib_coretimer.o
 .mdebug.abi32  0x0000000000000000        0x0 build/pic32mz/production/_ext/330098546/plib_evic.o
 .mdebug.abi32  0x0000000000000000        0x0 build/pic32mz/production/_ext/330152374/plib_gpio.o
 .mdebug.abi32  0x0000000000000000        0x0 build/pic32mz/production/_ext/249272802/plib_i2c2_master.o
 .mdebug.abi32  0x0000000000000000        0x0 build/pic32mz/production/_ext/249272802/plib_i2c4_master.o
 .mdebug.abi32  0x0000000000000000        0x0 build/pic32mz/production/_ext/867254719/plib_spi4_master.o
 .mdebug.abi32  0x0000000000000000        0x0 build/pic32mz/production/_ext/867254719/plib_spi2_master.o
 .mdebug.abi32  0x0000000000000000        0x0 build/pic32mz/production/_ext/867254719/plib_spi1_master.o
 .mdebug.abi32  0x0000000000000000        0x0 build/pic32mz/production/_ext/10662482/plib_tmr2.o
 .mdebug.abi32  0x0000000000000000        0x0 build/pic32mz/production/_ext/330555317/plib_uart5.o
 .mdebug.abi32  0x0000000000000000        0x0 build/pic32mz/production/_ext/330555317/plib_uart6.o
 .mdebug.abi32  0x0000000000000000        0x0 build/pic32mz/production/_ext/330555317/plib_uart3.o
 .mdebug.abi32  0x0000000000000000        0x0 build/pic32mz/production/_ext/330555317/plib_uart4.o
 .mdebug.abi32  0x0000000000000000        0x0 build/pic32mz/production/_ext/330555317/plib_uart1.o
 .mdebug.abi32  0x0000000000000000        0x0 build/pic32mz/production/_ext/330555317/plib_uart2.o
 .mdebug.abi32  0x0000000000000000        0x0 build/pic32mz/production/_ext/1991269565/xc32_monitor.o
 .mdebug.abi32  0x0000000000000000        0x0 build/pic32mz/production/_ext/1519118610/sys_cache.o
 .mdebug.abi32  0x0000000000000000        0x0 build/pic32mz/production/_ext/1373644956/sys_dma.o
 .mdebug.abi32  0x0000000000000000        0x0 build/pic32mz/production/_ext/1192657380/ff.o
 .mdebug.abi32  0x0000000000000000        0x0 build/pic32mz/production/_ext/1192657380/ffunicode.o
 .mdebug.abi32  0x0000000000000000        0x0 build/pic32mz/production/_ext/727274963/diskio.o
 .mdebug.abi32  0x0000000000000000        0x0 build/pic32mz/production/_ext/252936118/sys_fs.o
 .mdebug.abi32  0x0000000000000000        0x0 build/pic32mz/production/_ext/252936118/sys_fs_media_manager.o
 .mdebug.abi32  0x0000000000000000        0x0 build/pic32mz/production/_ext/252936118/sys_fs_fat_interface.o
 .mdebug.abi32  0x0000000000000000        0x0 build/pic32mz/production/_ext/1832149040/sys_int.o
 .mdebug.abi32  0x0000000000000000        0x0 build/pic32mz/production/_ext/1636986698/sys_time.o
 .mdebug.abi32  0x0000000000000000        0x0 build/pic32mz/production/_ext/202551283/usb_device.o
 .mdebug.abi32  0x0000000000000000        0x0 build/pic32mz/production/_ext/202551283/usb_device_cdc.o
 .mdebug.abi32  0x0000000000000000        0x0 build/pic32mz/production/_ext/202551283/usb_device_cdc_acm.o
 .mdebug.abi32  0x0000000000000000        0x0 build/pic32mz/production/_ext/953055421/usb_device_init_data.o
 .mdebug.abi32  0x0000000000000000        0x0 build/pic32mz/production/_ext/953055421/tasks.o
 .mdebug.abi32  0x0000000000000000        0x0 build/pic32mz/production/_ext/953055421/initialization.o
 .mdebug.abi32  0x0000000000000000        0x0 build/pic32mz/production/_ext/953055421/interrupts.o
 .mdebug.abi32  0x0000000000000000        0x0 build/pic32mz/production/_ext/953055421/exceptions.o
 .mdebug.abi32  0x0000000000000000        0x0 build/pic32mz/production/_ext/1360937237/app.o
 .mdebug.abi32  0x0000000000000000        0x0 build/pic32mz/production/_ext/1360937237/main.o
 .mdebug.abi32  0x0000000000000000        0x0 build/pic32mz/production/_ext/1360937237/communication.o
 .mdebug.abi32  0x0000000000000000        0x0 build/pic32mz/production/_ext/1360937237/mdot.o
 .mdebug.abi32  0x0000000000000000        0x0 build/pic32mz/production/_ext/1360937237/stringbuffer.o
 .mdebug.abi32  0x0000000000000000        0x0 c:/program files/microchip/xc32/v3.00/bin/bin/../../lib/gcc/pic32mx/8.3.1/fpu64\libgcc.a(_udivdi3.o)
 .mdebug.abi32  0x0000000000000000        0x0 c:/program files/microchip/xc32/v3.00/bin/bin/../../lib/gcc/pic32mx/8.3.1/../../../../pic32mx/lib/fpu64\libpic32.a(default-on-reset.o)
 .mdebug.abi32  0x0000000000000000        0x0 c:/program files/microchip/xc32/v3.00/bin/bin/../../lib/gcc/pic32mx/8.3.1/../../../../pic32mx/lib/fpu64\libpic32.a(default-on-bootstrap.o)
 .mdebug.abi32  0x0000000000000000        0x0 c:/program files/microchip/xc32/v3.00/bin/bin/../../lib/gcc/pic32mx/8.3.1/../../../../pic32mx/lib/fpu64\libpic32.a(defaultinterrupt.o)
 .mdebug.abi32  0x0000000000000000        0x0 c:/program files/microchip/xc32/v3.00/bin/bin/../../lib/gcc/pic32mx/8.3.1/../../../../pic32mx/lib/fpu64\libc.a(_iob.o)
 .mdebug.abi32  0x0000000000000000        0x0 c:/program files/microchip/xc32/v3.00/bin/bin/../../lib/gcc/pic32mx/8.3.1/../../../../pic32mx/lib/fpu64\libc.a(memmove.o)
 .mdebug.abi32  0x0000000000000000        0x0 c:/program files/microchip/xc32/v3.00/bin/bin/../../lib/gcc/pic32mx/8.3.1/../../../../pic32mx/lib/fpu64\libc.a(setbuf.o)
 .mdebug.abi32  0x0000000000000000        0x0 c:/program files/microchip/xc32/v3.00/bin/bin/../../lib/gcc/pic32mx/8.3.1/../../../../pic32mx/lib/fpu64\libc.a(strncmp.o)
 .mdebug.abi32  0x0000000000000000        0x0 c:/program files/microchip/xc32/v3.00/bin/bin/../../lib/gcc/pic32mx/8.3.1/../../../../pic32mx/lib/fpu64\libc.a(strncpy.o)
 .mdebug.abi32  0x0000000000000000        0x0 c:/program files/microchip/xc32/v3.00/bin/bin/../../lib/gcc/pic32mx/8.3.1/../../../../pic32mx/lib/fpu64\libc.a(sprintf_cdnopsuxX.eo)
 .mdebug.abi32  0x0000000000000000        0x0 c:/program files/microchip/xc32/v3.00/bin/bin/../../lib/gcc/pic32mx/8.3.1/../../../../pic32mx/lib/fpu64\libc.a(buf.o)
 .mdebug.abi32  0x0000000000000000        0x0 c:/program files/microchip/xc32/v3.00/bin/bin/../../lib/gcc/pic32mx/8.3.1/../../../../pic32mx/lib/fpu64\libc.a(errno.o)
 .mdebug.abi32  0x0000000000000000        0x0 c:/program files/microchip/xc32/v3.00/bin/bin/../../lib/gcc/pic32mx/8.3.1/../../../../pic32mx/lib/fpu64\libc.a(doprnt_cdnopsuxX.eo)
 .mdebug.abi32  0x0000000000000000        0x0 c:/program files/microchip/xc32/v3.00/bin/bin/../../lib/gcc/pic32mx/8.3.1/../../../../pic32mx/lib/fpu64\libc.a(_fputc_simple.o)
 .mdebug.abi32  0x0000000000000000        0x0 c:/program files/microchip/xc32/v3.00/bin/bin/../../lib/gcc/pic32mx/8.3.1/../../../../pic32mx/lib/fpu64\libc.a(ctype.o)
 .mdebug.abi32  0x0000000000000000        0x0 c:/program files/microchip/xc32/v3.00/bin/bin/../../lib/gcc/pic32mx/8.3.1/../../../../pic32mx/lib/fpu64\libc.a(_flsbuf_simple.o)
 .mdebug.abi32  0x0000000000000000        0x0 c:/program files/microchip/xc32/v3.00/bin/bin/../../lib/gcc/pic32mx/8.3.1/fpu64\libgcc.a(_lshrdi3.o)
 .mdebug.abi32  0x0000000000000000        0x0 c:/program files/microchip/xc32/v3.00/bin/bin/../../lib/gcc/pic32mx/8.3.1/fpu64\libgcc.a(_umoddi3.o)
 .mdebug.abi32  0x0000000000000000        0x0 c:/program files/microchip/xc32/v3.00/bin/bin/../../lib/gcc/pic32mx/8.3.1/../../../../pic32mx/lib/fpu64\libpic32.a(sbrk.o)
 .mdebug.abi32  0x0000000000000000        0x0 c:/program files/microchip/xc32/v3.00/bin/bin/../../lib/gcc/pic32mx/8.3.1/../../../../pic32mx/lib/fpu64\libpic32.a(write.o)

.mdebug.abiN32
 *(.mdebug.abiN32)

.mdebug.abi64
 *(.mdebug.abi64)

.mdebug.abiO64
 *(.mdebug.abiO64)

.mdebug.eabi32
 *(.mdebug.eabi32)

.mdebug.eabi64
 *(.mdebug.eabi64)

.gcc_compiled_long32
 *(.gcc_compiled_long32)

.gcc_compiled_long64
 *(.gcc_compiled_long64)

.stab
 *(.stab)

.stabstr
 *(.stabstr)

.stab.excl
 *(.stab.excl)

.stab.exclstr
 *(.stab.exclstr)

.stab.index
 *(.stab.index)

.stab.indexstr
 *(.stab.indexstr)

.comment        0x0000000000000000      0x14e
 *(.comment)
 .comment       0x0000000000000000       0x53 build/pic32mz/production/_ext/757013429/drv_sdspi.o
                                         0x54 (size before relaxing)
 .comment       0x0000000000000053       0x54 build/pic32mz/production/_ext/757013429/drv_sdspi_driver_interface.o
 .comment       0x0000000000000053       0x54 build/pic32mz/production/_ext/757013429/drv_sdspi_file_system.o
 .comment       0x0000000000000053       0x54 build/pic32mz/production/_ext/2120450970/drv_spi.o
 .comment       0x0000000000000053       0x54 build/pic32mz/production/_ext/1783409726/drv_usbhs.o
 .comment       0x0000000000000053       0x54 build/pic32mz/production/_ext/1783409726/drv_usbhs_device.o
 .comment       0x0000000000000053       0x54 build/pic32mz/production/_ext/1640642171/plib_cache.o
 .comment       0x0000000000000053       0x54 build/pic32mz/production/_ext/10646107/plib_clk.o
 .comment       0x0000000000000053       0x54 build/pic32mz/production/_ext/809018751/plib_coretimer.o
 .comment       0x0000000000000053       0x54 build/pic32mz/production/_ext/330098546/plib_evic.o
 .comment       0x0000000000000053       0x54 build/pic32mz/production/_ext/330152374/plib_gpio.o
 .comment       0x0000000000000053       0x54 build/pic32mz/production/_ext/249272802/plib_i2c2_master.o
 .comment       0x0000000000000053       0x54 build/pic32mz/production/_ext/249272802/plib_i2c4_master.o
 .comment       0x0000000000000053       0x54 build/pic32mz/production/_ext/867254719/plib_spi4_master.o
 .comment       0x0000000000000053       0x54 build/pic32mz/production/_ext/867254719/plib_spi2_master.o
 .comment       0x0000000000000053       0x54 build/pic32mz/production/_ext/867254719/plib_spi1_master.o
 .comment       0x0000000000000053       0x54 build/pic32mz/production/_ext/10662482/plib_tmr2.o
 .comment       0x0000000000000053       0x54 build/pic32mz/production/_ext/330555317/plib_uart5.o
 .comment       0x0000000000000053       0x54 build/pic32mz/production/_ext/330555317/plib_uart6.o
 .comment       0x0000000000000053       0x54 build/pic32mz/production/_ext/330555317/plib_uart3.o
 .comment       0x0000000000000053       0x54 build/pic32mz/production/_ext/330555317/plib_uart4.o
 .comment       0x0000000000000053       0x54 build/pic32mz/production/_ext/330555317/plib_uart1.o
 .comment       0x0000000000000053       0x54 build/pic32mz/production/_ext/330555317/plib_uart2.o
 .comment       0x0000000000000053       0x54 build/pic32mz/production/_ext/1991269565/xc32_monitor.o
 .comment       0x0000000000000053       0x54 build/pic32mz/production/_ext/1519118610/sys_cache.o
 .comment       0x0000000000000053       0x54 build/pic32mz/production/_ext/1373644956/sys_dma.o
 .comment       0x0000000000000053       0x54 build/pic32mz/production/_ext/1192657380/ff.o
 .comment       0x0000000000000053       0x54 build/pic32mz/production/_ext/1192657380/ffunicode.o
 .comment       0x0000000000000053       0x54 build/pic32mz/production/_ext/727274963/diskio.o
 .comment       0x0000000000000053       0x54 build/pic32mz/production/_ext/252936118/sys_fs.o
 .comment       0x0000000000000053       0x54 build/pic32mz/production/_ext/252936118/sys_fs_media_manager.o
 .comment       0x0000000000000053       0x54 build/pic32mz/production/_ext/252936118/sys_fs_fat_interface.o
 .comment       0x0000000000000053       0x54 build/pic32mz/production/_ext/1832149040/sys_int.o
 .comment       0x0000000000000053       0x54 build/pic32mz/production/_ext/1636986698/sys_time.o
 .comment       0x0000000000000053       0x54 build/pic32mz/production/_ext/202551283/usb_device.o
 .comment       0x0000000000000053       0x54 build/pic32mz/production/_ext/202551283/usb_device_cdc.o
 .comment       0x0000000000000053       0x54 build/pic32mz/production/_ext/202551283/usb_device_cdc_acm.o
 .comment       0x0000000000000053       0x54 build/pic32mz/production/_ext/953055421/usb_device_init_data.o
 .comment       0x0000000000000053       0x54 build/pic32mz/production/_ext/953055421/tasks.o
 .comment       0x0000000000000053       0x54 build/pic32mz/production/_ext/953055421/initialization.o
 .comment       0x0000000000000053       0x54 build/pic32mz/production/_ext/953055421/interrupts.o
 .comment       0x0000000000000053       0x54 build/pic32mz/production/_ext/953055421/exceptions.o
 .comment       0x0000000000000053       0x54 build/pic32mz/production/_ext/1360937237/app.o
 .comment       0x0000000000000053       0x54 build/pic32mz/production/_ext/1360937237/main.o
 .comment       0x0000000000000053       0x54 build/pic32mz/production/_ext/1360937237/communication.o
 .comment       0x0000000000000053       0x54 build/pic32mz/production/_ext/1360937237/mdot.o
 .comment       0x0000000000000053       0x54 build/pic32mz/production/_ext/1360937237/stringbuffer.o
 .comment       0x0000000000000053       0x54 c:/program files/microchip/xc32/v3.00/bin/bin/../../lib/gcc/pic32mx/8.3.1/fpu64\libgcc.a(_udivdi3.o)
 .comment       0x0000000000000053       0x18 c:/program files/microchip/xc32/v3.00/bin/bin/../../lib/gcc/pic32mx/8.3.1/../../../../pic32mx/lib/fpu64\libpic32.a(memcmp.o)
                                         0x19 (size before relaxing)
 .comment       0x000000000000006b       0x18 c:/program files/microchip/xc32/v3.00/bin/bin/../../lib/gcc/pic32mx/8.3.1/../../../../pic32mx/lib/fpu64\libpic32.a(memset.o)
                                         0x19 (size before relaxing)
 .comment       0x0000000000000083       0x19 c:/program files/microchip/xc32/v3.00/bin/bin/../../lib/gcc/pic32mx/8.3.1/../../../../pic32mx/lib/fpu64\libpic32.a(strcpy.o)
                                         0x1a (size before relaxing)
 .comment       0x000000000000009c       0x19 c:/program files/microchip/xc32/v3.00/bin/bin/../../lib/gcc/pic32mx/8.3.1/../../../../pic32mx/lib/fpu64\libpic32.a(strlen.o)
                                         0x1a (size before relaxing)
 .comment       0x00000000000000b5       0x54 c:/program files/microchip/xc32/v3.00/bin/bin/../../lib/gcc/pic32mx/8.3.1/../../../../pic32mx/lib/fpu64\libpic32.a(default-on-reset.o)
 .comment       0x00000000000000b5       0x54 c:/program files/microchip/xc32/v3.00/bin/bin/../../lib/gcc/pic32mx/8.3.1/../../../../pic32mx/lib/fpu64\libpic32.a(default-on-bootstrap.o)
 .comment       0x00000000000000b5       0x54 c:/program files/microchip/xc32/v3.00/bin/bin/../../lib/gcc/pic32mx/8.3.1/../../../../pic32mx/lib/fpu64\libpic32.a(defaultinterrupt.o)
 .comment       0x00000000000000b5       0x54 c:/program files/microchip/xc32/v3.00/bin/bin/../../lib/gcc/pic32mx/8.3.1/../../../../pic32mx/lib/fpu64\libc.a(_iob.o)
 .comment       0x00000000000000b5       0x54 c:/program files/microchip/xc32/v3.00/bin/bin/../../lib/gcc/pic32mx/8.3.1/../../../../pic32mx/lib/fpu64\libc.a(memmove.o)
 .comment       0x00000000000000b5       0x54 c:/program files/microchip/xc32/v3.00/bin/bin/../../lib/gcc/pic32mx/8.3.1/../../../../pic32mx/lib/fpu64\libc.a(setbuf.o)
 .comment       0x00000000000000b5       0x54 c:/program files/microchip/xc32/v3.00/bin/bin/../../lib/gcc/pic32mx/8.3.1/../../../../pic32mx/lib/fpu64\libc.a(strncmp.o)
 .comment       0x00000000000000b5       0x54 c:/program files/microchip/xc32/v3.00/bin/bin/../../lib/gcc/pic32mx/8.3.1/../../../../pic32mx/lib/fpu64\libc.a(strncpy.o)
 .comment       0x00000000000000b5       0x54 c:/program files/microchip/xc32/v3.00/bin/bin/../../lib/gcc/pic32mx/8.3.1/../../../../pic32mx/lib/fpu64\libc.a(sprintf_cdnopsuxX.eo)
 .comment       0x00000000000000b5       0x54 c:/program files/microchip/xc32/v3.00/bin/bin/../../lib/gcc/pic32mx/8.3.1/../../../../pic32mx/lib/fpu64\libc.a(buf.o)
 .comment       0x00000000000000b5       0x54 c:/program files/microchip/xc32/v3.00/bin/bin/../../lib/gcc/pic32mx/8.3.1/../../../../pic32mx/lib/fpu64\libc.a(errno.o)
 .comment       0x00000000000000b5       0x54 c:/program files/microchip/xc32/v3.00/bin/bin/../../lib/gcc/pic32mx/8.3.1/../../../../pic32mx/lib/fpu64\libc.a(doprnt_cdnopsuxX.eo)
 .comment       0x00000000000000b5       0x54 c:/program files/microchip/xc32/v3.00/bin/bin/../../lib/gcc/pic32mx/8.3.1/../../../../pic32mx/lib/fpu64\libc.a(_fputc_simple.o)
 .comment       0x00000000000000b5       0x4e c:/program files/microchip/xc32/v3.00/bin/bin/../../lib/gcc/pic32mx/8.3.1/../../../../pic32mx/lib/fpu64\libc.a(ctype.o)
                                         0xa2 (size before relaxing)
 .comment       0x0000000000000103       0x54 c:/program files/microchip/xc32/v3.00/bin/bin/../../lib/gcc/pic32mx/8.3.1/../../../../pic32mx/lib/fpu64\libc.a(_flsbuf_simple.o)
 .comment       0x0000000000000103       0x54 c:/program files/microchip/xc32/v3.00/bin/bin/../../lib/gcc/pic32mx/8.3.1/fpu64\libgcc.a(_lshrdi3.o)
 .comment       0x0000000000000103       0x54 c:/program files/microchip/xc32/v3.00/bin/bin/../../lib/gcc/pic32mx/8.3.1/fpu64\libgcc.a(_umoddi3.o)
 .comment       0x0000000000000103       0x4b c:/program files/microchip/xc32/v3.00/bin/bin/../../lib/gcc/pic32mx/8.3.1/../../../../pic32mx/lib/fpu64\libpic32.a(sbrk.o)
                                         0x9f (size before relaxing)
 .comment       0x000000000000014e       0x54 c:/program files/microchip/xc32/v3.00/bin/bin/../../lib/gcc/pic32mx/8.3.1/../../../../pic32mx/lib/fpu64\libpic32.a(write.o)

.debug
 *.elf(.debug)
 *(.debug)

.line
 *.elf(.line)
 *(.line)

.debug_srcinfo
 *.elf(.debug_srcinfo)
 *(.debug_srcinfo)

.debug_sfnames
 *.elf(.debug_sfnames)
 *(.debug_sfnames)

.debug_aranges  0x0000000000000000     0x1ba0
 *.elf(.debug_aranges)
 *(.debug_aranges)
 .debug_aranges
                0x0000000000000000       0x98 build/pic32mz/production/_ext/757013429/drv_sdspi.o
 .debug_aranges
                0x0000000000000098       0x78 build/pic32mz/production/_ext/757013429/drv_sdspi_driver_interface.o
 .debug_aranges
                0x0000000000000110       0x20 build/pic32mz/production/_ext/757013429/drv_sdspi_file_system.o
 .debug_aranges
                0x0000000000000130       0x98 build/pic32mz/production/_ext/2120450970/drv_spi.o
 .debug_aranges
                0x00000000000001c8       0x70 build/pic32mz/production/_ext/1783409726/drv_usbhs.o
 .debug_aranges
                0x0000000000000238      0x100 build/pic32mz/production/_ext/1783409726/drv_usbhs_device.o
 .debug_aranges
                0x0000000000000338       0xc0 build/pic32mz/production/_ext/1640642171/plib_cache.o
 .debug_aranges
                0x00000000000003f8       0x20 build/pic32mz/production/_ext/1640642171/plib_cache_pic32mz.o
 .debug_aranges
                0x0000000000000418       0x20 build/pic32mz/production/_ext/10646107/plib_clk.o
 .debug_aranges
                0x0000000000000438       0x68 build/pic32mz/production/_ext/809018751/plib_coretimer.o
 .debug_aranges
                0x00000000000004a0       0x68 build/pic32mz/production/_ext/330098546/plib_evic.o
 .debug_aranges
                0x0000000000000508       0x90 build/pic32mz/production/_ext/330152374/plib_gpio.o
 .debug_aranges
                0x0000000000000598       0x68 build/pic32mz/production/_ext/249272802/plib_i2c2_master.o
 .debug_aranges
                0x0000000000000600       0x68 build/pic32mz/production/_ext/249272802/plib_i2c4_master.o
 .debug_aranges
                0x0000000000000668       0x68 build/pic32mz/production/_ext/867254719/plib_spi4_master.o
 .debug_aranges
                0x00000000000006d0       0x68 build/pic32mz/production/_ext/867254719/plib_spi2_master.o
 .debug_aranges
                0x0000000000000738       0x68 build/pic32mz/production/_ext/867254719/plib_spi1_master.o
 .debug_aranges
                0x00000000000007a0       0x70 build/pic32mz/production/_ext/10662482/plib_tmr2.o
 .debug_aranges
                0x0000000000000810       0x80 build/pic32mz/production/_ext/330555317/plib_uart5.o
 .debug_aranges
                0x0000000000000890       0xa8 build/pic32mz/production/_ext/330555317/plib_uart6.o
 .debug_aranges
                0x0000000000000938       0xa8 build/pic32mz/production/_ext/330555317/plib_uart3.o
 .debug_aranges
                0x00000000000009e0       0xa8 build/pic32mz/production/_ext/330555317/plib_uart4.o
 .debug_aranges
                0x0000000000000a88       0xa8 build/pic32mz/production/_ext/330555317/plib_uart1.o
 .debug_aranges
                0x0000000000000b30       0xa8 build/pic32mz/production/_ext/330555317/plib_uart2.o
 .debug_aranges
                0x0000000000000bd8       0x28 build/pic32mz/production/_ext/1991269565/xc32_monitor.o
 .debug_aranges
                0x0000000000000c00       0x80 build/pic32mz/production/_ext/1519118610/sys_cache.o
 .debug_aranges
                0x0000000000000c80       0x30 build/pic32mz/production/_ext/1373644956/sys_dma.o
 .debug_aranges
                0x0000000000000cb0      0x220 build/pic32mz/production/_ext/1192657380/ff.o
 .debug_aranges
                0x0000000000000ed0       0x30 build/pic32mz/production/_ext/1192657380/ffunicode.o
 .debug_aranges
                0x0000000000000f00       0x60 build/pic32mz/production/_ext/727274963/diskio.o
 .debug_aranges
                0x0000000000000f60      0x170 build/pic32mz/production/_ext/252936118/sys_fs.o
 .debug_aranges
                0x00000000000010d0       0x98 build/pic32mz/production/_ext/252936118/sys_fs_media_manager.o
 .debug_aranges
                0x0000000000001168      0x130 build/pic32mz/production/_ext/252936118/sys_fs_fat_interface.o
 .debug_aranges
                0x0000000000001298       0x40 build/pic32mz/production/_ext/1832149040/sys_int.o
 .debug_aranges
                0x00000000000012d8      0x130 build/pic32mz/production/_ext/1636986698/sys_time.o
 .debug_aranges
                0x0000000000001408      0x1a0 build/pic32mz/production/_ext/202551283/usb_device.o
 .debug_aranges
                0x00000000000015a8       0x88 build/pic32mz/production/_ext/202551283/usb_device_cdc.o
 .debug_aranges
                0x0000000000001630       0x20 build/pic32mz/production/_ext/202551283/usb_device_cdc_acm.o
 .debug_aranges
                0x0000000000001650       0x18 build/pic32mz/production/_ext/953055421/usb_device_init_data.o
 .debug_aranges
                0x0000000000001668       0x20 build/pic32mz/production/_ext/953055421/tasks.o
 .debug_aranges
                0x0000000000001688       0x20 build/pic32mz/production/_ext/953055421/initialization.o
 .debug_aranges
                0x00000000000016a8      0x108 build/pic32mz/production/_ext/953055421/interrupts.o
 .debug_aranges
                0x00000000000017b0       0x38 build/pic32mz/production/_ext/953055421/exceptions.o
 .debug_aranges
                0x00000000000017e8       0x38 build/pic32mz/production/_ext/1360937237/app.o
 .debug_aranges
                0x0000000000001820       0x20 build/pic32mz/production/_ext/1360937237/main.o
 .debug_aranges
                0x0000000000001840       0x70 build/pic32mz/production/_ext/1360937237/communication.o
 .debug_aranges
                0x00000000000018b0       0x68 build/pic32mz/production/_ext/1360937237/mdot.o
 .debug_aranges
                0x0000000000001918       0x38 build/pic32mz/production/_ext/1360937237/stringbuffer.o
 .debug_aranges
                0x0000000000001950       0x20 c:/program files/microchip/xc32/v3.00/bin/bin/../../lib/gcc/pic32mx/8.3.1/fpu64\libgcc.a(_udivdi3.o)
 .debug_aranges
                0x0000000000001970       0x20 c:/program files/microchip/xc32/v3.00/bin/bin/../../lib/gcc/pic32mx/8.3.1/../../../../pic32mx/lib/fpu64\libpic32.a(default-on-reset.o)
 .debug_aranges
                0x0000000000001990       0x20 c:/program files/microchip/xc32/v3.00/bin/bin/../../lib/gcc/pic32mx/8.3.1/../../../../pic32mx/lib/fpu64\libpic32.a(default-on-bootstrap.o)
 .debug_aranges
                0x00000000000019b0       0x20 c:/program files/microchip/xc32/v3.00/bin/bin/../../lib/gcc/pic32mx/8.3.1/../../../../pic32mx/lib/fpu64\libpic32.a(defaultinterrupt.o)
 .debug_aranges
                0x00000000000019d0       0x20 c:/program files/microchip/xc32/v3.00/bin/bin/../../lib/gcc/pic32mx/8.3.1/../../../../pic32mx/lib/fpu64\libc.a(memmove.o)
 .debug_aranges
                0x00000000000019f0       0x28 c:/program files/microchip/xc32/v3.00/bin/bin/../../lib/gcc/pic32mx/8.3.1/../../../../pic32mx/lib/fpu64\libc.a(setbuf.o)
 .debug_aranges
                0x0000000000001a18       0x20 c:/program files/microchip/xc32/v3.00/bin/bin/../../lib/gcc/pic32mx/8.3.1/../../../../pic32mx/lib/fpu64\libc.a(strncmp.o)
 .debug_aranges
                0x0000000000001a38       0x20 c:/program files/microchip/xc32/v3.00/bin/bin/../../lib/gcc/pic32mx/8.3.1/../../../../pic32mx/lib/fpu64\libc.a(strncpy.o)
 .debug_aranges
                0x0000000000001a58       0x20 c:/program files/microchip/xc32/v3.00/bin/bin/../../lib/gcc/pic32mx/8.3.1/../../../../pic32mx/lib/fpu64\libc.a(sprintf_cdnopsuxX.eo)
 .debug_aranges
                0x0000000000001a78       0x28 c:/program files/microchip/xc32/v3.00/bin/bin/../../lib/gcc/pic32mx/8.3.1/../../../../pic32mx/lib/fpu64\libc.a(buf.o)
 .debug_aranges
                0x0000000000001aa0       0x20 c:/program files/microchip/xc32/v3.00/bin/bin/../../lib/gcc/pic32mx/8.3.1/../../../../pic32mx/lib/fpu64\libc.a(doprnt_cdnopsuxX.eo)
 .debug_aranges
                0x0000000000001ac0       0x20 c:/program files/microchip/xc32/v3.00/bin/bin/../../lib/gcc/pic32mx/8.3.1/../../../../pic32mx/lib/fpu64\libc.a(_fputc_simple.o)
 .debug_aranges
                0x0000000000001ae0       0x20 c:/program files/microchip/xc32/v3.00/bin/bin/../../lib/gcc/pic32mx/8.3.1/../../../../pic32mx/lib/fpu64\libc.a(_flsbuf_simple.o)
 .debug_aranges
                0x0000000000001b00       0x20 c:/program files/microchip/xc32/v3.00/bin/bin/../../lib/gcc/pic32mx/8.3.1/fpu64\libgcc.a(_lshrdi3.o)
 .debug_aranges
                0x0000000000001b20       0x20 c:/program files/microchip/xc32/v3.00/bin/bin/../../lib/gcc/pic32mx/8.3.1/fpu64\libgcc.a(_umoddi3.o)
 .debug_aranges
                0x0000000000001b40       0x40 c:/program files/microchip/xc32/v3.00/bin/bin/../../lib/gcc/pic32mx/8.3.1/../../../../pic32mx/lib/fpu64\libpic32.a(sbrk.o)
 .debug_aranges
                0x0000000000001b80       0x20 c:/program files/microchip/xc32/v3.00/bin/bin/../../lib/gcc/pic32mx/8.3.1/../../../../pic32mx/lib/fpu64\libpic32.a(write.o)

.debug_pubnames
 *.elf(.debug_pubnames)
 *(.debug_pubnames)

.debug_info     0x0000000000000000   0xc4fdb5
 *.elf(.debug_info .gnu.linkonce.wi.*)
 *(.debug_info .gnu.linkonce.wi.*)
 .debug_info    0x0000000000000000    0x47b9b build/pic32mz/production/_ext/757013429/drv_sdspi.o
 .debug_info    0x0000000000047b9b    0x46129 build/pic32mz/production/_ext/757013429/drv_sdspi_driver_interface.o
 .debug_info    0x000000000008dcc4    0x44b2d build/pic32mz/production/_ext/757013429/drv_sdspi_file_system.o
 .debug_info    0x00000000000d27f1    0x46f8c build/pic32mz/production/_ext/2120450970/drv_spi.o
 .debug_info    0x000000000011977d    0x490b8 build/pic32mz/production/_ext/1783409726/drv_usbhs.o
 .debug_info    0x0000000000162835    0x4e1df build/pic32mz/production/_ext/1783409726/drv_usbhs_device.o
 .debug_info    0x00000000001b0a14    0x44c57 build/pic32mz/production/_ext/1640642171/plib_cache.o
 .debug_info    0x00000000001f566b       0x26 build/pic32mz/production/_ext/1640642171/plib_cache_pic32mz.o
 .debug_info    0x00000000001f5691    0x44660 build/pic32mz/production/_ext/10646107/plib_clk.o
 .debug_info    0x0000000000239cf1    0x44883 build/pic32mz/production/_ext/809018751/plib_coretimer.o
 .debug_info    0x000000000027e574    0x44d6a build/pic32mz/production/_ext/330098546/plib_evic.o
 .debug_info    0x00000000002c32de    0x44eb7 build/pic32mz/production/_ext/330152374/plib_gpio.o
 .debug_info    0x0000000000308195    0x44acc build/pic32mz/production/_ext/249272802/plib_i2c2_master.o
 .debug_info    0x000000000034cc61    0x44acc build/pic32mz/production/_ext/249272802/plib_i2c4_master.o
 .debug_info    0x000000000039172d    0x44b32 build/pic32mz/production/_ext/867254719/plib_spi4_master.o
 .debug_info    0x00000000003d625f    0x44b32 build/pic32mz/production/_ext/867254719/plib_spi2_master.o
 .debug_info    0x000000000041ad91    0x44b32 build/pic32mz/production/_ext/867254719/plib_spi1_master.o
 .debug_info    0x000000000045f8c3    0x4480c build/pic32mz/production/_ext/10662482/plib_tmr2.o
 .debug_info    0x00000000004a40cf    0x44b39 build/pic32mz/production/_ext/330555317/plib_uart5.o
 .debug_info    0x00000000004e8c08    0x44c72 build/pic32mz/production/_ext/330555317/plib_uart6.o
 .debug_info    0x000000000052d87a    0x44c72 build/pic32mz/production/_ext/330555317/plib_uart3.o
 .debug_info    0x00000000005724ec    0x44c72 build/pic32mz/production/_ext/330555317/plib_uart4.o
 .debug_info    0x00000000005b715e    0x44c72 build/pic32mz/production/_ext/330555317/plib_uart1.o
 .debug_info    0x00000000005fbdd0    0x44c72 build/pic32mz/production/_ext/330555317/plib_uart2.o
 .debug_info    0x0000000000640a42    0x462ca build/pic32mz/production/_ext/1991269565/xc32_monitor.o
 .debug_info    0x0000000000686d0c    0x44972 build/pic32mz/production/_ext/1519118610/sys_cache.o
 .debug_info    0x00000000006cb67e      0x22d build/pic32mz/production/_ext/1373644956/sys_dma.o
 .debug_info    0x00000000006cb8ab    0x4a8a0 build/pic32mz/production/_ext/1192657380/ff.o
 .debug_info    0x000000000071614b    0x448c2 build/pic32mz/production/_ext/1192657380/ffunicode.o
 .debug_info    0x000000000075aa0d    0x4507a build/pic32mz/production/_ext/727274963/diskio.o
 .debug_info    0x000000000079fa87    0x481a5 build/pic32mz/production/_ext/252936118/sys_fs.o
 .debug_info    0x00000000007e7c2c    0x45d79 build/pic32mz/production/_ext/252936118/sys_fs_media_manager.o
 .debug_info    0x000000000082d9a5    0x462d6 build/pic32mz/production/_ext/252936118/sys_fs_fat_interface.o
 .debug_info    0x0000000000873c7b    0x44d1d build/pic32mz/production/_ext/1832149040/sys_int.o
 .debug_info    0x00000000008b8998    0x46790 build/pic32mz/production/_ext/1636986698/sys_time.o
 .debug_info    0x00000000008ff128    0x48410 build/pic32mz/production/_ext/202551283/usb_device.o
 .debug_info    0x0000000000947538    0x4660f build/pic32mz/production/_ext/202551283/usb_device_cdc.o
 .debug_info    0x000000000098db47    0x45191 build/pic32mz/production/_ext/202551283/usb_device_cdc_acm.o
 .debug_info    0x00000000009d2cd8    0x466cb build/pic32mz/production/_ext/953055421/usb_device_init_data.o
 .debug_info    0x0000000000a193a3    0x46282 build/pic32mz/production/_ext/953055421/tasks.o
 .debug_info    0x0000000000a5f625    0x47d4a build/pic32mz/production/_ext/953055421/initialization.o
 .debug_info    0x0000000000aa736f    0x467af build/pic32mz/production/_ext/953055421/interrupts.o
 .debug_info    0x0000000000aedb1e    0x463b4 build/pic32mz/production/_ext/953055421/exceptions.o
 .debug_info    0x0000000000b33ed2    0x46826 build/pic32mz/production/_ext/1360937237/app.o
 .debug_info    0x0000000000b7a6f8    0x46247 build/pic32mz/production/_ext/1360937237/main.o
 .debug_info    0x0000000000bc093f    0x46739 build/pic32mz/production/_ext/1360937237/communication.o
 .debug_info    0x0000000000c07078    0x47045 build/pic32mz/production/_ext/1360937237/mdot.o
 .debug_info    0x0000000000c4e0bd      0x475 build/pic32mz/production/_ext/1360937237/stringbuffer.o
 .debug_info    0x0000000000c4e532      0x85c c:/program files/microchip/xc32/v3.00/bin/bin/../../lib/gcc/pic32mx/8.3.1/fpu64\libgcc.a(_udivdi3.o)
 .debug_info    0x0000000000c4ed8e       0x3f c:/program files/microchip/xc32/v3.00/bin/bin/../../lib/gcc/pic32mx/8.3.1/../../../../pic32mx/lib/fpu64\libpic32.a(default-on-reset.o)
 .debug_info    0x0000000000c4edcd       0x3f c:/program files/microchip/xc32/v3.00/bin/bin/../../lib/gcc/pic32mx/8.3.1/../../../../pic32mx/lib/fpu64\libpic32.a(default-on-bootstrap.o)
 .debug_info    0x0000000000c4ee0c       0x40 c:/program files/microchip/xc32/v3.00/bin/bin/../../lib/gcc/pic32mx/8.3.1/../../../../pic32mx/lib/fpu64\libpic32.a(defaultinterrupt.o)
 .debug_info    0x0000000000c4ee4c       0x3e c:/program files/microchip/xc32/v3.00/bin/bin/../../lib/gcc/pic32mx/8.3.1/../../../../pic32mx/lib/fpu64\libc.a(memmove.o)
 .debug_info    0x0000000000c4ee8a       0x52 c:/program files/microchip/xc32/v3.00/bin/bin/../../lib/gcc/pic32mx/8.3.1/../../../../pic32mx/lib/fpu64\libc.a(setbuf.o)
 .debug_info    0x0000000000c4eedc       0x3e c:/program files/microchip/xc32/v3.00/bin/bin/../../lib/gcc/pic32mx/8.3.1/../../../../pic32mx/lib/fpu64\libc.a(strncmp.o)
 .debug_info    0x0000000000c4ef1a       0x3e c:/program files/microchip/xc32/v3.00/bin/bin/../../lib/gcc/pic32mx/8.3.1/../../../../pic32mx/lib/fpu64\libc.a(strncpy.o)
 .debug_info    0x0000000000c4ef58       0x3e c:/program files/microchip/xc32/v3.00/bin/bin/../../lib/gcc/pic32mx/8.3.1/../../../../pic32mx/lib/fpu64\libc.a(sprintf_cdnopsuxX.eo)
 .debug_info    0x0000000000c4ef96       0x5c c:/program files/microchip/xc32/v3.00/bin/bin/../../lib/gcc/pic32mx/8.3.1/../../../../pic32mx/lib/fpu64\libc.a(buf.o)
 .debug_info    0x0000000000c4eff2       0x3f c:/program files/microchip/xc32/v3.00/bin/bin/../../lib/gcc/pic32mx/8.3.1/../../../../pic32mx/lib/fpu64\libc.a(doprnt_cdnopsuxX.eo)
 .debug_info    0x0000000000c4f031       0x48 c:/program files/microchip/xc32/v3.00/bin/bin/../../lib/gcc/pic32mx/8.3.1/../../../../pic32mx/lib/fpu64\libc.a(_fputc_simple.o)
 .debug_info    0x0000000000c4f079       0x3e c:/program files/microchip/xc32/v3.00/bin/bin/../../lib/gcc/pic32mx/8.3.1/../../../../pic32mx/lib/fpu64\libc.a(_flsbuf_simple.o)
 .debug_info    0x0000000000c4f0b7      0x33c c:/program files/microchip/xc32/v3.00/bin/bin/../../lib/gcc/pic32mx/8.3.1/fpu64\libgcc.a(_lshrdi3.o)
 .debug_info    0x0000000000c4f3f3      0x8d4 c:/program files/microchip/xc32/v3.00/bin/bin/../../lib/gcc/pic32mx/8.3.1/fpu64\libgcc.a(_umoddi3.o)
 .debug_info    0x0000000000c4fcc7       0xae c:/program files/microchip/xc32/v3.00/bin/bin/../../lib/gcc/pic32mx/8.3.1/../../../../pic32mx/lib/fpu64\libpic32.a(sbrk.o)
 .debug_info    0x0000000000c4fd75       0x40 c:/program files/microchip/xc32/v3.00/bin/bin/../../lib/gcc/pic32mx/8.3.1/../../../../pic32mx/lib/fpu64\libpic32.a(write.o)

.debug_abbrev   0x0000000000000000     0xa3ea
 *.elf(.debug_abbrev)
 *(.debug_abbrev)
 .debug_abbrev  0x0000000000000000      0x55b build/pic32mz/production/_ext/757013429/drv_sdspi.o
 .debug_abbrev  0x000000000000055b      0x391 build/pic32mz/production/_ext/757013429/drv_sdspi_driver_interface.o
 .debug_abbrev  0x00000000000008ec      0x254 build/pic32mz/production/_ext/757013429/drv_sdspi_file_system.o
 .debug_abbrev  0x0000000000000b40      0x589 build/pic32mz/production/_ext/2120450970/drv_spi.o
 .debug_abbrev  0x00000000000010c9      0x55e build/pic32mz/production/_ext/1783409726/drv_usbhs.o
 .debug_abbrev  0x0000000000001627      0x645 build/pic32mz/production/_ext/1783409726/drv_usbhs_device.o
 .debug_abbrev  0x0000000000001c6c      0x286 build/pic32mz/production/_ext/1640642171/plib_cache.o
 .debug_abbrev  0x0000000000001ef2       0x14 build/pic32mz/production/_ext/1640642171/plib_cache_pic32mz.o
 .debug_abbrev  0x0000000000001f06      0x178 build/pic32mz/production/_ext/10646107/plib_clk.o
 .debug_abbrev  0x000000000000207e      0x257 build/pic32mz/production/_ext/809018751/plib_coretimer.o
 .debug_abbrev  0x00000000000022d5      0x202 build/pic32mz/production/_ext/330098546/plib_evic.o
 .debug_abbrev  0x00000000000024d7      0x325 build/pic32mz/production/_ext/330152374/plib_gpio.o
 .debug_abbrev  0x00000000000027fc      0x2b0 build/pic32mz/production/_ext/249272802/plib_i2c2_master.o
 .debug_abbrev  0x0000000000002aac      0x2b0 build/pic32mz/production/_ext/249272802/plib_i2c4_master.o
 .debug_abbrev  0x0000000000002d5c      0x2fe build/pic32mz/production/_ext/867254719/plib_spi4_master.o
 .debug_abbrev  0x000000000000305a      0x2fe build/pic32mz/production/_ext/867254719/plib_spi2_master.o
 .debug_abbrev  0x0000000000003358      0x2fe build/pic32mz/production/_ext/867254719/plib_spi1_master.o
 .debug_abbrev  0x0000000000003656      0x223 build/pic32mz/production/_ext/10662482/plib_tmr2.o
 .debug_abbrev  0x0000000000003879      0x2e9 build/pic32mz/production/_ext/330555317/plib_uart5.o
 .debug_abbrev  0x0000000000003b62      0x342 build/pic32mz/production/_ext/330555317/plib_uart6.o
 .debug_abbrev  0x0000000000003ea4      0x342 build/pic32mz/production/_ext/330555317/plib_uart3.o
 .debug_abbrev  0x00000000000041e6      0x342 build/pic32mz/production/_ext/330555317/plib_uart4.o
 .debug_abbrev  0x0000000000004528      0x342 build/pic32mz/production/_ext/330555317/plib_uart1.o
 .debug_abbrev  0x000000000000486a      0x342 build/pic32mz/production/_ext/330555317/plib_uart2.o
 .debug_abbrev  0x0000000000004bac      0x32f build/pic32mz/production/_ext/1991269565/xc32_monitor.o
 .debug_abbrev  0x0000000000004edb      0x1e0 build/pic32mz/production/_ext/1519118610/sys_cache.o
 .debug_abbrev  0x00000000000050bb       0xd3 build/pic32mz/production/_ext/1373644956/sys_dma.o
 .debug_abbrev  0x000000000000518e      0x47c build/pic32mz/production/_ext/1192657380/ff.o
 .debug_abbrev  0x000000000000560a      0x222 build/pic32mz/production/_ext/1192657380/ffunicode.o
 .debug_abbrev  0x000000000000582c      0x3db build/pic32mz/production/_ext/727274963/diskio.o
 .debug_abbrev  0x0000000000005c07      0x50a build/pic32mz/production/_ext/252936118/sys_fs.o
 .debug_abbrev  0x0000000000006111      0x4d6 build/pic32mz/production/_ext/252936118/sys_fs_media_manager.o
 .debug_abbrev  0x00000000000065e7      0x3a8 build/pic32mz/production/_ext/252936118/sys_fs_fat_interface.o
 .debug_abbrev  0x000000000000698f      0x279 build/pic32mz/production/_ext/1832149040/sys_int.o
 .debug_abbrev  0x0000000000006c08      0x5e6 build/pic32mz/production/_ext/1636986698/sys_time.o
 .debug_abbrev  0x00000000000071ee      0x45e build/pic32mz/production/_ext/202551283/usb_device.o
 .debug_abbrev  0x000000000000764c      0x49f build/pic32mz/production/_ext/202551283/usb_device_cdc.o
 .debug_abbrev  0x0000000000007aeb      0x2a8 build/pic32mz/production/_ext/202551283/usb_device_cdc_acm.o
 .debug_abbrev  0x0000000000007d93      0x2ac build/pic32mz/production/_ext/953055421/usb_device_init_data.o
 .debug_abbrev  0x000000000000803f      0x2cc build/pic32mz/production/_ext/953055421/tasks.o
 .debug_abbrev  0x000000000000830b      0x3ad build/pic32mz/production/_ext/953055421/initialization.o
 .debug_abbrev  0x00000000000086b8      0x2b8 build/pic32mz/production/_ext/953055421/interrupts.o
 .debug_abbrev  0x0000000000008970      0x2a9 build/pic32mz/production/_ext/953055421/exceptions.o
 .debug_abbrev  0x0000000000008c19      0x31e build/pic32mz/production/_ext/1360937237/app.o
 .debug_abbrev  0x0000000000008f37      0x2d3 build/pic32mz/production/_ext/1360937237/main.o
 .debug_abbrev  0x000000000000920a      0x3af build/pic32mz/production/_ext/1360937237/communication.o
 .debug_abbrev  0x00000000000095b9      0x457 build/pic32mz/production/_ext/1360937237/mdot.o
 .debug_abbrev  0x0000000000009a10      0x183 build/pic32mz/production/_ext/1360937237/stringbuffer.o
 .debug_abbrev  0x0000000000009b93      0x1d8 c:/program files/microchip/xc32/v3.00/bin/bin/../../lib/gcc/pic32mx/8.3.1/fpu64\libgcc.a(_udivdi3.o)
 .debug_abbrev  0x0000000000009d6b       0x2e c:/program files/microchip/xc32/v3.00/bin/bin/../../lib/gcc/pic32mx/8.3.1/../../../../pic32mx/lib/fpu64\libpic32.a(default-on-reset.o)
 .debug_abbrev  0x0000000000009d99       0x2e c:/program files/microchip/xc32/v3.00/bin/bin/../../lib/gcc/pic32mx/8.3.1/../../../../pic32mx/lib/fpu64\libpic32.a(default-on-bootstrap.o)
 .debug_abbrev  0x0000000000009dc7       0x31 c:/program files/microchip/xc32/v3.00/bin/bin/../../lib/gcc/pic32mx/8.3.1/../../../../pic32mx/lib/fpu64\libpic32.a(defaultinterrupt.o)
 .debug_abbrev  0x0000000000009df8       0x2e c:/program files/microchip/xc32/v3.00/bin/bin/../../lib/gcc/pic32mx/8.3.1/../../../../pic32mx/lib/fpu64\libc.a(memmove.o)
 .debug_abbrev  0x0000000000009e26       0x2e c:/program files/microchip/xc32/v3.00/bin/bin/../../lib/gcc/pic32mx/8.3.1/../../../../pic32mx/lib/fpu64\libc.a(setbuf.o)
 .debug_abbrev  0x0000000000009e54       0x2e c:/program files/microchip/xc32/v3.00/bin/bin/../../lib/gcc/pic32mx/8.3.1/../../../../pic32mx/lib/fpu64\libc.a(strncmp.o)
 .debug_abbrev  0x0000000000009e82       0x2e c:/program files/microchip/xc32/v3.00/bin/bin/../../lib/gcc/pic32mx/8.3.1/../../../../pic32mx/lib/fpu64\libc.a(strncpy.o)
 .debug_abbrev  0x0000000000009eb0       0x2e c:/program files/microchip/xc32/v3.00/bin/bin/../../lib/gcc/pic32mx/8.3.1/../../../../pic32mx/lib/fpu64\libc.a(sprintf_cdnopsuxX.eo)
 .debug_abbrev  0x0000000000009ede       0x4f c:/program files/microchip/xc32/v3.00/bin/bin/../../lib/gcc/pic32mx/8.3.1/../../../../pic32mx/lib/fpu64\libc.a(buf.o)
 .debug_abbrev  0x0000000000009f2d       0x2e c:/program files/microchip/xc32/v3.00/bin/bin/../../lib/gcc/pic32mx/8.3.1/../../../../pic32mx/lib/fpu64\libc.a(doprnt_cdnopsuxX.eo)
 .debug_abbrev  0x0000000000009f5b       0x37 c:/program files/microchip/xc32/v3.00/bin/bin/../../lib/gcc/pic32mx/8.3.1/../../../../pic32mx/lib/fpu64\libc.a(_fputc_simple.o)
 .debug_abbrev  0x0000000000009f92       0x2e c:/program files/microchip/xc32/v3.00/bin/bin/../../lib/gcc/pic32mx/8.3.1/../../../../pic32mx/lib/fpu64\libc.a(_flsbuf_simple.o)
 .debug_abbrev  0x0000000000009fc0      0x17e c:/program files/microchip/xc32/v3.00/bin/bin/../../lib/gcc/pic32mx/8.3.1/fpu64\libgcc.a(_lshrdi3.o)
 .debug_abbrev  0x000000000000a13e      0x1ee c:/program files/microchip/xc32/v3.00/bin/bin/../../lib/gcc/pic32mx/8.3.1/fpu64\libgcc.a(_umoddi3.o)
 .debug_abbrev  0x000000000000a32c       0x90 c:/program files/microchip/xc32/v3.00/bin/bin/../../lib/gcc/pic32mx/8.3.1/../../../../pic32mx/lib/fpu64\libpic32.a(sbrk.o)
 .debug_abbrev  0x000000000000a3bc       0x2e c:/program files/microchip/xc32/v3.00/bin/bin/../../lib/gcc/pic32mx/8.3.1/../../../../pic32mx/lib/fpu64\libpic32.a(write.o)

.debug_line     0x0000000000000000    0x24b27
 *.elf(.debug_line)
 *(.debug_line)
 .debug_line    0x0000000000000000     0x239f build/pic32mz/production/_ext/757013429/drv_sdspi.o
 .debug_line    0x000000000000239f      0x6ea build/pic32mz/production/_ext/757013429/drv_sdspi_driver_interface.o
 .debug_line    0x0000000000002a89      0x2d4 build/pic32mz/production/_ext/757013429/drv_sdspi_file_system.o
 .debug_line    0x0000000000002d5d     0x12a0 build/pic32mz/production/_ext/2120450970/drv_spi.o
 .debug_line    0x0000000000003ffd      0xdc7 build/pic32mz/production/_ext/1783409726/drv_usbhs.o
 .debug_line    0x0000000000004dc4     0x36bd build/pic32mz/production/_ext/1783409726/drv_usbhs_device.o
 .debug_line    0x0000000000008481      0x49b build/pic32mz/production/_ext/1640642171/plib_cache.o
 .debug_line    0x000000000000891c      0x208 build/pic32mz/production/_ext/1640642171/plib_cache_pic32mz.o
 .debug_line    0x0000000000008b24      0x24b build/pic32mz/production/_ext/10646107/plib_clk.o
 .debug_line    0x0000000000008d6f      0x369 build/pic32mz/production/_ext/809018751/plib_coretimer.o
 .debug_line    0x00000000000090d8      0x456 build/pic32mz/production/_ext/330098546/plib_evic.o
 .debug_line    0x000000000000952e      0x6e7 build/pic32mz/production/_ext/330152374/plib_gpio.o
 .debug_line    0x0000000000009c15      0x8c5 build/pic32mz/production/_ext/249272802/plib_i2c2_master.o
 .debug_line    0x000000000000a4da      0x8c5 build/pic32mz/production/_ext/249272802/plib_i2c4_master.o
 .debug_line    0x000000000000ad9f      0x94e build/pic32mz/production/_ext/867254719/plib_spi4_master.o
 .debug_line    0x000000000000b6ed      0x94e build/pic32mz/production/_ext/867254719/plib_spi2_master.o
 .debug_line    0x000000000000c03b      0x94e build/pic32mz/production/_ext/867254719/plib_spi1_master.o
 .debug_line    0x000000000000c989      0x34a build/pic32mz/production/_ext/10662482/plib_tmr2.o
 .debug_line    0x000000000000ccd3      0x60e build/pic32mz/production/_ext/330555317/plib_uart5.o
 .debug_line    0x000000000000d2e1      0x87c build/pic32mz/production/_ext/330555317/plib_uart6.o
 .debug_line    0x000000000000db5d      0x87c build/pic32mz/production/_ext/330555317/plib_uart3.o
 .debug_line    0x000000000000e3d9      0x87c build/pic32mz/production/_ext/330555317/plib_uart4.o
 .debug_line    0x000000000000ec55      0x87c build/pic32mz/production/_ext/330555317/plib_uart1.o
 .debug_line    0x000000000000f4d1      0x87c build/pic32mz/production/_ext/330555317/plib_uart2.o
 .debug_line    0x000000000000fd4d      0x5c5 build/pic32mz/production/_ext/1991269565/xc32_monitor.o
 .debug_line    0x0000000000010312      0x442 build/pic32mz/production/_ext/1519118610/sys_cache.o
 .debug_line    0x0000000000010754       0xf9 build/pic32mz/production/_ext/1373644956/sys_dma.o
 .debug_line    0x000000000001084d     0x4ca4 build/pic32mz/production/_ext/1192657380/ff.o
 .debug_line    0x00000000000154f1      0x3af build/pic32mz/production/_ext/1192657380/ffunicode.o
 .debug_line    0x00000000000158a0      0x669 build/pic32mz/production/_ext/727274963/diskio.o
 .debug_line    0x0000000000015f09     0x3103 build/pic32mz/production/_ext/252936118/sys_fs.o
 .debug_line    0x000000000001900c      0xf87 build/pic32mz/production/_ext/252936118/sys_fs_media_manager.o
 .debug_line    0x0000000000019f93      0xac0 build/pic32mz/production/_ext/252936118/sys_fs_fat_interface.o
 .debug_line    0x000000000001aa53      0x2c1 build/pic32mz/production/_ext/1832149040/sys_int.o
 .debug_line    0x000000000001ad14     0x12c6 build/pic32mz/production/_ext/1636986698/sys_time.o
 .debug_line    0x000000000001bfda     0x1a72 build/pic32mz/production/_ext/202551283/usb_device.o
 .debug_line    0x000000000001da4c      0xe24 build/pic32mz/production/_ext/202551283/usb_device_cdc.o
 .debug_line    0x000000000001e870      0x3a9 build/pic32mz/production/_ext/202551283/usb_device_cdc_acm.o
 .debug_line    0x000000000001ec19      0x51f build/pic32mz/production/_ext/953055421/usb_device_init_data.o
 .debug_line    0x000000000001f138      0x5b2 build/pic32mz/production/_ext/953055421/tasks.o
 .debug_line    0x000000000001f6ea      0xb24 build/pic32mz/production/_ext/953055421/initialization.o
 .debug_line    0x000000000002020e      0x85c build/pic32mz/production/_ext/953055421/interrupts.o
 .debug_line    0x0000000000020a6a      0x5a0 build/pic32mz/production/_ext/953055421/exceptions.o
 .debug_line    0x000000000002100a      0x69b build/pic32mz/production/_ext/1360937237/app.o
 .debug_line    0x00000000000216a5      0x521 build/pic32mz/production/_ext/1360937237/main.o
 .debug_line    0x0000000000021bc6      0x8e3 build/pic32mz/production/_ext/1360937237/communication.o
 .debug_line    0x00000000000224a9      0xa1f build/pic32mz/production/_ext/1360937237/mdot.o
 .debug_line    0x0000000000022ec8      0x205 build/pic32mz/production/_ext/1360937237/stringbuffer.o
 .debug_line    0x00000000000230cd      0x490 c:/program files/microchip/xc32/v3.00/bin/bin/../../lib/gcc/pic32mx/8.3.1/fpu64\libgcc.a(_udivdi3.o)
 .debug_line    0x000000000002355d       0xa6 c:/program files/microchip/xc32/v3.00/bin/bin/../../lib/gcc/pic32mx/8.3.1/../../../../pic32mx/lib/fpu64\libpic32.a(default-on-reset.o)
 .debug_line    0x0000000000023603       0xaa c:/program files/microchip/xc32/v3.00/bin/bin/../../lib/gcc/pic32mx/8.3.1/../../../../pic32mx/lib/fpu64\libpic32.a(default-on-bootstrap.o)
 .debug_line    0x00000000000236ad       0xc9 c:/program files/microchip/xc32/v3.00/bin/bin/../../lib/gcc/pic32mx/8.3.1/../../../../pic32mx/lib/fpu64\libpic32.a(defaultinterrupt.o)
 .debug_line    0x0000000000023776        0x0 c:/program files/microchip/xc32/v3.00/bin/bin/../../lib/gcc/pic32mx/8.3.1/../../../../pic32mx/lib/fpu64\libc.a(_iob.o)
 .debug_line    0x0000000000023776       0xb2 c:/program files/microchip/xc32/v3.00/bin/bin/../../lib/gcc/pic32mx/8.3.1/../../../../pic32mx/lib/fpu64\libc.a(memmove.o)
 .debug_line    0x0000000000023828      0x100 c:/program files/microchip/xc32/v3.00/bin/bin/../../lib/gcc/pic32mx/8.3.1/../../../../pic32mx/lib/fpu64\libc.a(setbuf.o)
 .debug_line    0x0000000000023928       0xa9 c:/program files/microchip/xc32/v3.00/bin/bin/../../lib/gcc/pic32mx/8.3.1/../../../../pic32mx/lib/fpu64\libc.a(strncmp.o)
 .debug_line    0x00000000000239d1       0xb0 c:/program files/microchip/xc32/v3.00/bin/bin/../../lib/gcc/pic32mx/8.3.1/../../../../pic32mx/lib/fpu64\libc.a(strncpy.o)
 .debug_line    0x0000000000023a81       0xc3 c:/program files/microchip/xc32/v3.00/bin/bin/../../lib/gcc/pic32mx/8.3.1/../../../../pic32mx/lib/fpu64\libc.a(sprintf_cdnopsuxX.eo)
 .debug_line    0x0000000000023b44       0xca c:/program files/microchip/xc32/v3.00/bin/bin/../../lib/gcc/pic32mx/8.3.1/../../../../pic32mx/lib/fpu64\libc.a(buf.o)
 .debug_line    0x0000000000023c0e        0x0 c:/program files/microchip/xc32/v3.00/bin/bin/../../lib/gcc/pic32mx/8.3.1/../../../../pic32mx/lib/fpu64\libc.a(errno.o)
 .debug_line    0x0000000000023c0e      0x35b c:/program files/microchip/xc32/v3.00/bin/bin/../../lib/gcc/pic32mx/8.3.1/../../../../pic32mx/lib/fpu64\libc.a(doprnt_cdnopsuxX.eo)
 .debug_line    0x0000000000023f69       0xf3 c:/program files/microchip/xc32/v3.00/bin/bin/../../lib/gcc/pic32mx/8.3.1/../../../../pic32mx/lib/fpu64\libc.a(_fputc_simple.o)
 .debug_line    0x000000000002405c        0x0 c:/program files/microchip/xc32/v3.00/bin/bin/../../lib/gcc/pic32mx/8.3.1/../../../../pic32mx/lib/fpu64\libc.a(ctype.o)
 .debug_line    0x000000000002405c       0xfb c:/program files/microchip/xc32/v3.00/bin/bin/../../lib/gcc/pic32mx/8.3.1/../../../../pic32mx/lib/fpu64\libc.a(_flsbuf_simple.o)
 .debug_line    0x0000000000024157      0x290 c:/program files/microchip/xc32/v3.00/bin/bin/../../lib/gcc/pic32mx/8.3.1/fpu64\libgcc.a(_lshrdi3.o)
 .debug_line    0x00000000000243e7      0x4d9 c:/program files/microchip/xc32/v3.00/bin/bin/../../lib/gcc/pic32mx/8.3.1/fpu64\libgcc.a(_umoddi3.o)
 .debug_line    0x00000000000248c0      0x1af c:/program files/microchip/xc32/v3.00/bin/bin/../../lib/gcc/pic32mx/8.3.1/../../../../pic32mx/lib/fpu64\libpic32.a(sbrk.o)
 .debug_line    0x0000000000024a6f       0xb8 c:/program files/microchip/xc32/v3.00/bin/bin/../../lib/gcc/pic32mx/8.3.1/../../../../pic32mx/lib/fpu64\libpic32.a(write.o)

.debug_frame    0x0000000000000000     0x5964
 *.elf(.debug_frame)
 *(.debug_frame)
 .debug_frame   0x0000000000000000      0x1e8 build/pic32mz/production/_ext/757013429/drv_sdspi.o
 .debug_frame   0x00000000000001e8      0x164 build/pic32mz/production/_ext/757013429/drv_sdspi_driver_interface.o
 .debug_frame   0x000000000000034c       0x2c build/pic32mz/production/_ext/757013429/drv_sdspi_file_system.o
 .debug_frame   0x0000000000000378      0x200 build/pic32mz/production/_ext/2120450970/drv_spi.o
 .debug_frame   0x0000000000000578      0x144 build/pic32mz/production/_ext/1783409726/drv_usbhs.o
 .debug_frame   0x00000000000006bc      0x3f8 build/pic32mz/production/_ext/1783409726/drv_usbhs_device.o
 .debug_frame   0x0000000000000ab4      0x25c build/pic32mz/production/_ext/1640642171/plib_cache.o
 .debug_frame   0x0000000000000d10       0x20 build/pic32mz/production/_ext/10646107/plib_clk.o
 .debug_frame   0x0000000000000d30      0x110 build/pic32mz/production/_ext/809018751/plib_coretimer.o
 .debug_frame   0x0000000000000e40       0xd4 build/pic32mz/production/_ext/330098546/plib_evic.o
 .debug_frame   0x0000000000000f14      0x114 build/pic32mz/production/_ext/330152374/plib_gpio.o
 .debug_frame   0x0000000000001028       0xc8 build/pic32mz/production/_ext/249272802/plib_i2c2_master.o
 .debug_frame   0x00000000000010f0       0xc8 build/pic32mz/production/_ext/249272802/plib_i2c4_master.o
 .debug_frame   0x00000000000011b8       0xe0 build/pic32mz/production/_ext/867254719/plib_spi4_master.o
 .debug_frame   0x0000000000001298       0xe0 build/pic32mz/production/_ext/867254719/plib_spi2_master.o
 .debug_frame   0x0000000000001378       0xe0 build/pic32mz/production/_ext/867254719/plib_spi1_master.o
 .debug_frame   0x0000000000001458       0xcc build/pic32mz/production/_ext/10662482/plib_tmr2.o
 .debug_frame   0x0000000000001524      0x104 build/pic32mz/production/_ext/330555317/plib_uart5.o
 .debug_frame   0x0000000000001628      0x168 build/pic32mz/production/_ext/330555317/plib_uart6.o
 .debug_frame   0x0000000000001790      0x168 build/pic32mz/production/_ext/330555317/plib_uart3.o
 .debug_frame   0x00000000000018f8      0x168 build/pic32mz/production/_ext/330555317/plib_uart4.o
 .debug_frame   0x0000000000001a60      0x168 build/pic32mz/production/_ext/330555317/plib_uart1.o
 .debug_frame   0x0000000000001bc8      0x168 build/pic32mz/production/_ext/330555317/plib_uart2.o
 .debug_frame   0x0000000000001d30       0x48 build/pic32mz/production/_ext/1991269565/xc32_monitor.o
 .debug_frame   0x0000000000001d78      0x188 build/pic32mz/production/_ext/1519118610/sys_cache.o
 .debug_frame   0x0000000000001f00       0x40 build/pic32mz/production/_ext/1373644956/sys_dma.o
 .debug_frame   0x0000000000001f40      0x8e4 build/pic32mz/production/_ext/1192657380/ff.o
 .debug_frame   0x0000000000002824       0x40 build/pic32mz/production/_ext/1192657380/ffunicode.o
 .debug_frame   0x0000000000002864      0x11c build/pic32mz/production/_ext/727274963/diskio.o
 .debug_frame   0x0000000000002980      0x578 build/pic32mz/production/_ext/252936118/sys_fs.o
 .debug_frame   0x0000000000002ef8      0x1ec build/pic32mz/production/_ext/252936118/sys_fs_media_manager.o
 .debug_frame   0x00000000000030e4      0x3d8 build/pic32mz/production/_ext/252936118/sys_fs_fat_interface.o
 .debug_frame   0x00000000000034bc       0xa0 build/pic32mz/production/_ext/1832149040/sys_int.o
 .debug_frame   0x000000000000355c      0x404 build/pic32mz/production/_ext/1636986698/sys_time.o
 .debug_frame   0x0000000000003960      0x5a4 build/pic32mz/production/_ext/202551283/usb_device.o
 .debug_frame   0x0000000000003f04      0x190 build/pic32mz/production/_ext/202551283/usb_device_cdc.o
 .debug_frame   0x0000000000004094       0x30 build/pic32mz/production/_ext/202551283/usb_device_cdc_acm.o
 .debug_frame   0x00000000000040c4       0x2c build/pic32mz/production/_ext/953055421/tasks.o
 .debug_frame   0x00000000000040f0       0x30 build/pic32mz/production/_ext/953055421/initialization.o
 .debug_frame   0x0000000000004120     0x1168 build/pic32mz/production/_ext/953055421/interrupts.o
 .debug_frame   0x0000000000005288       0x70 build/pic32mz/production/_ext/953055421/exceptions.o
 .debug_frame   0x00000000000052f8       0x6c build/pic32mz/production/_ext/1360937237/app.o
 .debug_frame   0x0000000000005364       0x28 build/pic32mz/production/_ext/1360937237/main.o
 .debug_frame   0x000000000000538c      0x108 build/pic32mz/production/_ext/1360937237/communication.o
 .debug_frame   0x0000000000005494      0x108 build/pic32mz/production/_ext/1360937237/mdot.o
 .debug_frame   0x000000000000559c       0x84 build/pic32mz/production/_ext/1360937237/stringbuffer.o
 .debug_frame   0x0000000000005620       0x20 c:/program files/microchip/xc32/v3.00/bin/bin/../../lib/gcc/pic32mx/8.3.1/fpu64\libgcc.a(_udivdi3.o)
 .debug_frame   0x0000000000005640       0x20 c:/program files/microchip/xc32/v3.00/bin/bin/../../lib/gcc/pic32mx/8.3.1/../../../../pic32mx/lib/fpu64\libpic32.a(default-on-reset.o)
 .debug_frame   0x0000000000005660       0x20 c:/program files/microchip/xc32/v3.00/bin/bin/../../lib/gcc/pic32mx/8.3.1/../../../../pic32mx/lib/fpu64\libpic32.a(default-on-bootstrap.o)
 .debug_frame   0x0000000000005680       0x20 c:/program files/microchip/xc32/v3.00/bin/bin/../../lib/gcc/pic32mx/8.3.1/../../../../pic32mx/lib/fpu64\libpic32.a(defaultinterrupt.o)
 .debug_frame   0x00000000000056a0       0x20 c:/program files/microchip/xc32/v3.00/bin/bin/../../lib/gcc/pic32mx/8.3.1/../../../../pic32mx/lib/fpu64\libc.a(memmove.o)
 .debug_frame   0x00000000000056c0       0x4c c:/program files/microchip/xc32/v3.00/bin/bin/../../lib/gcc/pic32mx/8.3.1/../../../../pic32mx/lib/fpu64\libc.a(setbuf.o)
 .debug_frame   0x000000000000570c       0x20 c:/program files/microchip/xc32/v3.00/bin/bin/../../lib/gcc/pic32mx/8.3.1/../../../../pic32mx/lib/fpu64\libc.a(strncmp.o)
 .debug_frame   0x000000000000572c       0x20 c:/program files/microchip/xc32/v3.00/bin/bin/../../lib/gcc/pic32mx/8.3.1/../../../../pic32mx/lib/fpu64\libc.a(strncpy.o)
 .debug_frame   0x000000000000574c       0x2c c:/program files/microchip/xc32/v3.00/bin/bin/../../lib/gcc/pic32mx/8.3.1/../../../../pic32mx/lib/fpu64\libc.a(sprintf_cdnopsuxX.eo)
 .debug_frame   0x0000000000005778       0x3c c:/program files/microchip/xc32/v3.00/bin/bin/../../lib/gcc/pic32mx/8.3.1/../../../../pic32mx/lib/fpu64\libc.a(buf.o)
 .debug_frame   0x00000000000057b4       0x40 c:/program files/microchip/xc32/v3.00/bin/bin/../../lib/gcc/pic32mx/8.3.1/../../../../pic32mx/lib/fpu64\libc.a(doprnt_cdnopsuxX.eo)
 .debug_frame   0x00000000000057f4       0x34 c:/program files/microchip/xc32/v3.00/bin/bin/../../lib/gcc/pic32mx/8.3.1/../../../../pic32mx/lib/fpu64\libc.a(_fputc_simple.o)
 .debug_frame   0x0000000000005828       0x30 c:/program files/microchip/xc32/v3.00/bin/bin/../../lib/gcc/pic32mx/8.3.1/../../../../pic32mx/lib/fpu64\libc.a(_flsbuf_simple.o)
 .debug_frame   0x0000000000005858       0x20 c:/program files/microchip/xc32/v3.00/bin/bin/../../lib/gcc/pic32mx/8.3.1/fpu64\libgcc.a(_lshrdi3.o)
 .debug_frame   0x0000000000005878       0x20 c:/program files/microchip/xc32/v3.00/bin/bin/../../lib/gcc/pic32mx/8.3.1/fpu64\libgcc.a(_umoddi3.o)
 .debug_frame   0x0000000000005898       0x98 c:/program files/microchip/xc32/v3.00/bin/bin/../../lib/gcc/pic32mx/8.3.1/../../../../pic32mx/lib/fpu64\libpic32.a(sbrk.o)
 .debug_frame   0x0000000000005930       0x34 c:/program files/microchip/xc32/v3.00/bin/bin/../../lib/gcc/pic32mx/8.3.1/../../../../pic32mx/lib/fpu64\libpic32.a(write.o)

.debug_str      0x0000000000000000   0x466118
 *.elf(.debug_str)
 *(.debug_str)
 .debug_str     0x0000000000000000    0x1a805 build/pic32mz/production/_ext/757013429/drv_sdspi.o
 .debug_str     0x000000000001a805    0x19df0 build/pic32mz/production/_ext/757013429/drv_sdspi_driver_interface.o
 .debug_str     0x00000000000345f5    0x17bb5 build/pic32mz/production/_ext/757013429/drv_sdspi_file_system.o
 .debug_str     0x000000000004c1aa    0x1a6f1 build/pic32mz/production/_ext/2120450970/drv_spi.o
 .debug_str     0x000000000006689b    0x1ba31 build/pic32mz/production/_ext/1783409726/drv_usbhs.o
 .debug_str     0x00000000000822cc    0x1cb35 build/pic32mz/production/_ext/1783409726/drv_usbhs_device.o
 .debug_str     0x000000000009ee01    0x17aaf build/pic32mz/production/_ext/1640642171/plib_cache.o
 .debug_str     0x00000000000b68b0       0x6e build/pic32mz/production/_ext/1640642171/plib_cache_pic32mz.o
 .debug_str     0x00000000000b691e    0x1763f build/pic32mz/production/_ext/10646107/plib_clk.o
 .debug_str     0x00000000000cdf5d    0x1778b build/pic32mz/production/_ext/809018751/plib_coretimer.o
 .debug_str     0x00000000000e56e8    0x188ee build/pic32mz/production/_ext/330098546/plib_evic.o
 .debug_str     0x00000000000fdfd6    0x17f57 build/pic32mz/production/_ext/330152374/plib_gpio.o
 .debug_str     0x0000000000115f2d    0x179d2 build/pic32mz/production/_ext/249272802/plib_i2c2_master.o
 .debug_str     0x000000000012d8ff    0x179d2 build/pic32mz/production/_ext/249272802/plib_i2c4_master.o
 .debug_str     0x00000000001452d1    0x1798a build/pic32mz/production/_ext/867254719/plib_spi4_master.o
 .debug_str     0x000000000015cc5b    0x1798a build/pic32mz/production/_ext/867254719/plib_spi2_master.o
 .debug_str     0x00000000001745e5    0x1798a build/pic32mz/production/_ext/867254719/plib_spi1_master.o
 .debug_str     0x000000000018bf6f    0x1774f build/pic32mz/production/_ext/10662482/plib_tmr2.o
 .debug_str     0x00000000001a36be    0x17934 build/pic32mz/production/_ext/330555317/plib_uart5.o
 .debug_str     0x00000000001baff2    0x17a45 build/pic32mz/production/_ext/330555317/plib_uart6.o
 .debug_str     0x00000000001d2a37    0x17a45 build/pic32mz/production/_ext/330555317/plib_uart3.o
 .debug_str     0x00000000001ea47c    0x17a45 build/pic32mz/production/_ext/330555317/plib_uart4.o
 .debug_str     0x0000000000201ec1    0x17a45 build/pic32mz/production/_ext/330555317/plib_uart1.o
 .debug_str     0x0000000000219906    0x17a45 build/pic32mz/production/_ext/330555317/plib_uart2.o
 .debug_str     0x000000000023134b    0x1a1b7 build/pic32mz/production/_ext/1991269565/xc32_monitor.o
 .debug_str     0x000000000024b502    0x17895 build/pic32mz/production/_ext/1519118610/sys_cache.o
 .debug_str     0x0000000000262d97      0x604 build/pic32mz/production/_ext/1373644956/sys_dma.o
 .debug_str     0x000000000026339b    0x17e84 build/pic32mz/production/_ext/1192657380/ff.o
 .debug_str     0x000000000027b21f    0x176a6 build/pic32mz/production/_ext/1192657380/ffunicode.o
 .debug_str     0x00000000002928c5    0x17cee build/pic32mz/production/_ext/727274963/diskio.o
 .debug_str     0x00000000002aa5b3    0x18680 build/pic32mz/production/_ext/252936118/sys_fs.o
 .debug_str     0x00000000002c2c33    0x184df build/pic32mz/production/_ext/252936118/sys_fs_media_manager.o
 .debug_str     0x00000000002db112    0x17da8 build/pic32mz/production/_ext/252936118/sys_fs_fat_interface.o
 .debug_str     0x00000000002f2eba    0x188df build/pic32mz/production/_ext/1832149040/sys_int.o
 .debug_str     0x000000000030b799    0x192b0 build/pic32mz/production/_ext/1636986698/sys_time.o
 .debug_str     0x0000000000324a49    0x1b1fb build/pic32mz/production/_ext/202551283/usb_device.o
 .debug_str     0x000000000033fc44    0x19861 build/pic32mz/production/_ext/202551283/usb_device_cdc.o
 .debug_str     0x00000000003594a5    0x1848b build/pic32mz/production/_ext/202551283/usb_device_cdc_acm.o
 .debug_str     0x0000000000371930    0x1abf0 build/pic32mz/production/_ext/953055421/usb_device_init_data.o
 .debug_str     0x000000000038c520    0x1a1c0 build/pic32mz/production/_ext/953055421/tasks.o
 .debug_str     0x00000000003a66e0    0x1bf49 build/pic32mz/production/_ext/953055421/initialization.o
 .debug_str     0x00000000003c2629    0x1a6aa build/pic32mz/production/_ext/953055421/interrupts.o
 .debug_str     0x00000000003dccd3    0x1a512 build/pic32mz/production/_ext/953055421/exceptions.o
 .debug_str     0x00000000003f71e5    0x1a8b7 build/pic32mz/production/_ext/1360937237/app.o
 .debug_str     0x0000000000411a9c    0x1a17c build/pic32mz/production/_ext/1360937237/main.o
 .debug_str     0x000000000042bc18    0x1a65a build/pic32mz/production/_ext/1360937237/communication.o
 .debug_str     0x0000000000446272    0x1a973 build/pic32mz/production/_ext/1360937237/mdot.o
 .debug_str     0x0000000000460be5      0x5e7 build/pic32mz/production/_ext/1360937237/stringbuffer.o
 .debug_str     0x00000000004611cc      0x552 c:/program files/microchip/xc32/v3.00/bin/bin/../../lib/gcc/pic32mx/8.3.1/fpu64\libgcc.a(_udivdi3.o)
 .debug_str     0x000000000046171e      0x39a c:/program files/microchip/xc32/v3.00/bin/bin/../../lib/gcc/pic32mx/8.3.1/../../../../pic32mx/lib/fpu64\libpic32.a(default-on-reset.o)
 .debug_str     0x0000000000461ab8      0x3a2 c:/program files/microchip/xc32/v3.00/bin/bin/../../lib/gcc/pic32mx/8.3.1/../../../../pic32mx/lib/fpu64\libpic32.a(default-on-bootstrap.o)
 .debug_str     0x0000000000461e5a      0x3b4 c:/program files/microchip/xc32/v3.00/bin/bin/../../lib/gcc/pic32mx/8.3.1/../../../../pic32mx/lib/fpu64\libpic32.a(defaultinterrupt.o)
 .debug_str     0x000000000046220e      0x3bd c:/program files/microchip/xc32/v3.00/bin/bin/../../lib/gcc/pic32mx/8.3.1/../../../../pic32mx/lib/fpu64\libc.a(_iob.o)
 .debug_str     0x00000000004625cb      0x3c8 c:/program files/microchip/xc32/v3.00/bin/bin/../../lib/gcc/pic32mx/8.3.1/../../../../pic32mx/lib/fpu64\libc.a(memmove.o)
 .debug_str     0x0000000000462993      0x3ce c:/program files/microchip/xc32/v3.00/bin/bin/../../lib/gcc/pic32mx/8.3.1/../../../../pic32mx/lib/fpu64\libc.a(setbuf.o)
 .debug_str     0x0000000000462d61      0x3c8 c:/program files/microchip/xc32/v3.00/bin/bin/../../lib/gcc/pic32mx/8.3.1/../../../../pic32mx/lib/fpu64\libc.a(strncmp.o)
 .debug_str     0x0000000000463129      0x3c8 c:/program files/microchip/xc32/v3.00/bin/bin/../../lib/gcc/pic32mx/8.3.1/../../../../pic32mx/lib/fpu64\libc.a(strncpy.o)
 .debug_str     0x00000000004634f1      0x3d3 c:/program files/microchip/xc32/v3.00/bin/bin/../../lib/gcc/pic32mx/8.3.1/../../../../pic32mx/lib/fpu64\libc.a(sprintf_cdnopsuxX.eo)
 .debug_str     0x00000000004638c4      0x3ce c:/program files/microchip/xc32/v3.00/bin/bin/../../lib/gcc/pic32mx/8.3.1/../../../../pic32mx/lib/fpu64\libc.a(buf.o)
 .debug_str     0x0000000000463c92      0x3be c:/program files/microchip/xc32/v3.00/bin/bin/../../lib/gcc/pic32mx/8.3.1/../../../../pic32mx/lib/fpu64\libc.a(errno.o)
 .debug_str     0x0000000000464050      0x3d3 c:/program files/microchip/xc32/v3.00/bin/bin/../../lib/gcc/pic32mx/8.3.1/../../../../pic32mx/lib/fpu64\libc.a(doprnt_cdnopsuxX.eo)
 .debug_str     0x0000000000464423      0x3c4 c:/program files/microchip/xc32/v3.00/bin/bin/../../lib/gcc/pic32mx/8.3.1/../../../../pic32mx/lib/fpu64\libc.a(_fputc_simple.o)
 .debug_str     0x00000000004647e7      0x3be c:/program files/microchip/xc32/v3.00/bin/bin/../../lib/gcc/pic32mx/8.3.1/../../../../pic32mx/lib/fpu64\libc.a(ctype.o)
 .debug_str     0x0000000000464ba5      0x3c7 c:/program files/microchip/xc32/v3.00/bin/bin/../../lib/gcc/pic32mx/8.3.1/../../../../pic32mx/lib/fpu64\libc.a(_flsbuf_simple.o)
 .debug_str     0x0000000000464f6c      0x515 c:/program files/microchip/xc32/v3.00/bin/bin/../../lib/gcc/pic32mx/8.3.1/fpu64\libgcc.a(_lshrdi3.o)
 .debug_str     0x0000000000465481      0x552 c:/program files/microchip/xc32/v3.00/bin/bin/../../lib/gcc/pic32mx/8.3.1/fpu64\libgcc.a(_umoddi3.o)
 .debug_str     0x00000000004659d3      0x3ba c:/program files/microchip/xc32/v3.00/bin/bin/../../lib/gcc/pic32mx/8.3.1/../../../../pic32mx/lib/fpu64\libpic32.a(sbrk.o)
 .debug_str     0x0000000000465d8d      0x38b c:/program files/microchip/xc32/v3.00/bin/bin/../../lib/gcc/pic32mx/8.3.1/../../../../pic32mx/lib/fpu64\libpic32.a(write.o)

.debug_loc      0x0000000000000000    0x276e7
 *.elf(.debug_loc)
 *(.debug_loc)
 .debug_loc     0x0000000000000000     0x281c build/pic32mz/production/_ext/757013429/drv_sdspi.o
 .debug_loc     0x000000000000281c      0x772 build/pic32mz/production/_ext/757013429/drv_sdspi_driver_interface.o
 .debug_loc     0x0000000000002f8e       0x25 build/pic32mz/production/_ext/757013429/drv_sdspi_file_system.o
 .debug_loc     0x0000000000002fb3     0x188c build/pic32mz/production/_ext/2120450970/drv_spi.o
 .debug_loc     0x000000000000483f      0xbe7 build/pic32mz/production/_ext/1783409726/drv_usbhs.o
 .debug_loc     0x0000000000005426     0x6e60 build/pic32mz/production/_ext/1783409726/drv_usbhs_device.o
 .debug_loc     0x000000000000c286      0x284 build/pic32mz/production/_ext/1640642171/plib_cache.o
 .debug_loc     0x000000000000c50a       0xd1 build/pic32mz/production/_ext/809018751/plib_coretimer.o
 .debug_loc     0x000000000000c5db       0xc5 build/pic32mz/production/_ext/330098546/plib_evic.o
 .debug_loc     0x000000000000c6a0      0x41f build/pic32mz/production/_ext/330152374/plib_gpio.o
 .debug_loc     0x000000000000cabf       0xda build/pic32mz/production/_ext/249272802/plib_i2c2_master.o
 .debug_loc     0x000000000000cb99       0xda build/pic32mz/production/_ext/249272802/plib_i2c4_master.o
 .debug_loc     0x000000000000cc73      0x3f3 build/pic32mz/production/_ext/867254719/plib_spi4_master.o
 .debug_loc     0x000000000000d066      0x3f3 build/pic32mz/production/_ext/867254719/plib_spi2_master.o
 .debug_loc     0x000000000000d459      0x3f3 build/pic32mz/production/_ext/867254719/plib_spi1_master.o
 .debug_loc     0x000000000000d84c       0x16 build/pic32mz/production/_ext/10662482/plib_tmr2.o
 .debug_loc     0x000000000000d862      0x5c8 build/pic32mz/production/_ext/330555317/plib_uart5.o
 .debug_loc     0x000000000000de2a      0x3ec build/pic32mz/production/_ext/330555317/plib_uart6.o
 .debug_loc     0x000000000000e216      0x3ec build/pic32mz/production/_ext/330555317/plib_uart3.o
 .debug_loc     0x000000000000e602      0x3ec build/pic32mz/production/_ext/330555317/plib_uart4.o
 .debug_loc     0x000000000000e9ee      0x3ec build/pic32mz/production/_ext/330555317/plib_uart1.o
 .debug_loc     0x000000000000edda      0x3ec build/pic32mz/production/_ext/330555317/plib_uart2.o
 .debug_loc     0x000000000000f1c6       0x64 build/pic32mz/production/_ext/1991269565/xc32_monitor.o
 .debug_loc     0x000000000000f22a      0x17a build/pic32mz/production/_ext/1519118610/sys_cache.o
 .debug_loc     0x000000000000f3a4     0x8a5e build/pic32mz/production/_ext/1192657380/ff.o
 .debug_loc     0x0000000000017e02      0x2b2 build/pic32mz/production/_ext/1192657380/ffunicode.o
 .debug_loc     0x00000000000180b4      0x8b7 build/pic32mz/production/_ext/727274963/diskio.o
 .debug_loc     0x000000000001896b     0x471f build/pic32mz/production/_ext/252936118/sys_fs.o
 .debug_loc     0x000000000001d08a     0x1415 build/pic32mz/production/_ext/252936118/sys_fs_media_manager.o
 .debug_loc     0x000000000001e49f     0x16dc build/pic32mz/production/_ext/252936118/sys_fs_fat_interface.o
 .debug_loc     0x000000000001fb7b       0xe8 build/pic32mz/production/_ext/1832149040/sys_int.o
 .debug_loc     0x000000000001fc63     0x1b87 build/pic32mz/production/_ext/1636986698/sys_time.o
 .debug_loc     0x00000000000217ea     0x2900 build/pic32mz/production/_ext/202551283/usb_device.o
 .debug_loc     0x00000000000240ea     0x1491 build/pic32mz/production/_ext/202551283/usb_device_cdc.o
 .debug_loc     0x000000000002557b      0x25a build/pic32mz/production/_ext/202551283/usb_device_cdc_acm.o
 .debug_loc     0x00000000000257d5       0x25 build/pic32mz/production/_ext/953055421/initialization.o
 .debug_loc     0x00000000000257fa       0xec build/pic32mz/production/_ext/1360937237/communication.o
 .debug_loc     0x00000000000258e6      0x622 build/pic32mz/production/_ext/1360937237/mdot.o
 .debug_loc     0x0000000000025f08      0x1f6 build/pic32mz/production/_ext/1360937237/stringbuffer.o
 .debug_loc     0x00000000000260fe      0xb5b c:/program files/microchip/xc32/v3.00/bin/bin/../../lib/gcc/pic32mx/8.3.1/fpu64\libgcc.a(_udivdi3.o)
 .debug_loc     0x0000000000026c59       0x99 c:/program files/microchip/xc32/v3.00/bin/bin/../../lib/gcc/pic32mx/8.3.1/fpu64\libgcc.a(_lshrdi3.o)
 .debug_loc     0x0000000000026cf2      0x969 c:/program files/microchip/xc32/v3.00/bin/bin/../../lib/gcc/pic32mx/8.3.1/fpu64\libgcc.a(_umoddi3.o)
 .debug_loc     0x000000000002765b       0x6c c:/program files/microchip/xc32/v3.00/bin/bin/../../lib/gcc/pic32mx/8.3.1/../../../../pic32mx/lib/fpu64\libpic32.a(sbrk.o)
 .debug_loc     0x00000000000276c7       0x20 c:/program files/microchip/xc32/v3.00/bin/bin/../../lib/gcc/pic32mx/8.3.1/../../../../pic32mx/lib/fpu64\libpic32.a(write.o)

.debug_macinfo
 *.elf(.debug_macinfo)
 *(.debug_macinfo)

.debug_weaknames
 *.elf(.debug_weaknames)
 *(.debug_weaknames)

.debug_funcnames
 *.elf(.debug_funcnames)
 *(.debug_funcnames)

.debug_typenames
 *.elf(.debug_typenames)
 *(.debug_typenames)

.debug_varnames
 *.elf(.debug_varnames)
 *(.debug_varnames)

.debug_pubtypes
 *.elf(.debug_pubtypes)
 *(.debug_pubtypes)

.debug_ranges   0x0000000000000000     0x35e8
 *.elf(.debug_ranges)
 *(.debug_ranges)
 .debug_ranges  0x0000000000000000      0x818 build/pic32mz/production/_ext/757013429/drv_sdspi.o
 .debug_ranges  0x0000000000000818       0x80 build/pic32mz/production/_ext/757013429/drv_sdspi_driver_interface.o
 .debug_ranges  0x0000000000000898       0x10 build/pic32mz/production/_ext/757013429/drv_sdspi_file_system.o
 .debug_ranges  0x00000000000008a8      0x208 build/pic32mz/production/_ext/2120450970/drv_spi.o
 .debug_ranges  0x0000000000000ab0       0xa8 build/pic32mz/production/_ext/1783409726/drv_usbhs.o
 .debug_ranges  0x0000000000000b58      0xa30 build/pic32mz/production/_ext/1783409726/drv_usbhs_device.o
 .debug_ranges  0x0000000000001588       0xb0 build/pic32mz/production/_ext/1640642171/plib_cache.o
 .debug_ranges  0x0000000000001638       0x10 build/pic32mz/production/_ext/10646107/plib_clk.o
 .debug_ranges  0x0000000000001648       0x58 build/pic32mz/production/_ext/809018751/plib_coretimer.o
 .debug_ranges  0x00000000000016a0       0x58 build/pic32mz/production/_ext/330098546/plib_evic.o
 .debug_ranges  0x00000000000016f8       0x80 build/pic32mz/production/_ext/330152374/plib_gpio.o
 .debug_ranges  0x0000000000001778      0x118 build/pic32mz/production/_ext/249272802/plib_i2c2_master.o
 .debug_ranges  0x0000000000001890      0x118 build/pic32mz/production/_ext/249272802/plib_i2c4_master.o
 .debug_ranges  0x00000000000019a8       0x58 build/pic32mz/production/_ext/867254719/plib_spi4_master.o
 .debug_ranges  0x0000000000001a00       0x58 build/pic32mz/production/_ext/867254719/plib_spi2_master.o
 .debug_ranges  0x0000000000001a58       0x58 build/pic32mz/production/_ext/867254719/plib_spi1_master.o
 .debug_ranges  0x0000000000001ab0       0x60 build/pic32mz/production/_ext/10662482/plib_tmr2.o
 .debug_ranges  0x0000000000001b10       0x70 build/pic32mz/production/_ext/330555317/plib_uart5.o
 .debug_ranges  0x0000000000001b80       0x98 build/pic32mz/production/_ext/330555317/plib_uart6.o
 .debug_ranges  0x0000000000001c18       0x98 build/pic32mz/production/_ext/330555317/plib_uart3.o
 .debug_ranges  0x0000000000001cb0       0x98 build/pic32mz/production/_ext/330555317/plib_uart4.o
 .debug_ranges  0x0000000000001d48       0x98 build/pic32mz/production/_ext/330555317/plib_uart1.o
 .debug_ranges  0x0000000000001de0       0x98 build/pic32mz/production/_ext/330555317/plib_uart2.o
 .debug_ranges  0x0000000000001e78       0x18 build/pic32mz/production/_ext/1991269565/xc32_monitor.o
 .debug_ranges  0x0000000000001e90       0x70 build/pic32mz/production/_ext/1519118610/sys_cache.o
 .debug_ranges  0x0000000000001f00       0x20 build/pic32mz/production/_ext/1373644956/sys_dma.o
 .debug_ranges  0x0000000000001f20      0x4b0 build/pic32mz/production/_ext/1192657380/ff.o
 .debug_ranges  0x00000000000023d0       0x20 build/pic32mz/production/_ext/1192657380/ffunicode.o
 .debug_ranges  0x00000000000023f0       0x50 build/pic32mz/production/_ext/727274963/diskio.o
 .debug_ranges  0x0000000000002440      0x5f0 build/pic32mz/production/_ext/252936118/sys_fs.o
 .debug_ranges  0x0000000000002a30      0x158 build/pic32mz/production/_ext/252936118/sys_fs_media_manager.o
 .debug_ranges  0x0000000000002b88      0x120 build/pic32mz/production/_ext/252936118/sys_fs_fat_interface.o
 .debug_ranges  0x0000000000002ca8       0x30 build/pic32mz/production/_ext/1832149040/sys_int.o
 .debug_ranges  0x0000000000002cd8      0x190 build/pic32mz/production/_ext/1636986698/sys_time.o
 .debug_ranges  0x0000000000002e68      0x190 build/pic32mz/production/_ext/202551283/usb_device.o
 .debug_ranges  0x0000000000002ff8       0xc0 build/pic32mz/production/_ext/202551283/usb_device_cdc.o
 .debug_ranges  0x00000000000030b8       0x10 build/pic32mz/production/_ext/202551283/usb_device_cdc_acm.o
 .debug_ranges  0x00000000000030c8       0x10 build/pic32mz/production/_ext/953055421/tasks.o
 .debug_ranges  0x00000000000030d8       0x10 build/pic32mz/production/_ext/953055421/initialization.o
 .debug_ranges  0x00000000000030e8       0xf8 build/pic32mz/production/_ext/953055421/interrupts.o
 .debug_ranges  0x00000000000031e0       0x28 build/pic32mz/production/_ext/953055421/exceptions.o
 .debug_ranges  0x0000000000003208       0x28 build/pic32mz/production/_ext/1360937237/app.o
 .debug_ranges  0x0000000000003230       0x10 build/pic32mz/production/_ext/1360937237/main.o
 .debug_ranges  0x0000000000003240       0x60 build/pic32mz/production/_ext/1360937237/communication.o
 .debug_ranges  0x00000000000032a0       0x78 build/pic32mz/production/_ext/1360937237/mdot.o
 .debug_ranges  0x0000000000003318       0x28 build/pic32mz/production/_ext/1360937237/stringbuffer.o
 .debug_ranges  0x0000000000003340       0xd0 c:/program files/microchip/xc32/v3.00/bin/bin/../../lib/gcc/pic32mx/8.3.1/fpu64\libgcc.a(_udivdi3.o)
 .debug_ranges  0x0000000000003410       0x10 c:/program files/microchip/xc32/v3.00/bin/bin/../../lib/gcc/pic32mx/8.3.1/../../../../pic32mx/lib/fpu64\libpic32.a(default-on-reset.o)
 .debug_ranges  0x0000000000003420       0x10 c:/program files/microchip/xc32/v3.00/bin/bin/../../lib/gcc/pic32mx/8.3.1/../../../../pic32mx/lib/fpu64\libpic32.a(default-on-bootstrap.o)
 .debug_ranges  0x0000000000003430       0x10 c:/program files/microchip/xc32/v3.00/bin/bin/../../lib/gcc/pic32mx/8.3.1/../../../../pic32mx/lib/fpu64\libpic32.a(defaultinterrupt.o)
 .debug_ranges  0x0000000000003440       0x10 c:/program files/microchip/xc32/v3.00/bin/bin/../../lib/gcc/pic32mx/8.3.1/../../../../pic32mx/lib/fpu64\libc.a(memmove.o)
 .debug_ranges  0x0000000000003450       0x18 c:/program files/microchip/xc32/v3.00/bin/bin/../../lib/gcc/pic32mx/8.3.1/../../../../pic32mx/lib/fpu64\libc.a(setbuf.o)
 .debug_ranges  0x0000000000003468       0x10 c:/program files/microchip/xc32/v3.00/bin/bin/../../lib/gcc/pic32mx/8.3.1/../../../../pic32mx/lib/fpu64\libc.a(strncmp.o)
 .debug_ranges  0x0000000000003478       0x10 c:/program files/microchip/xc32/v3.00/bin/bin/../../lib/gcc/pic32mx/8.3.1/../../../../pic32mx/lib/fpu64\libc.a(strncpy.o)
 .debug_ranges  0x0000000000003488       0x10 c:/program files/microchip/xc32/v3.00/bin/bin/../../lib/gcc/pic32mx/8.3.1/../../../../pic32mx/lib/fpu64\libc.a(sprintf_cdnopsuxX.eo)
 .debug_ranges  0x0000000000003498       0x18 c:/program files/microchip/xc32/v3.00/bin/bin/../../lib/gcc/pic32mx/8.3.1/../../../../pic32mx/lib/fpu64\libc.a(buf.o)
 .debug_ranges  0x00000000000034b0       0x10 c:/program files/microchip/xc32/v3.00/bin/bin/../../lib/gcc/pic32mx/8.3.1/../../../../pic32mx/lib/fpu64\libc.a(doprnt_cdnopsuxX.eo)
 .debug_ranges  0x00000000000034c0       0x10 c:/program files/microchip/xc32/v3.00/bin/bin/../../lib/gcc/pic32mx/8.3.1/../../../../pic32mx/lib/fpu64\libc.a(_fputc_simple.o)
 .debug_ranges  0x00000000000034d0       0x10 c:/program files/microchip/xc32/v3.00/bin/bin/../../lib/gcc/pic32mx/8.3.1/../../../../pic32mx/lib/fpu64\libc.a(_flsbuf_simple.o)
 .debug_ranges  0x00000000000034e0       0xa0 c:/program files/microchip/xc32/v3.00/bin/bin/../../lib/gcc/pic32mx/8.3.1/fpu64\libgcc.a(_umoddi3.o)
 .debug_ranges  0x0000000000003580       0x58 c:/program files/microchip/xc32/v3.00/bin/bin/../../lib/gcc/pic32mx/8.3.1/../../../../pic32mx/lib/fpu64\libpic32.a(sbrk.o)
 .debug_ranges  0x00000000000035d8       0x10 c:/program files/microchip/xc32/v3.00/bin/bin/../../lib/gcc/pic32mx/8.3.1/../../../../pic32mx/lib/fpu64\libpic32.a(write.o)

.gnu.attributes
                0x0000000000000000       0x10
 *(.gnu.attributes)
 .gnu.attributes
                0x0000000000000000       0x10 c:/program files/microchip/xc32/v3.00/bin/bin/../../lib/gcc/pic32mx/8.3.1/../../../../pic32mx/lib/fpu64\debug-exception-return.o
 .gnu.attributes
                0x0000000000000010       0x10 build/pic32mz/production/_ext/757013429/drv_sdspi.o
 .gnu.attributes
                0x0000000000000020       0x10 build/pic32mz/production/_ext/757013429/drv_sdspi_driver_interface.o
 .gnu.attributes
                0x0000000000000030       0x10 build/pic32mz/production/_ext/757013429/drv_sdspi_file_system.o
 .gnu.attributes
                0x0000000000000040       0x10 build/pic32mz/production/_ext/2120450970/drv_spi.o
 .gnu.attributes
                0x0000000000000050       0x10 build/pic32mz/production/_ext/1783409726/drv_usbhs.o
 .gnu.attributes
                0x0000000000000060       0x10 build/pic32mz/production/_ext/1783409726/drv_usbhs_device.o
 .gnu.attributes
                0x0000000000000070       0x10 build/pic32mz/production/_ext/1640642171/plib_cache.o
 .gnu.attributes
                0x0000000000000080       0x10 build/pic32mz/production/_ext/1640642171/plib_cache_pic32mz.o
 .gnu.attributes
                0x0000000000000090       0x10 build/pic32mz/production/_ext/10646107/plib_clk.o
 .gnu.attributes
                0x00000000000000a0       0x10 build/pic32mz/production/_ext/809018751/plib_coretimer.o
 .gnu.attributes
                0x00000000000000b0       0x10 build/pic32mz/production/_ext/330098546/plib_evic.o
 .gnu.attributes
                0x00000000000000c0       0x10 build/pic32mz/production/_ext/330152374/plib_gpio.o
 .gnu.attributes
                0x00000000000000d0       0x10 build/pic32mz/production/_ext/249272802/plib_i2c2_master.o
 .gnu.attributes
                0x00000000000000e0       0x10 build/pic32mz/production/_ext/249272802/plib_i2c4_master.o
 .gnu.attributes
                0x00000000000000f0       0x10 build/pic32mz/production/_ext/867254719/plib_spi4_master.o
 .gnu.attributes
                0x0000000000000100       0x10 build/pic32mz/production/_ext/867254719/plib_spi2_master.o
 .gnu.attributes
                0x0000000000000110       0x10 build/pic32mz/production/_ext/867254719/plib_spi1_master.o
 .gnu.attributes
                0x0000000000000120       0x10 build/pic32mz/production/_ext/10662482/plib_tmr2.o
 .gnu.attributes
                0x0000000000000130       0x10 build/pic32mz/production/_ext/330555317/plib_uart5.o
 .gnu.attributes
                0x0000000000000140       0x10 build/pic32mz/production/_ext/330555317/plib_uart6.o
 .gnu.attributes
                0x0000000000000150       0x10 build/pic32mz/production/_ext/330555317/plib_uart3.o
 .gnu.attributes
                0x0000000000000160       0x10 build/pic32mz/production/_ext/330555317/plib_uart4.o
 .gnu.attributes
                0x0000000000000170       0x10 build/pic32mz/production/_ext/330555317/plib_uart1.o
 .gnu.attributes
                0x0000000000000180       0x10 build/pic32mz/production/_ext/330555317/plib_uart2.o
 .gnu.attributes
                0x0000000000000190       0x10 build/pic32mz/production/_ext/1991269565/xc32_monitor.o
 .gnu.attributes
                0x00000000000001a0       0x10 build/pic32mz/production/_ext/1519118610/sys_cache.o
 .gnu.attributes
                0x00000000000001b0       0x10 build/pic32mz/production/_ext/1373644956/sys_dma.o
 .gnu.attributes
                0x00000000000001c0       0x10 build/pic32mz/production/_ext/1192657380/ff.o
 .gnu.attributes
                0x00000000000001d0       0x10 build/pic32mz/production/_ext/1192657380/ffunicode.o
 .gnu.attributes
                0x00000000000001e0       0x10 build/pic32mz/production/_ext/727274963/diskio.o
 .gnu.attributes
                0x00000000000001f0       0x10 build/pic32mz/production/_ext/252936118/sys_fs.o
 .gnu.attributes
                0x0000000000000200       0x10 build/pic32mz/production/_ext/252936118/sys_fs_media_manager.o
 .gnu.attributes
                0x0000000000000210       0x10 build/pic32mz/production/_ext/252936118/sys_fs_fat_interface.o
 .gnu.attributes
                0x0000000000000220       0x10 build/pic32mz/production/_ext/1832149040/sys_int.o
 .gnu.attributes
                0x0000000000000230       0x10 build/pic32mz/production/_ext/1636986698/sys_time.o
 .gnu.attributes
                0x0000000000000240       0x10 build/pic32mz/production/_ext/202551283/usb_device.o
 .gnu.attributes
                0x0000000000000250       0x10 build/pic32mz/production/_ext/202551283/usb_device_cdc.o
 .gnu.attributes
                0x0000000000000260       0x10 build/pic32mz/production/_ext/202551283/usb_device_cdc_acm.o
 .gnu.attributes
                0x0000000000000270       0x10 build/pic32mz/production/_ext/953055421/usb_device_init_data.o
 .gnu.attributes
                0x0000000000000280       0x10 build/pic32mz/production/_ext/953055421/tasks.o
 .gnu.attributes
                0x0000000000000290       0x10 build/pic32mz/production/_ext/953055421/initialization.o
 .gnu.attributes
                0x00000000000002a0       0x10 build/pic32mz/production/_ext/953055421/interrupts.o
 .gnu.attributes
                0x00000000000002b0       0x10 build/pic32mz/production/_ext/953055421/exceptions.o
 .gnu.attributes
                0x00000000000002c0       0x10 build/pic32mz/production/_ext/1360937237/app.o
 .gnu.attributes
                0x00000000000002d0       0x10 build/pic32mz/production/_ext/1360937237/main.o
 .gnu.attributes
                0x00000000000002e0       0x10 build/pic32mz/production/_ext/1360937237/communication.o
 .gnu.attributes
                0x00000000000002f0       0x10 build/pic32mz/production/_ext/1360937237/mdot.o
 .gnu.attributes
                0x0000000000000300       0x10 build/pic32mz/production/_ext/1360937237/stringbuffer.o
 .gnu.attributes
                0x0000000000000310       0x10 C:\Users\VAMSIK~1.A\AppData\Local\Temp\cc9bld9L.o
 .gnu.attributes
                0x0000000000000320       0x10 C:\Users\VAMSIK~1.A\AppData\Local\Temp\ccZi5BUv.o
 .gnu.attributes
                0x0000000000000330       0x10 C:\Users\VAMSIK~1.A\AppData\Local\Temp\ccCYw0TJ.o
 .gnu.attributes
                0x0000000000000340       0x10 C:\Users\VAMSIK~1.A\AppData\Local\Temp\cchP97wt.o
 .gnu.attributes
                0x0000000000000350       0x10 c:/program files/microchip/xc32/v3.00/bin/bin/../../lib/gcc/pic32mx/8.3.1/../../../../pic32mx/lib/fpu64\pic32_software_reset.o
 .gnu.attributes
                0x0000000000000360       0x10 c:/program files/microchip/xc32/v3.00/bin/bin/../../lib/gcc/pic32mx/8.3.1/fpu64\libgcc.a(_udivdi3.o)
 .gnu.attributes
                0x0000000000000370       0x10 c:/program files/microchip/xc32/v3.00/bin/bin/../../lib/gcc/pic32mx/8.3.1/../../../../pic32mx/lib/fpu64\libpic32.a(memcmp.o)
 .gnu.attributes
                0x0000000000000380       0x10 c:/program files/microchip/xc32/v3.00/bin/bin/../../lib/gcc/pic32mx/8.3.1/../../../../pic32mx/lib/fpu64\libpic32.a(memcpy.o)
 .gnu.attributes
                0x0000000000000390       0x10 c:/program files/microchip/xc32/v3.00/bin/bin/../../lib/gcc/pic32mx/8.3.1/../../../../pic32mx/lib/fpu64\libpic32.a(memset.o)
 .gnu.attributes
                0x00000000000003a0       0x10 c:/program files/microchip/xc32/v3.00/bin/bin/../../lib/gcc/pic32mx/8.3.1/../../../../pic32mx/lib/fpu64\libpic32.a(strcmp.o)
 .gnu.attributes
                0x00000000000003b0       0x10 c:/program files/microchip/xc32/v3.00/bin/bin/../../lib/gcc/pic32mx/8.3.1/../../../../pic32mx/lib/fpu64\libpic32.a(strcpy.o)
 .gnu.attributes
                0x00000000000003c0       0x10 c:/program files/microchip/xc32/v3.00/bin/bin/../../lib/gcc/pic32mx/8.3.1/../../../../pic32mx/lib/fpu64\libpic32.a(strlen.o)
 .gnu.attributes
                0x00000000000003d0       0x10 c:/program files/microchip/xc32/v3.00/bin/bin/../../lib/gcc/pic32mx/8.3.1/../../../../pic32mx/lib/fpu64\libpic32.a(default-on-reset.o)
 .gnu.attributes
                0x00000000000003e0       0x10 c:/program files/microchip/xc32/v3.00/bin/bin/../../lib/gcc/pic32mx/8.3.1/../../../../pic32mx/lib/fpu64\libpic32.a(default-on-bootstrap.o)
 .gnu.attributes
                0x00000000000003f0       0x10 c:/program files/microchip/xc32/v3.00/bin/bin/../../lib/gcc/pic32mx/8.3.1/../../../../pic32mx/lib/fpu64\libpic32.a(default-nmi-handler.o)
 .gnu.attributes
                0x0000000000000400       0x10 c:/program files/microchip/xc32/v3.00/bin/bin/../../lib/gcc/pic32mx/8.3.1/../../../../pic32mx/lib/fpu64\libpic32.a(pic32_data_init.o)
 .gnu.attributes
                0x0000000000000410       0x10 c:/program files/microchip/xc32/v3.00/bin/bin/../../lib/gcc/pic32mx/8.3.1/../../../../pic32mx/lib/fpu64\libpic32.a(pic32_init_cache.o)
 .gnu.attributes
                0x0000000000000420       0x10 c:/program files/microchip/xc32/v3.00/bin/bin/../../lib/gcc/pic32mx/8.3.1/../../../../pic32mx/lib/fpu64\libpic32.a(pic32_init_tlb_ebi_sqi.o)
 .gnu.attributes
                0x0000000000000430       0x10 c:/program files/microchip/xc32/v3.00/bin/bin/../../lib/gcc/pic32mx/8.3.1/../../../../pic32mx/lib/fpu64\libpic32.a(general-exception.o)
 .gnu.attributes
                0x0000000000000440       0x10 c:/program files/microchip/xc32/v3.00/bin/bin/../../lib/gcc/pic32mx/8.3.1/../../../../pic32mx/lib/fpu64\libpic32.a(cache-err-exception.o)
 .gnu.attributes
                0x0000000000000450       0x10 c:/program files/microchip/xc32/v3.00/bin/bin/../../lib/gcc/pic32mx/8.3.1/../../../../pic32mx/lib/fpu64\libpic32.a(simple-tlb-refill-exception.o)
 .gnu.attributes
                0x0000000000000460       0x10 c:/program files/microchip/xc32/v3.00/bin/bin/../../lib/gcc/pic32mx/8.3.1/../../../../pic32mx/lib/fpu64\libpic32.a(defaultinterrupt.o)
 .gnu.attributes
                0x0000000000000470       0x10 c:/program files/microchip/xc32/v3.00/bin/bin/../../lib/gcc/pic32mx/8.3.1/../../../../pic32mx/lib/fpu64\libc.a(_iob.o)
 .gnu.attributes
                0x0000000000000480       0x10 c:/program files/microchip/xc32/v3.00/bin/bin/../../lib/gcc/pic32mx/8.3.1/../../../../pic32mx/lib/fpu64\libc.a(memmove.o)
 .gnu.attributes
                0x0000000000000490       0x10 c:/program files/microchip/xc32/v3.00/bin/bin/../../lib/gcc/pic32mx/8.3.1/../../../../pic32mx/lib/fpu64\libc.a(setbuf.o)
 .gnu.attributes
                0x00000000000004a0       0x10 c:/program files/microchip/xc32/v3.00/bin/bin/../../lib/gcc/pic32mx/8.3.1/../../../../pic32mx/lib/fpu64\libc.a(strncmp.o)
 .gnu.attributes
                0x00000000000004b0       0x10 c:/program files/microchip/xc32/v3.00/bin/bin/../../lib/gcc/pic32mx/8.3.1/../../../../pic32mx/lib/fpu64\libc.a(strncpy.o)
 .gnu.attributes
                0x00000000000004c0       0x10 c:/program files/microchip/xc32/v3.00/bin/bin/../../lib/gcc/pic32mx/8.3.1/../../../../pic32mx/lib/fpu64\libc.a(sprintf_cdnopsuxX.eo)
 .gnu.attributes
                0x00000000000004d0       0x10 c:/program files/microchip/xc32/v3.00/bin/bin/../../lib/gcc/pic32mx/8.3.1/../../../../pic32mx/lib/fpu64\libc.a(buf.o)
 .gnu.attributes
                0x00000000000004e0       0x10 c:/program files/microchip/xc32/v3.00/bin/bin/../../lib/gcc/pic32mx/8.3.1/../../../../pic32mx/lib/fpu64\libc.a(errno.o)
 .gnu.attributes
                0x00000000000004f0       0x10 c:/program files/microchip/xc32/v3.00/bin/bin/../../lib/gcc/pic32mx/8.3.1/../../../../pic32mx/lib/fpu64\libc.a(doprnt_cdnopsuxX.eo)
 .gnu.attributes
                0x0000000000000500       0x10 c:/program files/microchip/xc32/v3.00/bin/bin/../../lib/gcc/pic32mx/8.3.1/../../../../pic32mx/lib/fpu64\libc.a(_fputc_simple.o)
 .gnu.attributes
                0x0000000000000510       0x10 c:/program files/microchip/xc32/v3.00/bin/bin/../../lib/gcc/pic32mx/8.3.1/../../../../pic32mx/lib/fpu64\libc.a(ctype.o)
 .gnu.attributes
                0x0000000000000520       0x10 c:/program files/microchip/xc32/v3.00/bin/bin/../../lib/gcc/pic32mx/8.3.1/../../../../pic32mx/lib/fpu64\libc.a(_flsbuf_simple.o)
 .gnu.attributes
                0x0000000000000530       0x10 c:/program files/microchip/xc32/v3.00/bin/bin/../../lib/gcc/pic32mx/8.3.1/fpu64\libgcc.a(_lshrdi3.o)
 .gnu.attributes
                0x0000000000000540       0x10 c:/program files/microchip/xc32/v3.00/bin/bin/../../lib/gcc/pic32mx/8.3.1/fpu64\libgcc.a(_umoddi3.o)
 .gnu.attributes
                0x0000000000000550       0x10 c:/program files/microchip/xc32/v3.00/bin/bin/../../lib/gcc/pic32mx/8.3.1/../../../../pic32mx/lib/fpu64\libpic32.a(sbrk.o)
 .gnu.attributes
                0x0000000000000560       0x10 c:/program files/microchip/xc32/v3.00/bin/bin/../../lib/gcc/pic32mx/8.3.1/../../../../pic32mx/lib/fpu64\libpic32.a(write.o)
                0x000000009d000000                PROVIDE (__pic32_init_cache_program_base_addr = 0x9d000000)
                0x0000000080000000                PROVIDE (__pic32_init_cache_data_base_addr = 0x80000000)
                0x00000000d0000000                PROVIDE (__pic32_init_sqi_kseg2_virtual_base_addr = 0xd0000000)
                0x0000000030000000                PROVIDE (__pic32_init_sqi_kseg2_physical_base_addr = 0x30000000)
                0x000000000000001f                PROVIDE (__pic32_init_sqi_kseg2_entrylo0_bitset = 0x1f)
                0x00000000d0000000                __pic32_tlb_0_entryhi = __pic32_init_sqi_kseg2_virtual_base_addr
                0x0000000000c0001f                __pic32_tlb_0_entrylo0 = ((__pic32_init_sqi_kseg2_physical_base_addr >> 0x6) | __pic32_init_sqi_kseg2_entrylo0_bitset)
                0x0000000000c4001f                __pic32_tlb_0_entrylo1 = (__pic32_tlb_0_entrylo0 | ((__pic32_init_sqi_kseg2_physical_base_addr + 0x1000000) >> 0x6))
                0x00000000d2000000                __pic32_tlb_1_entryhi = (__pic32_init_sqi_kseg2_virtual_base_addr + 0x2000000)
                0x0000000000c8001f                __pic32_tlb_1_entrylo0 = (((__pic32_init_sqi_kseg2_physical_base_addr + 0x2000000) >> 0x6) | __pic32_init_sqi_kseg2_entrylo0_bitset)
                0x0000000000cc001f                __pic32_tlb_1_entrylo1 = (__pic32_tlb_1_entrylo0 | 0x40000)
                0x00000000f0000000                PROVIDE (__pic32_init_sqi_kseg3_virtual_base_addr = 0xf0000000)
                0x0000000030000000                PROVIDE (__pic32_init_sqi_kseg3_physical_base_addr = 0x30000000)
                0x0000000000000017                PROVIDE (__pic32_init_sqi_kseg3_entrylo0_bitset = 0x17)
                0x00000000f0000000                __pic32_tlb_2_entryhi = __pic32_init_sqi_kseg3_virtual_base_addr
                0x0000000000c00017                __pic32_tlb_2_entrylo0 = ((__pic32_init_sqi_kseg3_physical_base_addr >> 0x6) | __pic32_init_sqi_kseg3_entrylo0_bitset)
                0x0000000000c40017                __pic32_tlb_2_entrylo1 = (__pic32_tlb_2_entrylo0 | ((__pic32_init_sqi_kseg3_physical_base_addr + 0x1000000) >> 0x6))
                0x00000000f2000000                __pic32_tlb_3_entryhi = (__pic32_init_sqi_kseg3_virtual_base_addr + 0x2000000)
                0x0000000000c80017                __pic32_tlb_3_entrylo0 = (((__pic32_init_sqi_kseg3_physical_base_addr + 0x2000000) >> 0x6) | __pic32_init_sqi_kseg3_entrylo0_bitset)
                0x0000000000cc0017                __pic32_tlb_3_entrylo1 = (__pic32_tlb_3_entrylo0 | 0x40000)
                0x00000000c0000000                PROVIDE (__pic32_init_ebi_kseg2_virtual_base_addr = 0xc0000000)
                0x0000000020000000                PROVIDE (__pic32_init_ebi_kseg2_physical_base_addr = 0x20000000)
                0x000000000000001f                PROVIDE (__pic32_init_ebi_kseg2_entrylo0_bitset = 0x1f)
                0x00000000c0000000                __pic32_tlb_4_entryhi = __pic32_init_ebi_kseg2_virtual_base_addr
                0x000000000080001f                __pic32_tlb_4_entrylo0 = ((__pic32_init_ebi_kseg2_physical_base_addr >> 0x6) | __pic32_init_ebi_kseg2_entrylo0_bitset)
                0x000000000084001f                __pic32_tlb_4_entrylo1 = (__pic32_tlb_4_entrylo0 | ((__pic32_init_ebi_kseg2_physical_base_addr + 0x1000000) >> 0x6))
                0x00000000c2000000                __pic32_tlb_5_entryhi = (__pic32_init_ebi_kseg2_virtual_base_addr + 0x2000000)
                0x000000000088001f                __pic32_tlb_5_entrylo0 = (((__pic32_init_ebi_kseg2_physical_base_addr + 0x2000000) >> 0x6) | __pic32_init_ebi_kseg2_entrylo0_bitset)
                0x00000000008c001f                __pic32_tlb_5_entrylo1 = (__pic32_tlb_5_entrylo0 | 0x40000)
                0x00000000e0000000                PROVIDE (__pic32_init_ebi_kseg3_virtual_base_addr = 0xe0000000)
                0x0000000020000000                PROVIDE (__pic32_init_ebi_kseg3_physical_base_addr = 0x20000000)
                0x0000000000000017                PROVIDE (__pic32_init_ebi_kseg3_entrylo0_bitset = 0x17)
                0x00000000e0000000                __pic32_tlb_6_entryhi = __pic32_init_ebi_kseg3_virtual_base_addr
                0x0000000000800017                __pic32_tlb_6_entrylo0 = ((__pic32_init_ebi_kseg3_physical_base_addr >> 0x6) | __pic32_init_ebi_kseg3_entrylo0_bitset)
                0x0000000000840017                __pic32_tlb_6_entrylo1 = (__pic32_tlb_6_entrylo0 | ((__pic32_init_ebi_kseg3_physical_base_addr + 0x1000000) >> 0x6))
                0x00000000e2000000                __pic32_tlb_7_entryhi = (__pic32_init_ebi_kseg3_virtual_base_addr + 0x2000000)
                0x0000000000880017                __pic32_tlb_7_entrylo0 = (((__pic32_init_ebi_kseg3_physical_base_addr + 0x2000000) >> 0x6) | __pic32_init_ebi_kseg3_entrylo0_bitset)
                0x00000000008c0017                __pic32_tlb_7_entrylo1 = (__pic32_tlb_7_entrylo0 | 0x40000)

.tlb_init_values
                0x00000000bfc00670       0x60
                0x00000000bfc00670                . = ALIGN (0x4)
                0x00000000bfc00670                __pic32_tlb_init_values_begin = ABSOLUTE (.)
                0x00000000bfc00670        0x4 LONG 0xd0000000 __pic32_tlb_0_entryhi
                0x00000000bfc00674        0x4 LONG 0xc0001f __pic32_tlb_0_entrylo0
                0x00000000bfc00678        0x4 LONG 0xc4001f __pic32_tlb_0_entrylo1
                0x00000000bfc0067c        0x4 LONG 0xd2000000 __pic32_tlb_1_entryhi
                0x00000000bfc00680        0x4 LONG 0xc8001f __pic32_tlb_1_entrylo0
                0x00000000bfc00684        0x4 LONG 0xcc001f __pic32_tlb_1_entrylo1
                0x00000000bfc00688        0x4 LONG 0xf0000000 __pic32_tlb_2_entryhi
                0x00000000bfc0068c        0x4 LONG 0xc00017 __pic32_tlb_2_entrylo0
                0x00000000bfc00690        0x4 LONG 0xc40017 __pic32_tlb_2_entrylo1
                0x00000000bfc00694        0x4 LONG 0xf2000000 __pic32_tlb_3_entryhi
                0x00000000bfc00698        0x4 LONG 0xc80017 __pic32_tlb_3_entrylo0
                0x00000000bfc0069c        0x4 LONG 0xcc0017 __pic32_tlb_3_entrylo1
                0x00000000bfc006a0        0x4 LONG 0xc0000000 __pic32_tlb_4_entryhi
                0x00000000bfc006a4        0x4 LONG 0x80001f __pic32_tlb_4_entrylo0
                0x00000000bfc006a8        0x4 LONG 0x84001f __pic32_tlb_4_entrylo1
                0x00000000bfc006ac        0x4 LONG 0xc2000000 __pic32_tlb_5_entryhi
                0x00000000bfc006b0        0x4 LONG 0x88001f __pic32_tlb_5_entrylo0
                0x00000000bfc006b4        0x4 LONG 0x8c001f __pic32_tlb_5_entrylo1
                0x00000000bfc006b8        0x4 LONG 0xe0000000 __pic32_tlb_6_entryhi
                0x00000000bfc006bc        0x4 LONG 0x800017 __pic32_tlb_6_entrylo0
                0x00000000bfc006c0        0x4 LONG 0x840017 __pic32_tlb_6_entrylo1
                0x00000000bfc006c4        0x4 LONG 0xe2000000 __pic32_tlb_7_entryhi
                0x00000000bfc006c8        0x4 LONG 0x880017 __pic32_tlb_7_entrylo0
                0x00000000bfc006cc        0x4 LONG 0x8c0017 __pic32_tlb_7_entrylo1
                0x00000000bfc006d0                __pic32_tlb_init_values_end = ABSOLUTE (.)
                0x00000000bfc00678                __pic32_tlb_init_values_count = 0x8
                0x0000000000000200                _min_heap_size = 0x200
LOAD C:\Users\VAMSIK~1.A\AppData\Local\Temp\cc9bld9L.o
LOAD C:\Users\VAMSIK~1.A\AppData\Local\Temp\ccZi5BUv.o
LOAD C:\Users\VAMSIK~1.A\AppData\Local\Temp\ccCYw0TJ.o
LOAD C:\Users\VAMSIK~1.A\AppData\Local\Temp\cchP97wt.o
LOAD c:/program files/microchip/xc32/v3.00/bin/bin/../../lib/gcc/pic32mx/8.3.1/../../../../pic32mx/lib/fpu64\pic32_software_reset.o
LOAD c:/program files/microchip/xc32/v3.00/bin/bin/../../lib/gcc/pic32mx/8.3.1/fpu64\libgcc.a
START GROUP
LOAD c:/program files/microchip/xc32/v3.00/bin/bin/../../lib/gcc/pic32mx/8.3.1/../../../../pic32mx/lib/fpu64\libpic32.a
LOAD c:/program files/microchip/xc32/v3.00/bin/bin/../../lib/gcc/pic32mx/8.3.1/../../../../pic32mx/lib/fpu64\libdebug.a
LOAD c:/program files/microchip/xc32/v3.00/bin/bin/../../lib/gcc/pic32mx/8.3.1/../../../../pic32mx/lib/fpu64\libc.a
LOAD c:/program files/microchip/xc32/v3.00/bin/bin/../../lib/gcc/pic32mx/8.3.1/../../../../pic32mx/lib/fpu64\libmfd.a
LOAD c:/program files/microchip/xc32/v3.00/bin/bin/../../lib/gcc/pic32mx/8.3.1/../../../../pic32mx/lib/fpu64\libm.a
LOAD c:/program files/microchip/xc32/v3.00/bin/bin/../../lib/gcc/pic32mx/8.3.1/../../../../pic32mx/lib/fpu64\libe.a
LOAD c:/program files/microchip/xc32/v3.00/bin/bin/../../lib/gcc/pic32mx/8.3.1/../../../../pic32mx/lib/fpu64\libdspr2.a
LOAD c:/program files/microchip/xc32/v3.00/bin/bin/../../lib/gcc/pic32mx/8.3.1/../../../../pic32mx/lib/fpu64\libdsp.a
LOAD c:/program files/microchip/xc32/v3.00/bin/bin/../../lib/gcc/pic32mx/8.3.1/fpu64\libgcc.a
LOAD c:/program files/microchip/xc32/v3.00/bin/bin/../../lib/gcc/pic32mx/8.3.1/../../../../pic32mx/lib/fpu64\libpic32.a
END GROUP
LOAD c:/program files/microchip/xc32/v3.00/bin/bin/../../lib/gcc/pic32mx/8.3.1/fpu64\libgcc.a
OUTPUT(dist/pic32mz/production/GHG_App_V1.0.X.production.elf elf32-tradlittlemips)
LOAD stack
LOAD data_init

.reginfo        0x0000000000000000       0x18
 .reginfo       0x0000000000000000       0x18 c:/program files/microchip/xc32/v3.00/bin/bin/../../lib/gcc/pic32mx/8.3.1/../../../../pic32mx/lib/fpu64\debug-exception-return.o

.stack          0x0000000080008a70      0x400
 .stack         0x0000000080008a70      0x400 stack

.__vector_offset_BF810540_data
                0x00000000bf810540      0x1ac
 .__vector_offset_BF810540_data
                0x00000000bf810540      0x1ac C:\Users\VAMSIK~1.A\AppData\Local\Temp\ccCYw0TJ.o

.__vector_offset_BF8106F4_data
                0x00000000bf8106f4       0xa8
 .__vector_offset_BF8106F4_data
                0x00000000bf8106f4       0xa8 C:\Users\VAMSIK~1.A\AppData\Local\Temp\ccCYw0TJ.o

.__vector_offset_BF8107A4_data
                0x00000000bf8107a4       0x98
 .__vector_offset_BF8107A4_data
                0x00000000bf8107a4       0x98 C:\Users\VAMSIK~1.A\AppData\Local\Temp\ccCYw0TJ.o

.__vector_offset_BF810874_data
                0x00000000bf810874       0x18
 .__vector_offset_BF810874_data
                0x00000000bf810874       0x18 C:\Users\VAMSIK~1.A\AppData\Local\Temp\ccCYw0TJ.o

.__vector_offset_BF810858_data
                0x00000000bf810858       0x14
 .__vector_offset_BF810858_data
                0x00000000bf810858       0x14 C:\Users\VAMSIK~1.A\AppData\Local\Temp\ccCYw0TJ.o

.__vector_offset_BF810840_data
                0x00000000bf810840        0xc
 .__vector_offset_BF810840_data
                0x00000000bf810840        0xc C:\Users\VAMSIK~1.A\AppData\Local\Temp\ccCYw0TJ.o

.__vector_offset_BF810850_data
                0x00000000bf810850        0x4
 .__vector_offset_BF810850_data
                0x00000000bf810850        0x4 C:\Users\VAMSIK~1.A\AppData\Local\Temp\ccCYw0TJ.o

.__vector_offset_BF810894_data
                0x00000000bf810894        0x4
 .__vector_offset_BF810894_data
                0x00000000bf810894        0x4 C:\Users\VAMSIK~1.A\AppData\Local\Temp\ccCYw0TJ.o

.COHERENTBSS$   0x00000000a00000a0     0x4b26
 .COHERENTBSS$  0x00000000a00000a0     0x36b0 build/pic32mz/production/_ext/252936118/sys_fs_fat_interface.o
 .bss.gSysFsDiskData.gSysFsDiskData
                0x00000000a0003750      0x210 build/pic32mz/production/_ext/727274963/diskio.o
 .bss.gUSBDeviceCDCSerialStateResponse.gUSBDeviceCDCSerialStateResponse
                0x00000000a0003960        0xa build/pic32mz/production/_ext/202551283/usb_device_cdc.o
                0x00000000a0003960                gUSBDeviceCDCSerialStateResponse
 *fill*         0x00000000a000396a        0x2 
 .bss.FATFSVolume.FATFSVolume
                0x00000000a000396c      0x23c build/pic32mz/production/_ext/252936118/sys_fs_fat_interface.o
 .bss.gSYSFSMediaBlockBuffer.gSYSFSMediaBlockBuffer
                0x00000000a0003ba8      0x800 build/pic32mz/production/_ext/252936118/sys_fs_media_manager.o
                0x00000000a0003ba8                gSYSFSMediaBlockBuffer
 .bss.gSYSFSMediaBuffer.gSYSFSMediaBuffer
                0x00000000a00043a8      0x200 build/pic32mz/production/_ext/252936118/sys_fs_media_manager.o
                0x00000000a00043a8                gSYSFSMediaBuffer
 .bss.gDrvSPIObj.gDrvSPIObj
                0x00000000a00045a8       0x50 build/pic32mz/production/_ext/2120450970/drv_spi.o
 .bss.gDrvSDSPITempCidData.gDrvSDSPITempCidData
                0x00000000a00045f8       0x14 build/pic32mz/production/_ext/757013429/drv_sdspi.o
 .bss.gDrvSDSPICidData.gDrvSDSPICidData
                0x00000000a000460c       0x14 build/pic32mz/production/_ext/757013429/drv_sdspi.o
 .bss.gDrvSDSPICsdData.gDrvSDSPICsdData
                0x00000000a0004620       0x14 build/pic32mz/production/_ext/757013429/drv_sdspi.o
 .bss.gDrvSDSPICmdResponseBuffer.gDrvSDSPICmdResponseBuffer
                0x00000000a0004634       0x10 build/pic32mz/production/_ext/757013429/drv_sdspi.o
 .bss.FATFSDirObject.FATFSDirObject
                0x00000000a0004644      0x578 build/pic32mz/production/_ext/252936118/sys_fs_fat_interface.o
 .bss.gDrvSDSPIClkPulseData.gDrvSDSPIClkPulseData
                0x00000000a0004bbc        0xa build/pic32mz/production/_ext/757013429/drv_sdspi.o

.bss            0x0000000080004bd0     0x1c34
 .bss           0x0000000080004bd0     0x1c34 build/pic32mz/production/_ext/252936118/sys_fs.o
                0x0000000080004bd0                gSYSFSDirObj
                0x0000000080004d60                gSYSFSFileObj
                0x00000000800067f0                gSYSFSMountPoint

.bss            0x0000000080006808     0x11ac
 .bss           0x0000000080006808      0xe1c build/pic32mz/production/_ext/1360937237/mdot.o
                0x0000000080006808                strTest
                0x00000000800068d0                payload
                0x0000000080006910                stringBuffer
                0x000000008000750c                mDotData
 .bss           0x0000000080007624      0x390 build/pic32mz/production/_ext/1192657380/ff.o

.bss            0x00000000800079b4      0x43c
 .bss           0x00000000800079b4      0x268 build/pic32mz/production/_ext/953055421/initialization.o
                0x00000000800079b4                sysObj
 .bss           0x0000000080007c1c      0x1d4 build/pic32mz/production/_ext/1783409726/drv_usbhs.o
                0x0000000080007c1c                gDrvUSBEndpoints
                0x0000000080007cbc                gDrvUSBObj

.bss            0x0000000080007df0      0x320
 .bss           0x0000000080007df0      0x1c8 build/pic32mz/production/_ext/1360937237/communication.o
                0x0000000080007df0                uartComData6
 .bss           0x0000000080007fb8      0x158 build/pic32mz/production/_ext/202551283/usb_device.o

.bss            0x0000000080008110      0x1f4
 .bss           0x0000000080008110      0x108 build/pic32mz/production/_ext/1360937237/app.o
                0x0000000080008110                appData
 .bss           0x0000000080008218       0xec build/pic32mz/production/_ext/1636986698/sys_time.o

.bss            0x0000000080008304      0x180
 .bss           0x0000000080008304       0xd0 build/pic32mz/production/_ext/757013429/drv_sdspi.o
 .bss           0x00000000800083d4       0xb0 build/pic32mz/production/_ext/202551283/usb_device_cdc.o
                0x00000000800083d4                gUSBDeviceCDCInstance
                0x0000000080008418                gUSBDeviceCDCIRP

.data           0x0000000080008484       0xf4
 .data          0x0000000080008484       0xa4 c:/program files/microchip/xc32/v3.00/bin/bin/../../lib/gcc/pic32mx/8.3.1/../../../../pic32mx/lib/fpu64\libc.a(_iob.o)
                0x0000000080008484                _Files
                0x0000000080008488                _iob
 .data          0x0000000080008528       0x50 build/pic32mz/production/_ext/1783409726/drv_usbhs_device.o
                0x0000000080008528                gDrvUSBHSDeviceInterface

.bss            0x0000000080008578       0x89
 .bss           0x0000000080008578       0x48 build/pic32mz/production/_ext/252936118/sys_fs_media_manager.o
                0x0000000080008578                gSYSFSVolumeObject
                0x0000000080008594                gSYSFSMediaObject
 .bss           0x00000000800085c0       0x41 c:/program files/microchip/xc32/v3.00/bin/bin/../../lib/gcc/pic32mx/8.3.1/../../../../pic32mx/lib/fpu64\libc.a(_iob.o)
                0x00000000800085c0                _sobuf
                0x00000000800085e0                _sibuf
                0x0000000080008600                _outdone

.bss            0x0000000080008604       0x68
 .bss           0x0000000080008604       0x34 build/pic32mz/production/_ext/249272802/plib_i2c2_master.o
 .bss           0x0000000080008638       0x34 build/pic32mz/production/_ext/249272802/plib_i2c4_master.o

.bss            0x000000008000866c       0x68
 .bss           0x000000008000866c       0x34 build/pic32mz/production/_ext/330555317/plib_uart6.o
                0x000000008000866c                uart6Obj
 .bss           0x00000000800086a0       0x34 build/pic32mz/production/_ext/330555317/plib_uart3.o
                0x00000000800086a0                uart3Obj

.bss            0x00000000800086d4       0x68
 .bss           0x00000000800086d4       0x34 build/pic32mz/production/_ext/330555317/plib_uart4.o
                0x00000000800086d4                uart4Obj
 .bss           0x0000000080008708       0x34 build/pic32mz/production/_ext/330555317/plib_uart1.o
                0x0000000080008708                uart1Obj

.bss            0x000000008000873c       0x34
 .bss           0x000000008000873c       0x34 build/pic32mz/production/_ext/330555317/plib_uart2.o
                0x000000008000873c                uart2Obj

.data           0x0000000080008770       0x2c
 .data          0x0000000080008770       0x2c build/pic32mz/production/_ext/252936118/sys_fs_media_manager.o
                0x0000000080008770                gSYSFSMediaManagerObj
                0x0000000080008788                gSYSFSVolumeName

.bss            0x000000008000879c       0x50
 .bss           0x000000008000879c       0x28 build/pic32mz/production/_ext/867254719/plib_spi4_master.o
                0x000000008000879c                spi4Obj
 .bss           0x00000000800087c4       0x28 build/pic32mz/production/_ext/867254719/plib_spi2_master.o
                0x00000000800087c4                spi2Obj

.bss            0x00000000800087ec       0x4c
 .bss           0x00000000800087ec       0x28 build/pic32mz/production/_ext/867254719/plib_spi1_master.o
                0x00000000800087ec                spi1Obj
 .bss           0x0000000080008814       0x24 c:/program files/microchip/xc32/v3.00/bin/bin/../../lib/gcc/pic32mx/8.3.1/../../../../pic32mx/lib/fpu64\libpic32.a(sbrk.o)
                0x0000000080008830                _maxbrk
                0x0000000080008834                _minbrk

.bss            0x0000000080008838       0x18
 .bss           0x0000000080008838       0x18 build/pic32mz/production/_ext/330152374/plib_gpio.o
                0x0000000080008838                portPinCbObj

.bss            0x000000008000009c        0x4
 .bss           0x000000008000009c        0x4 c:/program files/microchip/xc32/v3.00/bin/bin/../../lib/gcc/pic32mx/8.3.1/../../../../pic32mx/lib/fpu64\libc.a(buf.o)

.bss.errno      0x0000000080006804        0x4
 .bss.errno     0x0000000080006804        0x4 c:/program files/microchip/xc32/v3.00/bin/bin/../../lib/gcc/pic32mx/8.3.1/../../../../pic32mx/lib/fpu64\libc.a(errno.o)
                0x0000000080006804                errno

._debug_exception
                0x00000000bfc00480       0x2c
 ._debug_exception
                0x00000000bfc00480       0x2c c:/program files/microchip/xc32/v3.00/bin/bin/../../lib/gcc/pic32mx/8.3.1/../../../../pic32mx/lib/fpu64\debug-exception-return.o
                0x00000000bfc00480                __DbgExecReturn

.text.DRV_SDSPI_Tasks
                0x000000009d000338     0x2bcc
 .text.DRV_SDSPI_Tasks
                0x000000009d000338     0x2bcc build/pic32mz/production/_ext/757013429/drv_sdspi.o
                0x000000009d000338                DRV_SDSPI_Tasks

.text._DRV_SDSPI_CommandSend
                0x000000009d002f04      0xdbc
 .text._DRV_SDSPI_CommandSend
                0x000000009d002f04      0xdbc build/pic32mz/production/_ext/757013429/drv_sdspi.o

.text.f_mkfs    0x000000009d003cc0      0xbc4
 .text.f_mkfs   0x000000009d003cc0      0xbc4 build/pic32mz/production/_ext/1192657380/ff.o
                0x000000009d003cc0                f_mkfs

.text._DRV_USBHS_DEVICE_Tasks_ISR
                0x000000009d004884      0x9b4
 .text._DRV_USBHS_DEVICE_Tasks_ISR
                0x000000009d004884      0x9b4 build/pic32mz/production/_ext/1783409726/drv_usbhs_device.o
                0x000000009d004884                _DRV_USBHS_DEVICE_Tasks_ISR

.text._vfprintf_cdnopsuxX
                0x000000009d005238      0x8cc
 .text._vfprintf_cdnopsuxX
                0x000000009d005238      0x8cc c:/program files/microchip/xc32/v3.00/bin/bin/../../lib/gcc/pic32mx/8.3.1/../../../../pic32mx/lib/fpu64\libc.a(doprnt_cdnopsuxX.eo)
                0x000000009d005238                _vfprintf_cdnopsuxX

.dinit          0x000000009d005b04      0x7a0
 .dinit         0x000000009d005b04      0x7a0 data_init

.text.SYS_FS_MEDIA_MANAGER_Tasks
                0x000000009d0062a4      0x6cc
 .text.SYS_FS_MEDIA_MANAGER_Tasks
                0x000000009d0062a4      0x6cc build/pic32mz/production/_ext/252936118/sys_fs_media_manager.o
                0x000000009d0062a4                SYS_FS_MEDIA_MANAGER_Tasks

.text           0x000000009d006970      0x6bc
 .text          0x000000009d006970      0x6bc build/pic32mz/production/_ext/1640642171/plib_cache_pic32mz.o
                0x000000009d006970                _pic32_init_cache
                0x000000009d006a74                _pic32_clean_cache
                0x000000009d006aa0                _pic32_clean_dcache
                0x000000009d006af8                _pic32_clean_dcache_nowrite
                0x000000009d006b50                _pic32_clean_icache
                0x000000009d006ba8                _pic32_flush_cache
                0x000000009d006bd4                _pic32_flush_dcache
                0x000000009d006c68                _pic32_flush_icache
                0x000000009d006cfc                _pic32_lock_dcache
                0x000000009d006d54                _pic32_lock_icache
                0x000000009d006dac                _pic32_sync_icache
                0x000000009d006de8                _pic32_get_dcache_associativity
                0x000000009d006e1c                _pic32_get_icache_associativity
                0x000000009d006e54                _pic32_get_dcache_linesize
                0x000000009d006e98                _pic32_get_icache_linesize
                0x000000009d006ee0                _pic32_get_dcache_lines_per_way
                0x000000009d006f1c                _pic32_get_icache_lines_per_way
                0x000000009d006f5c                _pic32_get_dcache_size
                0x000000009d006fc4                _pic32_get_icache_size

.text.follow_path
                0x000000009d00702c      0x670
 .text.follow_path
                0x000000009d00702c      0x670 build/pic32mz/production/_ext/1192657380/ff.o

.text.mount_volume
                0x000000009d00769c      0x58c
 .text.mount_volume
                0x000000009d00769c      0x58c build/pic32mz/production/_ext/1192657380/ff.o

.text.DRV_USBHS_Tasks
                0x000000009d007c28      0x568
 .text.DRV_USBHS_Tasks
                0x000000009d007c28      0x568 build/pic32mz/production/_ext/1783409726/drv_usbhs.o
                0x000000009d007c28                DRV_USBHS_Tasks

.text.DRV_USBHS_DEVICE_IRPSubmit
                0x000000009d008190      0x510
 .text.DRV_USBHS_DEVICE_IRPSubmit
                0x000000009d008190      0x510 build/pic32mz/production/_ext/1783409726/drv_usbhs_device.o
                0x000000009d008190                DRV_USBHS_DEVICE_IRPSubmit

.text.f_printf  0x000000009d0086a0      0x4fc
 .text.f_printf
                0x000000009d0086a0      0x4fc build/pic32mz/production/_ext/1192657380/ff.o
                0x000000009d0086a0                f_printf

.text.I2C2_MASTER_InterruptHandler
                0x000000009d008b9c      0x4b4
 .text.I2C2_MASTER_InterruptHandler
                0x000000009d008b9c      0x4b4 build/pic32mz/production/_ext/249272802/plib_i2c2_master.o
                0x000000009d008b9c                I2C2_MASTER_InterruptHandler

.text.I2C4_MASTER_InterruptHandler
                0x000000009d009050      0x4b4
 .text.I2C4_MASTER_InterruptHandler
                0x000000009d009050      0x4b4 build/pic32mz/production/_ext/249272802/plib_i2c4_master.o
                0x000000009d009050                I2C4_MASTER_InterruptHandler

.text.dir_register
                0x000000009d009504      0x448
 .text.dir_register
                0x000000009d009504      0x448 build/pic32mz/production/_ext/1192657380/ff.o

.text._DRV_USBHS_ProcessIRPFIFO
                0x000000009d00994c      0x43c
 .text._DRV_USBHS_ProcessIRPFIFO
                0x000000009d00994c      0x43c build/pic32mz/production/_ext/1783409726/drv_usbhs_device.o
                0x000000009d00994c                _DRV_USBHS_ProcessIRPFIFO

.text           0x000000009d009d88      0x3f8
 .text          0x000000009d009d88      0x3f8 c:/program files/microchip/xc32/v3.00/bin/bin/../../lib/gcc/pic32mx/8.3.1/fpu64\libgcc.a(_umoddi3.o)
                0x000000009d009d88                __umoddi3

.text.f_open    0x000000009d00a180      0x3f0
 .text.f_open   0x000000009d00a180      0x3f0 build/pic32mz/production/_ext/1192657380/ff.o
                0x000000009d00a180                f_open

.text           0x000000009d00a570      0x3ec
 .text          0x000000009d00a570      0x3ec c:/program files/microchip/xc32/v3.00/bin/bin/../../lib/gcc/pic32mx/8.3.1/fpu64\libgcc.a(_udivdi3.o)
                0x000000009d00a570                __udivdi3

.text.DRV_USBHS_DEVICE_EndpointEnable
                0x000000009d00a95c      0x3e8
 .text.DRV_USBHS_DEVICE_EndpointEnable
                0x000000009d00a95c      0x3e8 build/pic32mz/production/_ext/1783409726/drv_usbhs_device.o
                0x000000009d00a95c                DRV_USBHS_DEVICE_EndpointEnable

.text.mDotCommand
                0x000000009d00ad44      0x3bc
 .text.mDotCommand
                0x000000009d00ad44      0x3bc build/pic32mz/production/_ext/1360937237/mdot.o
                0x000000009d00ad44                mDotCommand

.rodata         0x000000009d00b100      0x3b0
 .rodata        0x000000009d00b100      0x3b0 build/pic32mz/production/_ext/1192657380/ffunicode.o

.text.DRV_SDSPI_SetupXfer
                0x000000009d00b4b0      0x32c
 .text.DRV_SDSPI_SetupXfer
                0x000000009d00b4b0      0x32c build/pic32mz/production/_ext/757013429/drv_sdspi.o
                0x000000009d00b4b0                DRV_SDSPI_SetupXfer

.text.f_write   0x000000009d00b7dc      0x328
 .text.f_write  0x000000009d00b7dc      0x328 build/pic32mz/production/_ext/1192657380/ff.o
                0x000000009d00b7dc                f_write

.text.SPI4_RX_InterruptHandler
                0x000000009d00bb04      0x324
 .text.SPI4_RX_InterruptHandler
                0x000000009d00bb04      0x324 build/pic32mz/production/_ext/867254719/plib_spi4_master.o
                0x000000009d00bb04                SPI4_RX_InterruptHandler

.text.SPI2_RX_InterruptHandler
                0x000000009d00be28      0x324
 .text.SPI2_RX_InterruptHandler
                0x000000009d00be28      0x324 build/pic32mz/production/_ext/867254719/plib_spi2_master.o
                0x000000009d00be28                SPI2_RX_InterruptHandler

.text.SPI1_RX_InterruptHandler
                0x000000009d00c14c      0x324
 .text.SPI1_RX_InterruptHandler
                0x000000009d00c14c      0x324 build/pic32mz/production/_ext/867254719/plib_spi1_master.o
                0x000000009d00c14c                SPI1_RX_InterruptHandler

.text.SPI4_WriteRead
                0x000000009d00c470      0x310
 .text.SPI4_WriteRead
                0x000000009d00c470      0x310 build/pic32mz/production/_ext/867254719/plib_spi4_master.o
                0x000000009d00c470                SPI4_WriteRead

.text.DRV_SPI_WriteReadTransferAdd
                0x000000009d00c780      0x304
 .text.DRV_SPI_WriteReadTransferAdd
                0x000000009d00c780      0x304 build/pic32mz/production/_ext/2120450970/drv_spi.o
                0x000000009d00c780                DRV_SPI_WriteReadTransferAdd

.text.SYS_FS_MEDIA_MANAGER_SectorWrite
                0x000000009d00ca84      0x2f8
 .text.SYS_FS_MEDIA_MANAGER_SectorWrite
                0x000000009d00ca84      0x2f8 build/pic32mz/production/_ext/252936118/sys_fs_media_manager.o
                0x000000009d00ca84                SYS_FS_MEDIA_MANAGER_SectorWrite

.text.f_lseek   0x000000009d00cd7c      0x2f0
 .text.f_lseek  0x000000009d00cd7c      0x2f0 build/pic32mz/production/_ext/1192657380/ff.o
                0x000000009d00cd7c                f_lseek

.text.mDotTasks
                0x000000009d00d06c      0x2f0
 .text.mDotTasks
                0x000000009d00d06c      0x2f0 build/pic32mz/production/_ext/1360937237/mdot.o
                0x000000009d00d06c                mDotTasks

.text.dir_find  0x000000009d00d35c      0x2e0
 .text.dir_find
                0x000000009d00d35c      0x2e0 build/pic32mz/production/_ext/1192657380/ff.o

.text.get_fileinfo
                0x000000009d00d63c      0x2c0
 .text.get_fileinfo
                0x000000009d00d63c      0x2c0 build/pic32mz/production/_ext/1192657380/ff.o

.text.f_setlabel
                0x000000009d00d8fc      0x2bc
 .text.f_setlabel
                0x000000009d00d8fc      0x2bc build/pic32mz/production/_ext/1192657380/ff.o
                0x000000009d00d8fc                f_setlabel

.text.f_read    0x000000009d00dbb8      0x2b8
 .text.f_read   0x000000009d00dbb8      0x2b8 build/pic32mz/production/_ext/1192657380/ff.o
                0x000000009d00dbb8                f_read

.text.GPIO_Initialize
                0x000000009d00de70      0x2b0
 .text.GPIO_Initialize
                0x000000009d00de70      0x2b0 build/pic32mz/production/_ext/330152374/plib_gpio.o
                0x000000009d00de70                GPIO_Initialize

.text._DRV_USBHS_DEVICE_Tasks_ISR_USBDMA
                0x000000009d00e120      0x294
 .text._DRV_USBHS_DEVICE_Tasks_ISR_USBDMA
                0x000000009d00e120      0x294 build/pic32mz/production/_ext/1783409726/drv_usbhs_device.o
                0x000000009d00e120                _DRV_USBHS_DEVICE_Tasks_ISR_USBDMA

.text.create_partition
                0x000000009d00e3b4      0x290
 .text.create_partition
                0x000000009d00e3b4      0x290 build/pic32mz/production/_ext/1192657380/ff.o

.text.DRV_USBHS_DEVICE_Detach
                0x000000009d00e644      0x270
 .text.DRV_USBHS_DEVICE_Detach
                0x000000009d00e644      0x270 build/pic32mz/production/_ext/1783409726/drv_usbhs_device.o
                0x000000009d00e644                DRV_USBHS_DEVICE_Detach

.text.DRV_USBHS_DEVICE_EndpointDisable
                0x000000009d00e8b4      0x26c
 .text.DRV_USBHS_DEVICE_EndpointDisable
                0x000000009d00e8b4      0x26c build/pic32mz/production/_ext/1783409726/drv_usbhs_device.o
                0x000000009d00e8b4                DRV_USBHS_DEVICE_EndpointDisable

.text.dir_read  0x000000009d00eb20      0x258
 .text.dir_read
                0x000000009d00eb20      0x258 build/pic32mz/production/_ext/1192657380/ff.o

.text.USB_DEVICE_Tasks
                0x000000009d00ed78      0x248
 .text.USB_DEVICE_Tasks
                0x000000009d00ed78      0x248 build/pic32mz/production/_ext/202551283/usb_device.o
                0x000000009d00ed78                USB_DEVICE_Tasks

.text.f_getcwd  0x000000009d00efc0      0x244
 .text.f_getcwd
                0x000000009d00efc0      0x244 build/pic32mz/production/_ext/1192657380/ff.o
                0x000000009d00efc0                f_getcwd

.text._USB_DEVICE_ControlTransferHandler
                0x000000009d00f204      0x230
 .text._USB_DEVICE_ControlTransferHandler
                0x000000009d00f204      0x230 build/pic32mz/production/_ext/202551283/usb_device.o
                0x000000009d00f204                _USB_DEVICE_ControlTransferHandler

.text.create_chain
                0x000000009d00f434      0x22c
 .text.create_chain
                0x000000009d00f434      0x22c build/pic32mz/production/_ext/1192657380/ff.o

.text.DRV_USBHS_DEVICE_EndpointStall
                0x000000009d00f660      0x220
 .text.DRV_USBHS_DEVICE_EndpointStall
                0x000000009d00f660      0x220 build/pic32mz/production/_ext/1783409726/drv_usbhs_device.o
                0x000000009d00f660                DRV_USBHS_DEVICE_EndpointStall

.text._USB_DEVICE_ProcessStandardDeviceSetRequests
                0x000000009d00f880      0x220
 .text._USB_DEVICE_ProcessStandardDeviceSetRequests
                0x000000009d00f880      0x220 build/pic32mz/production/_ext/202551283/usb_device.o
                0x000000009d00f880                _USB_DEVICE_ProcessStandardDeviceSetRequests

.text._USB_DEVICE_Other_Speed_Descriptor_Request
                0x000000009d00faa0      0x214
 .text._USB_DEVICE_Other_Speed_Descriptor_Request
                0x000000009d00faa0      0x214 build/pic32mz/production/_ext/202551283/usb_device.o
                0x000000009d00faa0                _USB_DEVICE_Other_Speed_Descriptor_Request

.text._USB_DEVICE_ProcessStandardDeviceGetRequests
                0x000000009d00fcb4      0x20c
 .text._USB_DEVICE_ProcessStandardDeviceGetRequests
                0x000000009d00fcb4      0x20c build/pic32mz/production/_ext/202551283/usb_device.o
                0x000000009d00fcb4                _USB_DEVICE_ProcessStandardDeviceGetRequests

.text.put_fat   0x000000009d00fec0      0x208
 .text.put_fat  0x000000009d00fec0      0x208 build/pic32mz/production/_ext/1192657380/ff.o

.text.disk_write
                0x000000009d0100c8      0x208
 .text.disk_write
                0x000000009d0100c8      0x208 build/pic32mz/production/_ext/727274963/diskio.o
                0x000000009d0100c8                disk_write

.text.DRV_USBHS_DEVICE_EndpointStallClear
                0x000000009d0102d0      0x1f4
 .text.DRV_USBHS_DEVICE_EndpointStallClear
                0x000000009d0102d0      0x1f4 build/pic32mz/production/_ext/1783409726/drv_usbhs_device.o
                0x000000009d0102d0                DRV_USBHS_DEVICE_EndpointStallClear

.text.f_mkdir   0x000000009d0104c4      0x1f0
 .text.f_mkdir  0x000000009d0104c4      0x1f0 build/pic32mz/production/_ext/1192657380/ff.o
                0x000000009d0104c4                f_mkdir

.text.disk_read
                0x000000009d0106b4      0x1f0
 .text.disk_read
                0x000000009d0106b4      0x1f0 build/pic32mz/production/_ext/727274963/diskio.o
                0x000000009d0106b4                disk_read

.text.SYS_TIME_PLIBCallback
                0x000000009d0108a4      0x1e0
 .text.SYS_TIME_PLIBCallback
                0x000000009d0108a4      0x1e0 build/pic32mz/production/_ext/1636986698/sys_time.o

.text.f_rename  0x000000009d010a84      0x1d0
 .text.f_rename
                0x000000009d010a84      0x1d0 build/pic32mz/production/_ext/1192657380/ff.o
                0x000000009d010a84                f_rename

.text.CORE_TIMER_Handler
                0x000000009d010c54      0x1d0
 .text.CORE_TIMER_Handler
                0x000000009d010c54      0x1d0 build/pic32mz/production/_ext/953055421/interrupts.o
                0x000000009d010c54                CORE_TIMER_Handler

.text.TIMER_2_Handler
                0x000000009d010e24      0x1d0
 .text.TIMER_2_Handler
                0x000000009d010e24      0x1d0 build/pic32mz/production/_ext/953055421/interrupts.o
                0x000000009d010e24                TIMER_2_Handler

.text.SPI1_RX_Handler
                0x000000009d010ff4      0x1d0
 .text.SPI1_RX_Handler
                0x000000009d010ff4      0x1d0 build/pic32mz/production/_ext/953055421/interrupts.o
                0x000000009d010ff4                SPI1_RX_Handler

.text.SPI1_TX_Handler
                0x000000009d0111c4      0x1d0
 .text.SPI1_TX_Handler
                0x000000009d0111c4      0x1d0 build/pic32mz/production/_ext/953055421/interrupts.o
                0x000000009d0111c4                SPI1_TX_Handler

.text.UART1_FAULT_Handler
                0x000000009d011394      0x1d0
 .text.UART1_FAULT_Handler
                0x000000009d011394      0x1d0 build/pic32mz/production/_ext/953055421/interrupts.o
                0x000000009d011394                UART1_FAULT_Handler

.text.UART1_RX_Handler
                0x000000009d011564      0x1d0
 .text.UART1_RX_Handler
                0x000000009d011564      0x1d0 build/pic32mz/production/_ext/953055421/interrupts.o
                0x000000009d011564                UART1_RX_Handler

.text.UART1_TX_Handler
                0x000000009d011734      0x1d0
 .text.UART1_TX_Handler
                0x000000009d011734      0x1d0 build/pic32mz/production/_ext/953055421/interrupts.o
                0x000000009d011734                UART1_TX_Handler

.text.CHANGE_NOTICE_J_Handler
                0x000000009d011904      0x1d0
 .text.CHANGE_NOTICE_J_Handler
                0x000000009d011904      0x1d0 build/pic32mz/production/_ext/953055421/interrupts.o
                0x000000009d011904                CHANGE_NOTICE_J_Handler

.text.USB_Handler
                0x000000009d011ad4      0x1d0
 .text.USB_Handler
                0x000000009d011ad4      0x1d0 build/pic32mz/production/_ext/953055421/interrupts.o
                0x000000009d011ad4                USB_Handler

.text.USB_DMA_Handler
                0x000000009d011ca4      0x1d0
 .text.USB_DMA_Handler
                0x000000009d011ca4      0x1d0 build/pic32mz/production/_ext/953055421/interrupts.o
                0x000000009d011ca4                USB_DMA_Handler

.text.SPI2_RX_Handler
                0x000000009d011e74      0x1d0
 .text.SPI2_RX_Handler
                0x000000009d011e74      0x1d0 build/pic32mz/production/_ext/953055421/interrupts.o
                0x000000009d011e74                SPI2_RX_Handler

.text.SPI2_TX_Handler
                0x000000009d012044      0x1d0
 .text.SPI2_TX_Handler
                0x000000009d012044      0x1d0 build/pic32mz/production/_ext/953055421/interrupts.o
                0x000000009d012044                SPI2_TX_Handler

.text.UART2_FAULT_Handler
                0x000000009d012214      0x1d0
 .text.UART2_FAULT_Handler
                0x000000009d012214      0x1d0 build/pic32mz/production/_ext/953055421/interrupts.o
                0x000000009d012214                UART2_FAULT_Handler

.text.UART2_RX_Handler
                0x000000009d0123e4      0x1d0
 .text.UART2_RX_Handler
                0x000000009d0123e4      0x1d0 build/pic32mz/production/_ext/953055421/interrupts.o
                0x000000009d0123e4                UART2_RX_Handler

.text.UART2_TX_Handler
                0x000000009d0125b4      0x1d0
 .text.UART2_TX_Handler
                0x000000009d0125b4      0x1d0 build/pic32mz/production/_ext/953055421/interrupts.o
                0x000000009d0125b4                UART2_TX_Handler

.text.I2C2_BUS_Handler
                0x000000009d012784      0x1d0
 .text.I2C2_BUS_Handler
                0x000000009d012784      0x1d0 build/pic32mz/production/_ext/953055421/interrupts.o
                0x000000009d012784                I2C2_BUS_Handler

.text.I2C2_MASTER_Handler
                0x000000009d012954      0x1d0
 .text.I2C2_MASTER_Handler
                0x000000009d012954      0x1d0 build/pic32mz/production/_ext/953055421/interrupts.o
                0x000000009d012954                I2C2_MASTER_Handler

.text.UART3_FAULT_Handler
                0x000000009d012b24      0x1d0
 .text.UART3_FAULT_Handler
                0x000000009d012b24      0x1d0 build/pic32mz/production/_ext/953055421/interrupts.o
                0x000000009d012b24                UART3_FAULT_Handler

.text.UART3_RX_Handler
                0x000000009d012cf4      0x1d0
 .text.UART3_RX_Handler
                0x000000009d012cf4      0x1d0 build/pic32mz/production/_ext/953055421/interrupts.o
                0x000000009d012cf4                UART3_RX_Handler

.text.UART3_TX_Handler
                0x000000009d012ec4      0x1d0
 .text.UART3_TX_Handler
                0x000000009d012ec4      0x1d0 build/pic32mz/production/_ext/953055421/interrupts.o
                0x000000009d012ec4                UART3_TX_Handler

.text.SPI4_RX_Handler
                0x000000009d013094      0x1d0
 .text.SPI4_RX_Handler
                0x000000009d013094      0x1d0 build/pic32mz/production/_ext/953055421/interrupts.o
                0x000000009d013094                SPI4_RX_Handler

.text.SPI4_TX_Handler
                0x000000009d013264      0x1d0
 .text.SPI4_TX_Handler
                0x000000009d013264      0x1d0 build/pic32mz/production/_ext/953055421/interrupts.o
                0x000000009d013264                SPI4_TX_Handler

.text.UART4_FAULT_Handler
                0x000000009d013434      0x1d0
 .text.UART4_FAULT_Handler
                0x000000009d013434      0x1d0 build/pic32mz/production/_ext/953055421/interrupts.o
                0x000000009d013434                UART4_FAULT_Handler

.text.UART4_RX_Handler
                0x000000009d013604      0x1d0
 .text.UART4_RX_Handler
                0x000000009d013604      0x1d0 build/pic32mz/production/_ext/953055421/interrupts.o
                0x000000009d013604                UART4_RX_Handler

.text.UART4_TX_Handler
                0x000000009d0137d4      0x1d0
 .text.UART4_TX_Handler
                0x000000009d0137d4      0x1d0 build/pic32mz/production/_ext/953055421/interrupts.o
                0x000000009d0137d4                UART4_TX_Handler

.text.I2C4_BUS_Handler
                0x000000009d0139a4      0x1d0
 .text.I2C4_BUS_Handler
                0x000000009d0139a4      0x1d0 build/pic32mz/production/_ext/953055421/interrupts.o
                0x000000009d0139a4                I2C4_BUS_Handler

.text.I2C4_MASTER_Handler
                0x000000009d013b74      0x1d0
 .text.I2C4_MASTER_Handler
                0x000000009d013b74      0x1d0 build/pic32mz/production/_ext/953055421/interrupts.o
                0x000000009d013b74                I2C4_MASTER_Handler

.text.UART6_FAULT_Handler
                0x000000009d013d44      0x1d0
 .text.UART6_FAULT_Handler
                0x000000009d013d44      0x1d0 build/pic32mz/production/_ext/953055421/interrupts.o
                0x000000009d013d44                UART6_FAULT_Handler

.text.UART6_RX_Handler
                0x000000009d013f14      0x1d0
 .text.UART6_RX_Handler
                0x000000009d013f14      0x1d0 build/pic32mz/production/_ext/953055421/interrupts.o
                0x000000009d013f14                UART6_RX_Handler

.text.UART6_TX_Handler
                0x000000009d0140e4      0x1d0
 .text.UART6_TX_Handler
                0x000000009d0140e4      0x1d0 build/pic32mz/production/_ext/953055421/interrupts.o
                0x000000009d0140e4                UART6_TX_Handler

.text.communication_task
                0x000000009d0142b4      0x1d0
 .text.communication_task
                0x000000009d0142b4      0x1d0 build/pic32mz/production/_ext/1360937237/communication.o
                0x000000009d0142b4                communication_task

.text.DRV_USBHS_DEVICE_IRPCancelAll
                0x000000009d014484      0x1c4
 .text.DRV_USBHS_DEVICE_IRPCancelAll
                0x000000009d014484      0x1c4 build/pic32mz/production/_ext/1783409726/drv_usbhs_device.o
                0x000000009d014484                DRV_USBHS_DEVICE_IRPCancelAll

.text._DRV_SPI_PlibCallbackHandler
                0x000000009d014648      0x1b4
 .text._DRV_SPI_PlibCallbackHandler
                0x000000009d014648      0x1b4 build/pic32mz/production/_ext/2120450970/drv_spi.o

.text.DRV_SPI_Lock
                0x000000009d0147fc      0x1b4
 .text.DRV_SPI_Lock
                0x000000009d0147fc      0x1b4 build/pic32mz/production/_ext/2120450970/drv_spi.o
                0x000000009d0147fc                DRV_SPI_Lock

.text.f_getfree
                0x000000009d0149b0      0x1b0
 .text.f_getfree
                0x000000009d0149b0      0x1b0 build/pic32mz/production/_ext/1192657380/ff.o
                0x000000009d0149b0                f_getfree

.rodata         0x000000009d014b60      0x1a8
 .rodata        0x000000009d014b60      0x1a8 build/pic32mz/production/_ext/953055421/usb_device_init_data.o
                0x000000009d014b60                usbDevInitData
                0x000000009d014b94                usbMasterDescriptor
                0x000000009d014bc0                stringDescriptors
                0x000000009d014bcc                sd002
                0x000000009d014c00                sd001
                0x000000009d014c34                sd000
                0x000000009d014c38                fullSpeedConfigDescSet
                0x000000009d014c3c                fullSpeedConfigurationDescriptor
                0x000000009d014c80                highSpeedConfigDescSet
                0x000000009d014c84                highSpeedConfigurationDescriptor
                0x000000009d014cc8                deviceQualifierDescriptor1
                0x000000009d014cd4                deviceDescriptor
                0x000000009d014ce8                funcRegistrationTable
                0x000000009d014cfc                cdcInit0

.text.DRV_SDSPI_Initialize
                0x000000009d014d08      0x1a4
 .text.DRV_SDSPI_Initialize
                0x000000009d014d08      0x1a4 build/pic32mz/production/_ext/757013429/drv_sdspi.o
                0x000000009d014d08                DRV_SDSPI_Initialize

.text           0x000000009d014eac      0x1a0
 .text          0x000000009d014eac      0x1a0 c:/program files/microchip/xc32/v3.00/bin/bin/../../lib/gcc/pic32mx/8.3.1/../../../../pic32mx/lib/fpu64\libpic32.a(strcpy.o)
                0x000000009d014eac                strcpy

.text.DRV_SPI_Open
                0x000000009d01504c      0x19c
 .text.DRV_SPI_Open
                0x000000009d01504c      0x19c build/pic32mz/production/_ext/2120450970/drv_spi.o
                0x000000009d01504c                DRV_SPI_Open

.rodata         0x000000009d0151e8      0x19c
 .rodata        0x000000009d0151e8      0x19c build/pic32mz/production/_ext/953055421/initialization.o
                0x000000009d0151e8                sysTimeInitData
                0x000000009d0151f0                sysTimePlibAPI
                0x000000009d01520c                sysFSInit
                0x000000009d015214                FatFsFunctions
                0x000000009d01529c                sysfsMountTable
                0x000000009d0152ac                drvUSBInit
                0x000000009d0152dc                drvSPI0InitData
                0x000000009d015300                drvSPI0InterruptSources
                0x000000009d015310                drvSPI0remapClockPhase
                0x000000009d015318                drvSPI0remapClockPolarity
                0x000000009d015320                drvSPI0remapDataBits
                0x000000009d015348                drvSPI0PlibAPI
                0x000000009d015358                drvSDSPI0InitData

.text.dir_next  0x000000009d015384      0x194
 .text.dir_next
                0x000000009d015384      0x194 build/pic32mz/production/_ext/1192657380/ff.o

.text.check_fs  0x000000009d015518      0x194
 .text.check_fs
                0x000000009d015518      0x194 build/pic32mz/production/_ext/1192657380/ff.o

.text._USB_DEVICE_Ep0ReceiveCompleteCallback
                0x000000009d0156ac      0x190
 .text._USB_DEVICE_Ep0ReceiveCompleteCallback
                0x000000009d0156ac      0x190 build/pic32mz/production/_ext/202551283/usb_device.o
                0x000000009d0156ac                _USB_DEVICE_Ep0ReceiveCompleteCallback

.text.get_fat   0x000000009d01583c      0x184
 .text.get_fat  0x000000009d01583c      0x184 build/pic32mz/production/_ext/1192657380/ff.o

.text.SYS_TIME_HwTimerCompareUpdate
                0x000000009d0159c0      0x17c
 .text.SYS_TIME_HwTimerCompareUpdate
                0x000000009d0159c0      0x17c build/pic32mz/production/_ext/1636986698/sys_time.o

.text.DRV_SDSPI_Open
                0x000000009d015b3c      0x178
 .text.DRV_SDSPI_Open
                0x000000009d015b3c      0x178 build/pic32mz/production/_ext/757013429/drv_sdspi.o
                0x000000009d015b3c                DRV_SDSPI_Open

.text.SYS_Initialize
                0x000000009d015cb4      0x174
 .text.SYS_Initialize
                0x000000009d015cb4      0x174 build/pic32mz/production/_ext/953055421/initialization.o
                0x000000009d015cb4                SYS_Initialize

.text._USB_DEVICE_CDC_ACMSetUpPacketHandler
                0x000000009d015e28      0x170
 .text._USB_DEVICE_CDC_ACMSetUpPacketHandler
                0x000000009d015e28      0x170 build/pic32mz/production/_ext/202551283/usb_device_cdc_acm.o
                0x000000009d015e28                _USB_DEVICE_CDC_ACMSetUpPacketHandler

.text.SPI4_TX_InterruptHandler
                0x000000009d015f98      0x16c
 .text.SPI4_TX_InterruptHandler
                0x000000009d015f98      0x16c build/pic32mz/production/_ext/867254719/plib_spi4_master.o
                0x000000009d015f98                SPI4_TX_InterruptHandler

.text.SPI2_TX_InterruptHandler
                0x000000009d016104      0x16c
 .text.SPI2_TX_InterruptHandler
                0x000000009d016104      0x16c build/pic32mz/production/_ext/867254719/plib_spi2_master.o
                0x000000009d016104                SPI2_TX_InterruptHandler

.text.SPI1_TX_InterruptHandler
                0x000000009d016270      0x16c
 .text.SPI1_TX_InterruptHandler
                0x000000009d016270      0x16c build/pic32mz/production/_ext/867254719/plib_spi1_master.o
                0x000000009d016270                SPI1_TX_InterruptHandler

.text.dir_sdi   0x000000009d0163dc      0x16c
 .text.dir_sdi  0x000000009d0163dc      0x16c build/pic32mz/production/_ext/1192657380/ff.o

.text           0x000000009d016548      0x2d0
 .text          0x000000009d016548      0x168 c:/program files/microchip/xc32/v3.00/bin/bin/../../lib/gcc/pic32mx/8.3.1/../../../../pic32mx/lib/fpu64\libpic32.a(memcpy.o)
                0x000000009d016548                memcpy
 .text          0x000000009d0166b0      0x168 c:/program files/microchip/xc32/v3.00/bin/bin/../../lib/gcc/pic32mx/8.3.1/../../../../pic32mx/lib/fpu64\libpic32.a(strlen.o)
                0x000000009d0166b0                strlen

.text.DRV_USBHS_DEVICE_TestModeEnter
                0x000000009d016818      0x164
 .text.DRV_USBHS_DEVICE_TestModeEnter
                0x000000009d016818      0x164 build/pic32mz/production/_ext/1783409726/drv_usbhs_device.o
                0x000000009d016818                DRV_USBHS_DEVICE_TestModeEnter

.text.f_truncate
                0x000000009d01697c      0x15c
 .text.f_truncate
                0x000000009d01697c      0x15c build/pic32mz/production/_ext/1192657380/ff.o
                0x000000009d01697c                f_truncate

.text.USB_DEVICE_Initialize
                0x000000009d016ad8      0x15c
 .text.USB_DEVICE_Initialize
                0x000000009d016ad8      0x15c build/pic32mz/production/_ext/202551283/usb_device.o
                0x000000009d016ad8                USB_DEVICE_Initialize

.text.DRV_SDSPI_Close
                0x000000009d016c34      0x158
 .text.DRV_SDSPI_Close
                0x000000009d016c34      0x158 build/pic32mz/production/_ext/757013429/drv_sdspi.o
                0x000000009d016c34                DRV_SDSPI_Close

.text._USB_DEVICE_CDC_Initialization
                0x000000009d016d8c      0x154
 .text._USB_DEVICE_CDC_Initialization
                0x000000009d016d8c      0x154 build/pic32mz/production/_ext/202551283/usb_device_cdc.o
                0x000000009d016d8c                _USB_DEVICE_CDC_Initialization

.text._sbrk_init
                0x000000009d016ee0      0x154
 .text._sbrk_init
                0x000000009d016ee0      0x154 c:/program files/microchip/xc32/v3.00/bin/bin/../../lib/gcc/pic32mx/8.3.1/../../../../pic32mx/lib/fpu64\libpic32.a(sbrk.o)
                0x000000009d016ee0                _sbrk_init

.text.f_unlink  0x000000009d017034      0x148
 .text.f_unlink
                0x000000009d017034      0x148 build/pic32mz/production/_ext/1192657380/ff.o
                0x000000009d017034                f_unlink

.text.DRV_USBHS_Tasks_ISR
                0x000000009d01717c      0x144
 .text.DRV_USBHS_Tasks_ISR
                0x000000009d01717c      0x144 build/pic32mz/production/_ext/1783409726/drv_usbhs.o
                0x000000009d01717c                DRV_USBHS_Tasks_ISR

.text.SYS_TIME_Initialize
                0x000000009d0172c0      0x144
 .text.SYS_TIME_Initialize
                0x000000009d0172c0      0x144 build/pic32mz/production/_ext/1636986698/sys_time.o
                0x000000009d0172c0                SYS_TIME_Initialize

.rodata         0x000000009d017404      0x140
 .rodata        0x000000009d017404      0x140 build/pic32mz/production/_ext/757013429/drv_sdspi.o
                0x000000009d017404                gDrvSDSPICmdTable

.text.ff_wtoupper
                0x000000009d017544      0x140
 .text.ff_wtoupper
                0x000000009d017544      0x140 build/pic32mz/production/_ext/1192657380/ffunicode.o
                0x000000009d017544                ff_wtoupper

.text.f_getlabel
                0x000000009d017684      0x13c
 .text.f_getlabel
                0x000000009d017684      0x13c build/pic32mz/production/_ext/1192657380/ff.o
                0x000000009d017684                f_getlabel

.text._DRV_SPI_UpdateTransferSetupAndAssertCS
                0x000000009d0177c0      0x138
 .text._DRV_SPI_UpdateTransferSetupAndAssertCS
                0x000000009d0177c0      0x138 build/pic32mz/production/_ext/2120450970/drv_spi.o

.text.inc_lock  0x000000009d0178f8      0x138
 .text.inc_lock
                0x000000009d0178f8      0x138 build/pic32mz/production/_ext/1192657380/ff.o

.text.FATFS_open
                0x000000009d017a30      0x134
 .text.FATFS_open
                0x000000009d017a30      0x134 build/pic32mz/production/_ext/252936118/sys_fs_fat_interface.o
                0x000000009d017a30                FATFS_open

.text.SYS_TIME_TimerObjectCreate
                0x000000009d017b64      0x130
 .text.SYS_TIME_TimerObjectCreate
                0x000000009d017b64      0x130 build/pic32mz/production/_ext/1636986698/sys_time.o

.text.fputc     0x000000009d017c94      0x128
 .text.fputc    0x000000009d017c94      0x128 c:/program files/microchip/xc32/v3.00/bin/bin/../../lib/gcc/pic32mx/8.3.1/../../../../pic32mx/lib/fpu64\libc.a(_fputc_simple.o)
                0x000000009d017c94                fputc

.text._DRV_USBHS_DEVICE_FIFOAllocate
                0x000000009d017dbc      0x124
 .text._DRV_USBHS_DEVICE_FIFOAllocate
                0x000000009d017dbc      0x124 build/pic32mz/production/_ext/1783409726/drv_usbhs_device.o
                0x000000009d017dbc                _DRV_USBHS_DEVICE_FIFOAllocate

.text.remove_chain
                0x000000009d017ee0      0x120
 .text.remove_chain
                0x000000009d017ee0      0x120 build/pic32mz/production/_ext/1192657380/ff.o

.text.APP_Tasks
                0x000000009d018000      0x118
 .text.APP_Tasks
                0x000000009d018000      0x118 build/pic32mz/production/_ext/1360937237/app.o
                0x000000009d018000                APP_Tasks

.text.DRV_SPI_TransferSetup
                0x000000009d018118      0x110
 .text.DRV_SPI_TransferSetup
                0x000000009d018118      0x110 build/pic32mz/production/_ext/2120450970/drv_spi.o
                0x000000009d018118                DRV_SPI_TransferSetup

.text.UART6_RX_InterruptHandler
                0x000000009d018228      0x110
 .text.UART6_RX_InterruptHandler
                0x000000009d018228      0x110 build/pic32mz/production/_ext/330555317/plib_uart6.o
                0x000000009d018228                UART6_RX_InterruptHandler

.text.UART3_RX_InterruptHandler
                0x000000009d018338      0x110
 .text.UART3_RX_InterruptHandler
                0x000000009d018338      0x110 build/pic32mz/production/_ext/330555317/plib_uart3.o
                0x000000009d018338                UART3_RX_InterruptHandler

.text.UART4_RX_InterruptHandler
                0x000000009d018448      0x110
 .text.UART4_RX_InterruptHandler
                0x000000009d018448      0x110 build/pic32mz/production/_ext/330555317/plib_uart4.o
                0x000000009d018448                UART4_RX_InterruptHandler

.text.UART1_RX_InterruptHandler
                0x000000009d018558      0x110
 .text.UART1_RX_InterruptHandler
                0x000000009d018558      0x110 build/pic32mz/production/_ext/330555317/plib_uart1.o
                0x000000009d018558                UART1_RX_InterruptHandler

.text.UART2_RX_InterruptHandler
                0x000000009d018668      0x110
 .text.UART2_RX_InterruptHandler
                0x000000009d018668      0x110 build/pic32mz/production/_ext/330555317/plib_uart2.o
                0x000000009d018668                UART2_RX_InterruptHandler

.text.f_opendir
                0x000000009d018778      0x110
 .text.f_opendir
                0x000000009d018778      0x110 build/pic32mz/production/_ext/1192657380/ff.o
                0x000000009d018778                f_opendir

.text._USB_DEVICE_ConfigureDevice
                0x000000009d018888      0x10c
 .text._USB_DEVICE_ConfigureDevice
                0x000000009d018888      0x10c build/pic32mz/production/_ext/202551283/usb_device.o
                0x000000009d018888                _USB_DEVICE_ConfigureDevice

.text._flsbuf   0x000000009d018994      0x10c
 .text._flsbuf  0x000000009d018994      0x10c c:/program files/microchip/xc32/v3.00/bin/bin/../../lib/gcc/pic32mx/8.3.1/../../../../pic32mx/lib/fpu64\libc.a(_flsbuf_simple.o)
                0x000000009d018994                _flsbuf

.text.f_sync    0x000000009d018aa0      0x108
 .text.f_sync   0x000000009d018aa0      0x108 build/pic32mz/production/_ext/1192657380/ff.o
                0x000000009d018aa0                f_sync

.text._USB_DEVICE_CDC_ControlTransferHandler
                0x000000009d018ba8      0x104
 .text._USB_DEVICE_CDC_ControlTransferHandler
                0x000000009d018ba8      0x104 build/pic32mz/production/_ext/202551283/usb_device_cdc.o
                0x000000009d018ba8                _USB_DEVICE_CDC_ControlTransferHandler

.rodata         0x000000009d018cac      0x104
 .rodata        0x000000009d018cac      0x104 c:/program files/microchip/xc32/v3.00/bin/bin/../../lib/gcc/pic32mx/8.3.1/../../../../pic32mx/lib/fpu64\libc.a(ctype.o)
                0x000000009d018cac                _ctype

.text.UART6_TX_InterruptHandler
                0x000000009d018db0      0x100
 .text.UART6_TX_InterruptHandler
                0x000000009d018db0      0x100 build/pic32mz/production/_ext/330555317/plib_uart6.o
                0x000000009d018db0                UART6_TX_InterruptHandler

.text.UART3_TX_InterruptHandler
                0x000000009d018eb0      0x100
 .text.UART3_TX_InterruptHandler
                0x000000009d018eb0      0x100 build/pic32mz/production/_ext/330555317/plib_uart3.o
                0x000000009d018eb0                UART3_TX_InterruptHandler

.text.UART4_TX_InterruptHandler
                0x000000009d018fb0      0x100
 .text.UART4_TX_InterruptHandler
                0x000000009d018fb0      0x100 build/pic32mz/production/_ext/330555317/plib_uart4.o
                0x000000009d018fb0                UART4_TX_InterruptHandler

.text.UART1_TX_InterruptHandler
                0x000000009d0190b0      0x100
 .text.UART1_TX_InterruptHandler
                0x000000009d0190b0      0x100 build/pic32mz/production/_ext/330555317/plib_uart1.o
                0x000000009d0190b0                UART1_TX_InterruptHandler

.text.UART2_TX_InterruptHandler
                0x000000009d0191b0      0x100
 .text.UART2_TX_InterruptHandler
                0x000000009d0191b0      0x100 build/pic32mz/production/_ext/330555317/plib_uart2.o
                0x000000009d0191b0                UART2_TX_InterruptHandler

.text.SYS_TIME_AddToList
                0x000000009d0192b0      0x100
 .text.SYS_TIME_AddToList
                0x000000009d0192b0      0x100 build/pic32mz/production/_ext/1636986698/sys_time.o

.text._USB_DEVICE_ProcessStandardEndpointRequest
                0x000000009d0193b0      0x100
 .text._USB_DEVICE_ProcessStandardEndpointRequest
                0x000000009d0193b0      0x100 build/pic32mz/production/_ext/202551283/usb_device.o
                0x000000009d0193b0                _USB_DEVICE_ProcessStandardEndpointRequest

.rodata.str1.4  0x000000009d0194b0       0xf8
 .rodata.str1.4
                0x000000009d0194b0       0xf8 build/pic32mz/production/_ext/1360937237/mdot.o

.text._DRV_SPI_ResourceLock
                0x000000009d000010       0xec
 .text._DRV_SPI_ResourceLock
                0x000000009d000010       0xec build/pic32mz/production/_ext/2120450970/drv_spi.o

.text.DRV_SPI_Initialize
                0x000000009d0195a8       0xec
 .text.DRV_SPI_Initialize
                0x000000009d0195a8       0xec build/pic32mz/production/_ext/2120450970/drv_spi.o
                0x000000009d0195a8                DRV_SPI_Initialize

.text.FATFS_unmount
                0x000000009d019694       0xec
 .text.FATFS_unmount
                0x000000009d019694       0xec build/pic32mz/production/_ext/252936118/sys_fs_fat_interface.o
                0x000000009d019694                FATFS_unmount

.text.FATFS_opendir
                0x000000009d019780       0xe8
 .text.FATFS_opendir
                0x000000009d019780       0xe8 build/pic32mz/production/_ext/252936118/sys_fs_fat_interface.o
                0x000000009d019780                FATFS_opendir

.text.DRV_USBHS_Tasks_ISR_USBDMA
                0x000000009d019868       0xe4
 .text.DRV_USBHS_Tasks_ISR_USBDMA
                0x000000009d019868       0xe4 build/pic32mz/production/_ext/1783409726/drv_usbhs.o
                0x000000009d019868                DRV_USBHS_Tasks_ISR_USBDMA

.text.EVIC_Initialize
                0x000000009d01994c       0xe4
 .text.EVIC_Initialize
                0x000000009d01994c       0xe4 build/pic32mz/production/_ext/330098546/plib_evic.o
                0x000000009d01994c                EVIC_Initialize

.text.sync_fs   0x000000009d019a30       0xe4
 .text.sync_fs  0x000000009d019a30       0xe4 build/pic32mz/production/_ext/1192657380/ff.o

.text._DRV_SPI_ResourceUnlock
                0x000000009d019b14       0xe0
 .text._DRV_SPI_ResourceUnlock
                0x000000009d019b14       0xe0 build/pic32mz/production/_ext/2120450970/drv_spi.o

.text.setvbuf   0x000000009d019bf4       0xe0
 .text.setvbuf  0x000000009d019bf4       0xe0 c:/program files/microchip/xc32/v3.00/bin/bin/../../lib/gcc/pic32mx/8.3.1/../../../../pic32mx/lib/fpu64\libc.a(setbuf.o)
                0x000000009d019bf4                setvbuf

.text.SYS_FS_MEDIA_MANAGER_SectorRead
                0x000000009d019cd4       0xdc
 .text.SYS_FS_MEDIA_MANAGER_SectorRead
                0x000000009d019cd4       0xdc build/pic32mz/production/_ext/252936118/sys_fs_media_manager.o
                0x000000009d019cd4                SYS_FS_MEDIA_MANAGER_SectorRead

.text.general_exception
                0x000000009d019db0       0xdc
 .text.general_exception
                0x000000009d019db0       0xdc c:/program files/microchip/xc32/v3.00/bin/bin/../../lib/gcc/pic32mx/8.3.1/../../../../pic32mx/lib/fpu64\libpic32.a(general-exception.o)
                0x000000009d019db0                _general_exception_context

.text._cache_err_exception_context
                0x000000009d019e8c       0xd8
 .text._cache_err_exception_context
                0x000000009d019e8c       0xd8 c:/program files/microchip/xc32/v3.00/bin/bin/../../lib/gcc/pic32mx/8.3.1/../../../../pic32mx/lib/fpu64\libpic32.a(cache-err-exception.o)
                0x000000009d019e8c                _cache_err_exception_context

.text.simple_tlb_refill_context
                0x000000009d019f64       0xd8
 .text.simple_tlb_refill_context
                0x000000009d019f64       0xd8 c:/program files/microchip/xc32/v3.00/bin/bin/../../lib/gcc/pic32mx/8.3.1/../../../../pic32mx/lib/fpu64\libpic32.a(simple-tlb-refill-exception.o)
                0x000000009d019f64                _simple_tlb_refill_exception_context

.rodata         0x000000009d01a03c       0xd4
 .rodata        0x000000009d01a03c       0xd4 build/pic32mz/production/_ext/1192657380/ff.o

.text.initPayload
                0x000000009d01a110       0xd4
 .text.initPayload
                0x000000009d01a110       0xd4 build/pic32mz/production/_ext/1360937237/mdot.o
                0x000000009d01a110                initPayload

.text._USB_DEVICE_GetStringDescriptorRequestProcess
                0x000000009d01a1e4       0xd0
 .text._USB_DEVICE_GetStringDescriptorRequestProcess
                0x000000009d01a1e4       0xd0 build/pic32mz/production/_ext/202551283/usb_device.o
                0x000000009d01a1e4                _USB_DEVICE_GetStringDescriptorRequestProcess

.text.SPI4_TransferSetup
                0x000000009d01a2b4       0xcc
 .text.SPI4_TransferSetup
                0x000000009d01a2b4       0xcc build/pic32mz/production/_ext/867254719/plib_spi4_master.o
                0x000000009d01a2b4                SPI4_TransferSetup

.text.FATFS_mount
                0x000000009d01a380       0xcc
 .text.FATFS_mount
                0x000000009d01a380       0xcc build/pic32mz/production/_ext/252936118/sys_fs_fat_interface.o
                0x000000009d01a380                FATFS_mount

.text._DRV_USBHS_DEVICE_FIFOFree
                0x000000009d01a44c       0xc8
 .text._DRV_USBHS_DEVICE_FIFOFree
                0x000000009d01a44c       0xc8 build/pic32mz/production/_ext/1783409726/drv_usbhs_device.o
                0x000000009d01a44c                _DRV_USBHS_DEVICE_FIFOFree

.text.DRV_USBHS_Initialize
                0x000000009d01a514       0xc4
 .text.DRV_USBHS_Initialize
                0x000000009d01a514       0xc4 build/pic32mz/production/_ext/1783409726/drv_usbhs.o
                0x000000009d01a514                DRV_USBHS_Initialize

.text.CLK_Initialize
                0x000000009d01a5d8       0xc4
 .text.CLK_Initialize
                0x000000009d01a5d8       0xc4 build/pic32mz/production/_ext/10646107/plib_clk.o
                0x000000009d01a5d8                CLK_Initialize

.text.SYS_FS_Initialize
                0x000000009d01a69c       0xc4
 .text.SYS_FS_Initialize
                0x000000009d01a69c       0xc4 build/pic32mz/production/_ext/252936118/sys_fs.o
                0x000000009d01a69c                SYS_FS_Initialize

.text.DRV_USBHS_Open
                0x000000009d01a760       0xc0
 .text.DRV_USBHS_Open
                0x000000009d01a760       0xc0 build/pic32mz/production/_ext/1783409726/drv_usbhs.o
                0x000000009d01a760                DRV_USBHS_Open

.text.DRV_USBHS_ClientEventCallBackSet
                0x000000009d01a820       0xc0
 .text.DRV_USBHS_ClientEventCallBackSet
                0x000000009d01a820       0xc0 build/pic32mz/production/_ext/1783409726/drv_usbhs.o
                0x000000009d01a820                DRV_USBHS_ClientEventCallBackSet

.text.dir_alloc
                0x000000009d01a8e0       0xc0
 .text.dir_alloc
                0x000000009d01a8e0       0xc0 build/pic32mz/production/_ext/1192657380/ff.o

.text.dir_remove
                0x000000009d01a9a0       0xc0
 .text.dir_remove
                0x000000009d01a9a0       0xc0 build/pic32mz/production/_ext/1192657380/ff.o

.text.f_mount   0x000000009d01aa60       0xc0
 .text.f_mount  0x000000009d01aa60       0xc0 build/pic32mz/production/_ext/1192657380/ff.o
                0x000000009d01aa60                f_mount

.text._USB_DEVICE_Ep0TransmitCompleteCallback
                0x000000009d01ab20       0xc0
 .text._USB_DEVICE_Ep0TransmitCompleteCallback
                0x000000009d01ab20       0xc0 build/pic32mz/production/_ext/202551283/usb_device.o
                0x000000009d01ab20                _USB_DEVICE_Ep0TransmitCompleteCallback

.text.UART6_Write
                0x000000009d01abe0       0xbc
 .text.UART6_Write
                0x000000009d01abe0       0xbc build/pic32mz/production/_ext/330555317/plib_uart6.o
                0x000000009d01abe0                UART6_Write

.text.dir_clear
                0x000000009d01ac9c       0xbc
 .text.dir_clear
                0x000000009d01ac9c       0xbc build/pic32mz/production/_ext/1192657380/ff.o

.text.f_gets    0x000000009d01ad58       0xbc
 .text.f_gets   0x000000009d01ad58       0xbc build/pic32mz/production/_ext/1192657380/ff.o
                0x000000009d01ad58                f_gets

.text.disk_checkCommandStatus
                0x000000009d01ae14       0xbc
 .text.disk_checkCommandStatus
                0x000000009d01ae14       0xbc build/pic32mz/production/_ext/727274963/diskio.o

.tlb.__pic32_tlb_init_ebi_sqi
                0x000000009d01aed0       0xbc
 .tlb.__pic32_tlb_init_ebi_sqi
                0x000000009d01aed0       0xbc c:/program files/microchip/xc32/v3.00/bin/bin/../../lib/gcc/pic32mx/8.3.1/../../../../pic32mx/lib/fpu64\libpic32.a(pic32_init_tlb_ebi_sqi.o)
                0x000000009d01aed0                __pic32_tlb_init_ebi_sqi

.text.DRV_SDSPI_CommandStatusGet
                0x000000009d01af8c       0xb8
 .text.DRV_SDSPI_CommandStatusGet
                0x000000009d01af8c       0xb8 build/pic32mz/production/_ext/757013429/drv_sdspi.o
                0x000000009d01af8c                DRV_SDSPI_CommandStatusGet

.text._DRV_SDSPI_DriverHandleValidate
                0x000000009d01b044       0xb4
 .text._DRV_SDSPI_DriverHandleValidate
                0x000000009d01b044       0xb4 build/pic32mz/production/_ext/757013429/drv_sdspi.o

.text.chk_lock  0x000000009d01b0f8       0xb4
 .text.chk_lock
                0x000000009d01b0f8       0xb4 build/pic32mz/production/_ext/1192657380/ff.o

.text.sync_window
                0x000000009d01b1ac       0xb4
 .text.sync_window
                0x000000009d01b1ac       0xb4 build/pic32mz/production/_ext/1192657380/ff.o

.text.f_chdir   0x000000009d01b260       0xb4
 .text.f_chdir  0x000000009d01b260       0xb4 build/pic32mz/production/_ext/1192657380/ff.o
                0x000000009d01b260                f_chdir

.text.SYS_TIME_TimerStart
                0x000000009d01b314       0xb4
 .text.SYS_TIME_TimerStart
                0x000000009d01b314       0xb4 build/pic32mz/production/_ext/1636986698/sys_time.o
                0x000000009d01b314                SYS_TIME_TimerStart

.text._USB_DEVICE_DeInitializeAllFunctionDrivers
                0x000000009d01b3c8       0xb4
 .text._USB_DEVICE_DeInitializeAllFunctionDrivers
                0x000000009d01b3c8       0xb4 build/pic32mz/production/_ext/202551283/usb_device.o
                0x000000009d01b3c8                _USB_DEVICE_DeInitializeAllFunctionDrivers

.text._sbrk     0x000000009d01b47c       0xb0
 .text._sbrk    0x000000009d01b47c       0xb0 c:/program files/microchip/xc32/v3.00/bin/bin/../../lib/gcc/pic32mx/8.3.1/../../../../pic32mx/lib/fpu64\libpic32.a(sbrk.o)
                0x000000009d01b47c                _sbrk

.text.f_chmod   0x000000009d01b52c       0xac
 .text.f_chmod  0x000000009d01b52c       0xac build/pic32mz/production/_ext/1192657380/ff.o
                0x000000009d01b52c                f_chmod

.text.SYS_TIME_CallbackRegisterMS
                0x000000009d01b5d8       0xac
 .text.SYS_TIME_CallbackRegisterMS
                0x000000009d01b5d8       0xac build/pic32mz/production/_ext/1636986698/sys_time.o
                0x000000009d01b5d8                SYS_TIME_CallbackRegisterMS

.text.CHANGE_NOTICE_J_InterruptHandler
                0x000000009d01b684       0xa8
 .text.CHANGE_NOTICE_J_InterruptHandler
                0x000000009d01b684       0xa8 build/pic32mz/production/_ext/330152374/plib_gpio.o
                0x000000009d01b684                CHANGE_NOTICE_J_InterruptHandler

.text.pop       0x000000009d01b72c       0xa8
 .text.pop      0x000000009d01b72c       0xa8 build/pic32mz/production/_ext/1360937237/stringbuffer.o
                0x000000009d01b72c                pop

.text           0x000000009d01b7d4       0xa8
 .text          0x000000009d01b7d4       0xa8 c:/program files/microchip/xc32/v3.00/bin/bin/../../lib/gcc/pic32mx/8.3.1/../../../../pic32mx/lib/fpu64\libpic32.a(memset.o)
                0x000000009d01b7d4                memset

.text.validate  0x000000009d01b87c       0xa0
 .text.validate
                0x000000009d01b87c       0xa0 build/pic32mz/production/_ext/1192657380/ff.o

.text.SYS_TIME_RemoveFromList
                0x000000009d01b91c       0xa0
 .text.SYS_TIME_RemoveFromList
                0x000000009d01b91c       0xa0 build/pic32mz/production/_ext/1636986698/sys_time.o

.text._USB_DEVICE_ForwardControlXfrToFunction
                0x000000009d01b9bc       0xa0
 .text._USB_DEVICE_ForwardControlXfrToFunction
                0x000000009d01b9bc       0xa0 build/pic32mz/production/_ext/202551283/usb_device.o
                0x000000009d01b9bc                _USB_DEVICE_ForwardControlXfrToFunction

.rodata         0x000000009d01ba60       0xa0
 .rodata        0x000000009d01ba60       0xa0 c:/program files/microchip/xc32/v3.00/bin/bin/../../lib/gcc/pic32mx/8.3.1/../../../../pic32mx/lib/fpu64\libc.a(doprnt_cdnopsuxX.eo)

.text.f_utime   0x000000009d01bb00       0x9c
 .text.f_utime  0x000000009d01bb00       0x9c build/pic32mz/production/_ext/1192657380/ff.o
                0x000000009d01bb00                f_utime

.text._DRV_USBHS_DEVICE_AttachStateMachine
                0x000000009d01bb9c       0x98
 .text._DRV_USBHS_DEVICE_AttachStateMachine
                0x000000009d01bb9c       0x98 build/pic32mz/production/_ext/1783409726/drv_usbhs_device.o
                0x000000009d01bb9c                _DRV_USBHS_DEVICE_AttachStateMachine

.text.uart6_counters
                0x000000009d01bc34       0x98
 .text.uart6_counters
                0x000000009d01bc34       0x98 build/pic32mz/production/_ext/1360937237/communication.o
                0x000000009d01bc34                uart6_counters

.text.sendStringU6
                0x000000009d01bccc       0x98
 .text.sendStringU6
                0x000000009d01bccc       0x98 build/pic32mz/production/_ext/1360937237/communication.o
                0x000000009d01bccc                sendStringU6

.text.push      0x000000009d01bd64       0x98
 .text.push     0x000000009d01bd64       0x98 build/pic32mz/production/_ext/1360937237/stringbuffer.o
                0x000000009d01bd64                push

.text           0x000000009d01bdfc       0x98
 .text          0x000000009d01bdfc       0x98 c:/program files/microchip/xc32/v3.00/bin/bin/../../lib/gcc/pic32mx/8.3.1/../../../../pic32mx/lib/fpu64\libpic32.a(memcmp.o)
                0x000000009d01bdfc                memcmp

.text._DRV_SDSPI_SPIWriteWithChipSelectDisabled
                0x000000009d01be94       0x94
 .text._DRV_SDSPI_SPIWriteWithChipSelectDisabled
                0x000000009d01be94       0x94 build/pic32mz/production/_ext/757013429/drv_sdspi_driver_interface.o
                0x000000009d01be94                _DRV_SDSPI_SPIWriteWithChipSelectDisabled

.text.f_readdir
                0x000000009d01bf28       0x94
 .text.f_readdir
                0x000000009d01bf28       0x94 build/pic32mz/production/_ext/1192657380/ff.o
                0x000000009d01bf28                f_readdir

.text.UART6_Read
                0x000000009d01bfbc       0x90
 .text.UART6_Read
                0x000000009d01bfbc       0x90 build/pic32mz/production/_ext/330555317/plib_uart6.o
                0x000000009d01bfbc                UART6_Read

.text.putc_bfd  0x000000009d01c04c       0x90
 .text.putc_bfd
                0x000000009d01c04c       0x90 build/pic32mz/production/_ext/1192657380/ff.o

.text.SYS_TIME_TimerAdd
                0x000000009d01c0dc       0x90
 .text.SYS_TIME_TimerAdd
                0x000000009d01c0dc       0x90 build/pic32mz/production/_ext/1636986698/sys_time.o

.text.SPI4_Initialize
                0x000000009d01c16c       0x8c
 .text.SPI4_Initialize
                0x000000009d01c16c       0x8c build/pic32mz/production/_ext/867254719/plib_spi4_master.o
                0x000000009d01c16c                SPI4_Initialize

.text.dec_lock  0x000000009d01c1f8       0x8c
 .text.dec_lock
                0x000000009d01c1f8       0x8c build/pic32mz/production/_ext/1192657380/ff.o

.text.get_ldnumber
                0x000000009d01c284       0x8c
 .text.get_ldnumber
                0x000000009d01c284       0x8c build/pic32mz/production/_ext/1192657380/ff.o

.text.SYS_TIME_GetTimerObject
                0x000000009d01c310       0x8c
 .text.SYS_TIME_GetTimerObject
                0x000000009d01c310       0x8c build/pic32mz/production/_ext/1636986698/sys_time.o

.text._USB_DEVICE_GetFunctionDriverEntryByInterface
                0x000000009d01c39c       0x8c
 .text._USB_DEVICE_GetFunctionDriverEntryByInterface
                0x000000009d01c39c       0x8c build/pic32mz/production/_ext/202551283/usb_device.o
                0x000000009d01c39c                _USB_DEVICE_GetFunctionDriverEntryByInterface

.text._DRV_SPI_DriverHandleValidate
                0x000000009d01c428       0x88
 .text._DRV_SPI_DriverHandleValidate
                0x000000009d01c428       0x88 build/pic32mz/production/_ext/2120450970/drv_spi.o

.text.DRV_SPI_TransferEventHandlerSet
                0x000000009d01c4b0       0x88
 .text.DRV_SPI_TransferEventHandlerSet
                0x000000009d01c4b0       0x88 build/pic32mz/production/_ext/2120450970/drv_spi.o
                0x000000009d01c4b0                DRV_SPI_TransferEventHandlerSet

.text.SPI2_Initialize
                0x000000009d01c538       0x88
 .text.SPI2_Initialize
                0x000000009d01c538       0x88 build/pic32mz/production/_ext/867254719/plib_spi2_master.o
                0x000000009d01c538                SPI2_Initialize

.text.SPI1_Initialize
                0x000000009d01c5c0       0x88
 .text.SPI1_Initialize
                0x000000009d01c5c0       0x88 build/pic32mz/production/_ext/867254719/plib_spi1_master.o
                0x000000009d01c5c0                SPI1_Initialize

.text.UART6_Initialize
                0x000000009d01c648       0x88
 .text.UART6_Initialize
                0x000000009d01c648       0x88 build/pic32mz/production/_ext/330555317/plib_uart6.o
                0x000000009d01c648                UART6_Initialize

.text.UART3_Initialize
                0x000000009d01c6d0       0x88
 .text.UART3_Initialize
                0x000000009d01c6d0       0x88 build/pic32mz/production/_ext/330555317/plib_uart3.o
                0x000000009d01c6d0                UART3_Initialize

.text.UART4_Initialize
                0x000000009d01c758       0x88
 .text.UART4_Initialize
                0x000000009d01c758       0x88 build/pic32mz/production/_ext/330555317/plib_uart4.o
                0x000000009d01c758                UART4_Initialize

.text.UART1_Initialize
                0x000000009d01c7e0       0x88
 .text.UART1_Initialize
                0x000000009d01c7e0       0x88 build/pic32mz/production/_ext/330555317/plib_uart1.o
                0x000000009d01c7e0                UART1_Initialize

.text.UART2_Initialize
                0x000000009d01c868       0x88
 .text.UART2_Initialize
                0x000000009d01c868       0x88 build/pic32mz/production/_ext/330555317/plib_uart2.o
                0x000000009d01c868                UART2_Initialize

.text.write     0x000000009d01c8f0       0x88
 .text.write    0x000000009d01c8f0       0x88 c:/program files/microchip/xc32/v3.00/bin/bin/../../lib/gcc/pic32mx/8.3.1/../../../../pic32mx/lib/fpu64\libpic32.a(write.o)
                0x000000009d01c8f0                write

.text.USB_DEVICE_ControlSend
                0x000000009d01c978       0x84
 .text.USB_DEVICE_ControlSend
                0x000000009d01c978       0x84 build/pic32mz/production/_ext/202551283/usb_device.o
                0x000000009d01c978                USB_DEVICE_ControlSend

.text           0x000000009d01c9fc       0x84
 .text          0x000000009d01c9fc       0x84 c:/program files/microchip/xc32/v3.00/bin/bin/../../lib/gcc/pic32mx/8.3.1/../../../../pic32mx/lib/fpu64\libpic32.a(pic32_data_init.o)
                0x000000009d01c9fc                __pic32_data_init

.text.UART5_Write
                0x000000009d01ca80       0x80
 .text.UART5_Write
                0x000000009d01ca80       0x80 build/pic32mz/production/_ext/330555317/plib_uart5.o
                0x000000009d01ca80                UART5_Write

.text.f_stat    0x000000009d01cb00       0x80
 .text.f_stat   0x000000009d01cb00       0x80 build/pic32mz/production/_ext/1192657380/ff.o
                0x000000009d01cb00                f_stat

.text._USB_DEVICE_FindEndpoint
                0x000000009d01cb80       0x80
 .text._USB_DEVICE_FindEndpoint
                0x000000009d01cb80       0x80 build/pic32mz/production/_ext/202551283/usb_device.o
                0x000000009d01cb80                _USB_DEVICE_FindEndpoint

.text.f_fdisk   0x000000009d01cc00       0x7c
 .text.f_fdisk  0x000000009d01cc00       0x7c build/pic32mz/production/_ext/1192657380/ff.o
                0x000000009d01cc00                f_fdisk

.text.disk_ioctl
                0x000000009d01cc7c       0x7c
 .text.disk_ioctl
                0x000000009d01cc7c       0x7c build/pic32mz/production/_ext/727274963/diskio.o
                0x000000009d01cc7c                disk_ioctl

.text.FATFS_getclusters
                0x000000009d01ccf8       0x7c
 .text.FATFS_getclusters
                0x000000009d01ccf8       0x7c build/pic32mz/production/_ext/252936118/sys_fs_fat_interface.o
                0x000000009d01ccf8                FATFS_getclusters

.text.SYS_TIME_TimerDestroy
                0x000000009d01cd74       0x7c
 .text.SYS_TIME_TimerDestroy
                0x000000009d01cd74       0x7c build/pic32mz/production/_ext/1636986698/sys_time.o
                0x000000009d01cd74                SYS_TIME_TimerDestroy

.text.USB_DEVICE_ControlStatus
                0x000000009d01cdf0       0x7c
 .text.USB_DEVICE_ControlStatus
                0x000000009d01cdf0       0x7c build/pic32mz/production/_ext/202551283/usb_device.o
                0x000000009d01cdf0                USB_DEVICE_ControlStatus

.text.UART6_ErrorClear
                0x000000009d01ce6c       0x78
 .text.UART6_ErrorClear
                0x000000009d01ce6c       0x78 build/pic32mz/production/_ext/330555317/plib_uart6.o

.text.UART3_ErrorClear
                0x000000009d01cee4       0x78
 .text.UART3_ErrorClear
                0x000000009d01cee4       0x78 build/pic32mz/production/_ext/330555317/plib_uart3.o

.text.UART4_ErrorClear
                0x000000009d01cf5c       0x78
 .text.UART4_ErrorClear
                0x000000009d01cf5c       0x78 build/pic32mz/production/_ext/330555317/plib_uart4.o

.text.UART1_ErrorClear
                0x000000009d01cfd4       0x78
 .text.UART1_ErrorClear
                0x000000009d01cfd4       0x78 build/pic32mz/production/_ext/330555317/plib_uart1.o

.text.UART2_ErrorClear
                0x000000009d01d04c       0x78
 .text.UART2_ErrorClear
                0x000000009d01d04c       0x78 build/pic32mz/production/_ext/330555317/plib_uart2.o

.text.move_window
                0x000000009d01d0c4       0x74
 .text.move_window
                0x000000009d01d0c4       0x74 build/pic32mz/production/_ext/1192657380/ff.o

.text.ff_uni2oem
                0x000000009d01d138       0x74
 .text.ff_uni2oem
                0x000000009d01d138       0x74 build/pic32mz/production/_ext/1192657380/ffunicode.o
                0x000000009d01d138                ff_uni2oem

.text.disk_read_aligned
                0x000000009d01d1ac       0x74
 .text.disk_read_aligned
                0x000000009d01d1ac       0x74 build/pic32mz/production/_ext/727274963/diskio.o

.text.SYS_FS_MEDIA_MANAGER_IsFSFat
                0x000000009d01d220       0x74
 .text.SYS_FS_MEDIA_MANAGER_IsFSFat
                0x000000009d01d220       0x74 build/pic32mz/production/_ext/252936118/sys_fs_media_manager.o

.text.SYS_TIME_UpdateTimerList
                0x000000009d01d294       0x74
 .text.SYS_TIME_UpdateTimerList
                0x000000009d01d294       0x74 build/pic32mz/production/_ext/1636986698/sys_time.o

.text._USB_DEVICE_CDC_Deinitialization
                0x000000009d000110       0x70
 .text._USB_DEVICE_CDC_Deinitialization
                0x000000009d000110       0x70 build/pic32mz/production/_ext/202551283/usb_device_cdc.o
                0x000000009d000110                _USB_DEVICE_CDC_Deinitialization

.text.memmove   0x000000009d000190       0x6c
 .text.memmove  0x000000009d000190       0x6c c:/program files/microchip/xc32/v3.00/bin/bin/../../lib/gcc/pic32mx/8.3.1/../../../../pic32mx/lib/fpu64\libc.a(memmove.o)
                0x000000009d000190                memmove

.text._DRV_USBHS_DEVICE_IRPQueueFlush
                0x000000009d01d308       0x68
 .text._DRV_USBHS_DEVICE_IRPQueueFlush
                0x000000009d01d308       0x68 build/pic32mz/production/_ext/1783409726/drv_usbhs_device.o
                0x000000009d01d308                _DRV_USBHS_DEVICE_IRPQueueFlush

.text.f_puts    0x000000009d01d370       0x68
 .text.f_puts   0x000000009d01d370       0x68 build/pic32mz/production/_ext/1192657380/ff.o
                0x000000009d01d370                f_puts

.text._bufallo  0x000000009d01d3d8       0x68
 .text._bufallo
                0x000000009d01d3d8       0x68 c:/program files/microchip/xc32/v3.00/bin/bin/../../lib/gcc/pic32mx/8.3.1/../../../../pic32mx/lib/fpu64\libc.a(buf.o)
                0x000000009d01d3d8                _bufallo

.text.CORETIMER_Start
                0x000000009d01d440       0x64
 .text.CORETIMER_Start
                0x000000009d01d440       0x64 build/pic32mz/production/_ext/809018751/plib_coretimer.o
                0x000000009d01d440                CORETIMER_Start

.text.I2C2_Initialize
                0x000000009d01d4a4       0x64
 .text.I2C2_Initialize
                0x000000009d01d4a4       0x64 build/pic32mz/production/_ext/249272802/plib_i2c2_master.o
                0x000000009d01d4a4                I2C2_Initialize

.text.UART6_FAULT_InterruptHandler
                0x000000009d01d508       0x64
 .text.UART6_FAULT_InterruptHandler
                0x000000009d01d508       0x64 build/pic32mz/production/_ext/330555317/plib_uart6.o
                0x000000009d01d508                UART6_FAULT_InterruptHandler

.text.UART3_FAULT_InterruptHandler
                0x000000009d01d56c       0x64
 .text.UART3_FAULT_InterruptHandler
                0x000000009d01d56c       0x64 build/pic32mz/production/_ext/330555317/plib_uart3.o
                0x000000009d01d56c                UART3_FAULT_InterruptHandler

.text.UART4_FAULT_InterruptHandler
                0x000000009d01d5d0       0x64
 .text.UART4_FAULT_InterruptHandler
                0x000000009d01d5d0       0x64 build/pic32mz/production/_ext/330555317/plib_uart4.o
                0x000000009d01d5d0                UART4_FAULT_InterruptHandler

.text.UART1_FAULT_InterruptHandler
                0x000000009d01d634       0x64
 .text.UART1_FAULT_InterruptHandler
                0x000000009d01d634       0x64 build/pic32mz/production/_ext/330555317/plib_uart1.o
                0x000000009d01d634                UART1_FAULT_InterruptHandler

.text.UART2_FAULT_InterruptHandler
                0x000000009d01d698       0x64
 .text.UART2_FAULT_InterruptHandler
                0x000000009d01d698       0x64 build/pic32mz/production/_ext/330555317/plib_uart2.o
                0x000000009d01d698                UART2_FAULT_InterruptHandler

.text.putc_flush
                0x000000009d01d6fc       0x64
 .text.putc_flush
                0x000000009d01d6fc       0x64 build/pic32mz/production/_ext/1192657380/ff.o

.text.f_closedir
                0x000000009d01d760       0x64
 .text.f_closedir
                0x000000009d01d760       0x64 build/pic32mz/production/_ext/1192657380/ff.o
                0x000000009d01d760                f_closedir

.text._sprintf_cdnopsuxX
                0x000000009d01d7c4       0x64
 .text._sprintf_cdnopsuxX
                0x000000009d01d7c4       0x64 c:/program files/microchip/xc32/v3.00/bin/bin/../../lib/gcc/pic32mx/8.3.1/../../../../pic32mx/lib/fpu64\libc.a(sprintf_cdnopsuxX.eo)
                0x000000009d01d7c4                _sprintf_cdnopsuxX

.text.I2C2_BUS_InterruptHandler
                0x000000009d01d828       0x60
 .text.I2C2_BUS_InterruptHandler
                0x000000009d01d828       0x60 build/pic32mz/production/_ext/249272802/plib_i2c2_master.o
                0x000000009d01d828                I2C2_BUS_InterruptHandler

.text.I2C4_BUS_InterruptHandler
                0x000000009d01d888       0x60
 .text.I2C4_BUS_InterruptHandler
                0x000000009d01d888       0x60 build/pic32mz/production/_ext/249272802/plib_i2c4_master.o
                0x000000009d01d888                I2C4_BUS_InterruptHandler

.text.SYS_FS_MEDIA_MANAGER_EventHandler
                0x000000009d01d8e8       0x60
 .text.SYS_FS_MEDIA_MANAGER_EventHandler
                0x000000009d01d8e8       0x60 build/pic32mz/production/_ext/252936118/sys_fs_media_manager.o
                0x000000009d01d8e8                SYS_FS_MEDIA_MANAGER_EventHandler

.text._DRV_USBHS_DEVICE_Get_FreeDMAChannel
                0x000000009d01d948       0x5c
 .text._DRV_USBHS_DEVICE_Get_FreeDMAChannel
                0x000000009d01d948       0x5c build/pic32mz/production/_ext/1783409726/drv_usbhs_device.o
                0x000000009d01d948                _DRV_USBHS_DEVICE_Get_FreeDMAChannel

.text.I2C4_Initialize
                0x000000009d01d9a4       0x5c
 .text.I2C4_Initialize
                0x000000009d01d9a4       0x5c build/pic32mz/production/_ext/249272802/plib_i2c4_master.o
                0x000000009d01d9a4                I2C4_Initialize

.text.SYS_FS_MEDIA_MANAGER_Register
                0x000000009d01da00       0x5c
 .text.SYS_FS_MEDIA_MANAGER_Register
                0x000000009d01da00       0x5c build/pic32mz/production/_ext/252936118/sys_fs_media_manager.o
                0x000000009d01da00                SYS_FS_MEDIA_MANAGER_Register

.text.DRV_USBHS_DEVICE_EndpointIsEnabled
                0x000000009d01da5c       0x58
 .text.DRV_USBHS_DEVICE_EndpointIsEnabled
                0x000000009d01da5c       0x58 build/pic32mz/production/_ext/1783409726/drv_usbhs_device.o
                0x000000009d01da5c                DRV_USBHS_DEVICE_EndpointIsEnabled

.text.DRV_USBHS_DEVICE_EndpointIsStalled
                0x000000009d01dab4       0x58
 .text.DRV_USBHS_DEVICE_EndpointIsStalled
                0x000000009d01dab4       0x58 build/pic32mz/production/_ext/1783409726/drv_usbhs_device.o
                0x000000009d01dab4                DRV_USBHS_DEVICE_EndpointIsStalled

.text.tchar2uni
                0x000000009d01db0c       0x58
 .text.tchar2uni
                0x000000009d01db0c       0x58 build/pic32mz/production/_ext/1192657380/ff.o

.text.diskEventHandler
                0x000000009d01db64       0x58
 .text.diskEventHandler
                0x000000009d01db64       0x58 build/pic32mz/production/_ext/727274963/diskio.o
                0x000000009d01db64                diskEventHandler

.text.SYS_INT_SourceDisable
                0x000000009d01dbbc       0x58
 .text.SYS_INT_SourceDisable
                0x000000009d01dbbc       0x58 build/pic32mz/production/_ext/1832149040/sys_int.o
                0x000000009d01dbbc                SYS_INT_SourceDisable

.text.SYS_TIME_ResourceLock
                0x000000009d01dc14       0x58
 .text.SYS_TIME_ResourceLock
                0x000000009d01dc14       0x58 build/pic32mz/production/_ext/1636986698/sys_time.o

.text._USB_DEVICE_RedirectControlXfrToClient
                0x000000009d01dc6c       0x58
 .text._USB_DEVICE_RedirectControlXfrToClient
                0x000000009d01dc6c       0x58 build/pic32mz/production/_ext/202551283/usb_device.o
                0x000000009d01dc6c                _USB_DEVICE_RedirectControlXfrToClient

.text.USB_DEVICE_EndpointEnable
                0x000000009d01dcc4       0x58
 .text.USB_DEVICE_EndpointEnable
                0x000000009d01dcc4       0x58 build/pic32mz/production/_ext/202551283/usb_device.o
                0x000000009d01dcc4                USB_DEVICE_EndpointEnable

.text._USB_DEVICE_CDC_EndpointDisable
                0x000000009d01dd1c       0x58
 .text._USB_DEVICE_CDC_EndpointDisable
                0x000000009d01dd1c       0x58 build/pic32mz/production/_ext/202551283/usb_device_cdc.o
                0x000000009d01dd1c                _USB_DEVICE_CDC_EndpointDisable

.text.initCyclicTImer
                0x000000009d01dd74       0x58
 .text.initCyclicTImer
                0x000000009d01dd74       0x58 build/pic32mz/production/_ext/1360937237/app.o
                0x000000009d01dd74                initCyclicTImer

.text.DRV_SDSPI_IsAttached
                0x000000009d01ddcc       0x54
 .text.DRV_SDSPI_IsAttached
                0x000000009d01ddcc       0x54 build/pic32mz/production/_ext/757013429/drv_sdspi.o
                0x000000009d01ddcc                DRV_SDSPI_IsAttached

.text.DRV_USBHS_DEVICE_CurrentSpeedGet
                0x000000009d01de20       0x54
 .text.DRV_USBHS_DEVICE_CurrentSpeedGet
                0x000000009d01de20       0x54 build/pic32mz/production/_ext/1783409726/drv_usbhs_device.o
                0x000000009d01de20                DRV_USBHS_DEVICE_CurrentSpeedGet

.rodata.str1.4  0x000000009d01de74       0x54
 .rodata.str1.4
                0x000000009d01de74       0x54 build/pic32mz/production/_ext/1192657380/ff.o

.text.f_close   0x000000009d01dec8       0x54
 .text.f_close  0x000000009d01dec8       0x54 build/pic32mz/production/_ext/1192657380/ff.o
                0x000000009d01dec8                f_close

.text.f_putc    0x000000009d01df1c       0x54
 .text.f_putc   0x000000009d01df1c       0x54 build/pic32mz/production/_ext/1192657380/ff.o
                0x000000009d01df1c                f_putc

.text.ff_oem2uni
                0x000000009d01df70       0x54
 .text.ff_oem2uni
                0x000000009d01df70       0x54 build/pic32mz/production/_ext/1192657380/ffunicode.o
                0x000000009d01df70                ff_oem2uni

.text.createHexString
                0x000000009d01dfc4       0x54
 .text.createHexString
                0x000000009d01dfc4       0x54 build/pic32mz/production/_ext/1360937237/mdot.o
                0x000000009d01dfc4                createHexString

.text.main_entry
                0x000000009d01e018       0x54
 .text.main_entry
                0x000000009d01e018       0x54 C:\Users\VAMSIK~1.A\AppData\Local\Temp\cc9bld9L.o
                0x000000009d01e04c                __crt0_exit

.text._DRV_SDSPI_SPIWrite
                0x000000009d01e06c       0x50
 .text._DRV_SDSPI_SPIWrite
                0x000000009d01e06c       0x50 build/pic32mz/production/_ext/757013429/drv_sdspi_driver_interface.o
                0x000000009d01e06c                _DRV_SDSPI_SPIWrite

.text._DRV_SDSPI_SPIRead
                0x000000009d01e0bc       0x50
 .text._DRV_SDSPI_SPIRead
                0x000000009d01e0bc       0x50 build/pic32mz/production/_ext/757013429/drv_sdspi_driver_interface.o
                0x000000009d01e0bc                _DRV_SDSPI_SPIRead

.text.parseLoraFrame
                0x000000009d01e10c       0x50
 .text.parseLoraFrame
                0x000000009d01e10c       0x50 build/pic32mz/production/_ext/1360937237/mdot.o
                0x000000009d01e10c                parseLoraFrame

.text.initBuffer
                0x000000009d01e15c       0x50
 .text.initBuffer
                0x000000009d01e15c       0x50 build/pic32mz/production/_ext/1360937237/stringbuffer.o
                0x000000009d01e15c                initBuffer

.text._DRV_USBHS_DEVICE_Initialize
                0x000000009d01e1ac       0x4c
 .text._DRV_USBHS_DEVICE_Initialize
                0x000000009d01e1ac       0x4c build/pic32mz/production/_ext/1783409726/drv_usbhs_device.o
                0x000000009d01e1ac                _DRV_USBHS_DEVICE_Initialize

.text.SYS_CACHE_InvalidateDCache_by_Addr
                0x000000009d01e1f8       0x4c
 .text.SYS_CACHE_InvalidateDCache_by_Addr
                0x000000009d01e1f8       0x4c build/pic32mz/production/_ext/1519118610/sys_cache.o
                0x000000009d01e1f8                SYS_CACHE_InvalidateDCache_by_Addr

.text.SYS_CACHE_CleanDCache_by_Addr
                0x000000009d01e244       0x4c
 .text.SYS_CACHE_CleanDCache_by_Addr
                0x000000009d01e244       0x4c build/pic32mz/production/_ext/1519118610/sys_cache.o
                0x000000009d01e244                SYS_CACHE_CleanDCache_by_Addr

.text.SYS_FS_MEDIA_MANAGER_TransferTask
                0x000000009d01e290       0x4c
 .text.SYS_FS_MEDIA_MANAGER_TransferTask
                0x000000009d01e290       0x4c build/pic32mz/production/_ext/252936118/sys_fs_media_manager.o
                0x000000009d01e290                SYS_FS_MEDIA_MANAGER_TransferTask

.text.FATFS_readdir
                0x000000009d01e2dc       0x4c
 .text.FATFS_readdir
                0x000000009d01e2dc       0x4c build/pic32mz/production/_ext/252936118/sys_fs_fat_interface.o
                0x000000009d01e2dc                FATFS_readdir

.text.cyclicCallback
                0x000000009d01e328       0x4c
 .text.cyclicCallback
                0x000000009d01e328       0x4c build/pic32mz/production/_ext/1360937237/app.o
                0x000000009d01e328                cyclicCallback

.text.uart6_readCallback
                0x000000009d01e374       0x4c
 .text.uart6_readCallback
                0x000000009d01e374       0x4c build/pic32mz/production/_ext/1360937237/communication.o
                0x000000009d01e374                uart6_readCallback

.text.sbrk      0x000000009d01e3c0       0x4c
 .text.sbrk     0x000000009d01e3c0       0x4c c:/program files/microchip/xc32/v3.00/bin/bin/../../lib/gcc/pic32mx/8.3.1/../../../../pic32mx/lib/fpu64\libpic32.a(sbrk.o)
                0x000000009d01e3c0                sbrk

.text.DRV_SDSPI_GeometryGet
                0x000000009d01e40c       0x48
 .text.DRV_SDSPI_GeometryGet
                0x000000009d01e40c       0x48 build/pic32mz/production/_ext/757013429/drv_sdspi.o
                0x000000009d01e40c                DRV_SDSPI_GeometryGet

.text._DRV_SDSPI_SPIDriverEventHandler
                0x000000009d01e454       0x48
 .text._DRV_SDSPI_SPIDriverEventHandler
                0x000000009d01e454       0x48 build/pic32mz/production/_ext/757013429/drv_sdspi_driver_interface.o
                0x000000009d01e454                _DRV_SDSPI_SPIDriverEventHandler

.text._DRV_SDSPI_CardDetectPollingTimerStart
                0x000000009d01e49c       0x48
 .text._DRV_SDSPI_CardDetectPollingTimerStart
                0x000000009d01e49c       0x48 build/pic32mz/production/_ext/757013429/drv_sdspi_driver_interface.o
                0x000000009d01e49c                _DRV_SDSPI_CardDetectPollingTimerStart

.text._DRV_SDSPI_CmdResponseTimerStart
                0x000000009d01e4e4       0x48
 .text._DRV_SDSPI_CmdResponseTimerStart
                0x000000009d01e4e4       0x48 build/pic32mz/production/_ext/757013429/drv_sdspi_driver_interface.o
                0x000000009d01e4e4                _DRV_SDSPI_CmdResponseTimerStart

.text._DRV_SDSPI_TimerStart
                0x000000009d01e52c       0x48
 .text._DRV_SDSPI_TimerStart
                0x000000009d01e52c       0x48 build/pic32mz/production/_ext/757013429/drv_sdspi_driver_interface.o
                0x000000009d01e52c                _DRV_SDSPI_TimerStart

.text.DRV_USBHS_DEVICE_Attach
                0x000000009d01e574       0x48
 .text.DRV_USBHS_DEVICE_Attach
                0x000000009d01e574       0x48 build/pic32mz/production/_ext/1783409726/drv_usbhs_device.o
                0x000000009d01e574                DRV_USBHS_DEVICE_Attach

.text.FATFS_stat
                0x000000009d01e5bc       0x48
 .text.FATFS_stat
                0x000000009d01e5bc       0x48 build/pic32mz/production/_ext/252936118/sys_fs_fat_interface.o
                0x000000009d01e5bc                FATFS_stat

.text.SYS_Tasks
                0x000000009d01e604       0x48
 .text.SYS_Tasks
                0x000000009d01e604       0x48 build/pic32mz/production/_ext/953055421/tasks.o
                0x000000009d01e604                SYS_Tasks

.text.FATFS_close
                0x000000009d01e64c       0x44
 .text.FATFS_close
                0x000000009d01e64c       0x44 build/pic32mz/production/_ext/252936118/sys_fs_fat_interface.o
                0x000000009d01e64c                FATFS_close

.text.FATFS_closedir
                0x000000009d01e690       0x44
 .text.FATFS_closedir
                0x000000009d01e690       0x44 build/pic32mz/production/_ext/252936118/sys_fs_fat_interface.o
                0x000000009d01e690                FATFS_closedir

.text.SYS_TIME_ResourceUnlock
                0x000000009d01e6d4       0x44
 .text.SYS_TIME_ResourceUnlock
                0x000000009d01e6d4       0x44 build/pic32mz/production/_ext/1636986698/sys_time.o

.text.USB_DEVICE_EndpointDisable
                0x000000009d01e718       0x44
 .text.USB_DEVICE_EndpointDisable
                0x000000009d01e718       0x44 build/pic32mz/production/_ext/202551283/usb_device.o
                0x000000009d01e718                USB_DEVICE_EndpointDisable

.text.USB_DEVICE_IRPCancelAll
                0x000000009d01e75c       0x44
 .text.USB_DEVICE_IRPCancelAll
                0x000000009d01e75c       0x44 build/pic32mz/production/_ext/202551283/usb_device.o
                0x000000009d01e75c                USB_DEVICE_IRPCancelAll

.text           0x000000009d01e7a0       0x44
 .text          0x000000009d01e7a0       0x44 c:/program files/microchip/xc32/v3.00/bin/bin/../../lib/gcc/pic32mx/8.3.1/../../../../pic32mx/lib/fpu64\pic32_software_reset.o
                0x000000009d01e7a0                __pic32_software_reset

.text.DRV_SDSPI_EventHandlerSet
                0x000000009d01e7e4       0x40
 .text.DRV_SDSPI_EventHandlerSet
                0x000000009d01e7e4       0x40 build/pic32mz/production/_ext/757013429/drv_sdspi.o
                0x000000009d01e7e4                DRV_SDSPI_EventHandlerSet

.text.TMR2_Initialize
                0x000000009d01e824       0x40
 .text.TMR2_Initialize
                0x000000009d01e824       0x40 build/pic32mz/production/_ext/10662482/plib_tmr2.o
                0x000000009d01e824                TMR2_Initialize

.text.TIMER_2_InterruptHandler
                0x000000009d01e864       0x40
 .text.TIMER_2_InterruptHandler
                0x000000009d01e864       0x40 build/pic32mz/production/_ext/10662482/plib_tmr2.o
                0x000000009d01e864                TIMER_2_InterruptHandler

.text.ld_clust  0x000000009d01e8a4       0x40
 .text.ld_clust
                0x000000009d01e8a4       0x40 build/pic32mz/production/_ext/1192657380/ff.o

.text.FATFS_mkfs
                0x000000009d01e8e4       0x40
 .text.FATFS_mkfs
                0x000000009d01e8e4       0x40 build/pic32mz/production/_ext/252936118/sys_fs_fat_interface.o
                0x000000009d01e8e4                FATFS_mkfs

.text.mDotWait  0x000000009d01e924       0x40
 .text.mDotWait
                0x000000009d01e924       0x40 build/pic32mz/production/_ext/1360937237/mdot.o
                0x000000009d01e924                mDotWait

.text.available
                0x000000009d01e964       0x40
 .text.available
                0x000000009d01e964       0x40 build/pic32mz/production/_ext/1360937237/stringbuffer.o
                0x000000009d01e964                available

.text._DRV_SDSPI_SPISpeedSetup
                0x000000009d01e9a4       0x3c
 .text._DRV_SDSPI_SPISpeedSetup
                0x000000009d01e9a4       0x3c build/pic32mz/production/_ext/757013429/drv_sdspi_driver_interface.o
                0x000000009d01e9a4                _DRV_SDSPI_SPISpeedSetup

.text.CORE_TIMER_InterruptHandler
                0x000000009d01e9e0       0x3c
 .text.CORE_TIMER_InterruptHandler
                0x000000009d01e9e0       0x3c build/pic32mz/production/_ext/809018751/plib_coretimer.o
                0x000000009d01e9e0                CORE_TIMER_InterruptHandler

.text.SYS_TIME_Counter64Update
                0x000000009d01ea1c       0x3c
 .text.SYS_TIME_Counter64Update
                0x000000009d01ea1c       0x3c build/pic32mz/production/_ext/1636986698/sys_time.o

.text           0x000000009d01ea58       0x3c
 .text          0x000000009d01ea58       0x3c c:/program files/microchip/xc32/v3.00/bin/bin/../../lib/gcc/pic32mx/8.3.1/fpu64\libgcc.a(_lshrdi3.o)
                0x000000009d01ea58                __lshrdi3

.text._DRV_SDSPI_CmdResponseTimerStop
                0x000000009d01ea94       0x38
 .text._DRV_SDSPI_CmdResponseTimerStop
                0x000000009d01ea94       0x38 build/pic32mz/production/_ext/757013429/drv_sdspi_driver_interface.o
                0x000000009d01ea94                _DRV_SDSPI_CmdResponseTimerStop

.text._DRV_SDSPI_TimerStop
                0x000000009d01eacc       0x38
 .text._DRV_SDSPI_TimerStop
                0x000000009d01eacc       0x38 build/pic32mz/production/_ext/757013429/drv_sdspi_driver_interface.o
                0x000000009d01eacc                _DRV_SDSPI_TimerStop

.text.DRV_USBHS_DEVICE_AddressSet
                0x000000009d01eb04       0x38
 .text.DRV_USBHS_DEVICE_AddressSet
                0x000000009d01eb04       0x38 build/pic32mz/production/_ext/1783409726/drv_usbhs_device.o
                0x000000009d01eb04                DRV_USBHS_DEVICE_AddressSet

.rodata         0x000000009d01eb3c       0x38
 .rodata        0x000000009d01eb3c       0x38 build/pic32mz/production/_ext/1783409726/drv_usbhs_device.o

.text.UART5_Initialize
                0x000000009d01eb74       0x38
 .text.UART5_Initialize
                0x000000009d01eb74       0x38 build/pic32mz/production/_ext/330555317/plib_uart5.o
                0x000000009d01eb74                UART5_Initialize

.text.SYS_TIME_GetElapsedCount
                0x000000009d01ebac       0x38
 .text.SYS_TIME_GetElapsedCount
                0x000000009d01ebac       0x38 build/pic32mz/production/_ext/1636986698/sys_time.o

.text.CORETIMER_Stop
                0x000000009d01ebe4       0x34
 .text.CORETIMER_Stop
                0x000000009d01ebe4       0x34 build/pic32mz/production/_ext/809018751/plib_coretimer.o
                0x000000009d01ebe4                CORETIMER_Stop

.text.clst2sect
                0x000000009d01ec18       0x34
 .text.clst2sect
                0x000000009d01ec18       0x34 build/pic32mz/production/_ext/1192657380/ff.o

.text.st_clust  0x000000009d01ec4c       0x34
 .text.st_clust
                0x000000009d01ec4c       0x34 build/pic32mz/production/_ext/1192657380/ff.o

.text.SYS_FS_MEDIA_MANAGER_GetMediaGeometry
                0x000000009d01ec80       0x34
 .text.SYS_FS_MEDIA_MANAGER_GetMediaGeometry
                0x000000009d01ec80       0x34 build/pic32mz/production/_ext/252936118/sys_fs_media_manager.o
                0x000000009d01ec80                SYS_FS_MEDIA_MANAGER_GetMediaGeometry

.text.setbuf    0x000000009d01ecb4       0x34
 .text.setbuf   0x000000009d01ecb4       0x34 c:/program files/microchip/xc32/v3.00/bin/bin/../../lib/gcc/pic32mx/8.3.1/../../../../pic32mx/lib/fpu64\libc.a(setbuf.o)
                0x000000009d01ecb4                setbuf

.rodata         0x000000009d01ece8       0x30
 .rodata        0x000000009d01ece8       0x30 build/pic32mz/production/_ext/757013429/drv_sdspi_file_system.o
                0x000000009d01ece8                sdspiMediaFunctions

.text.DRV_USBHS_Close
                0x000000009d01ed18       0x30
 .text.DRV_USBHS_Close
                0x000000009d01ed18       0x30 build/pic32mz/production/_ext/1783409726/drv_usbhs.o
                0x000000009d01ed18                DRV_USBHS_Close

.text.sum_sfn   0x000000009d01ed48       0x30
 .text.sum_sfn  0x000000009d01ed48       0x30 build/pic32mz/production/_ext/1192657380/ff.o

.text.f_chdrive
                0x000000009d01ed78       0x30
 .text.f_chdrive
                0x000000009d01ed78       0x30 build/pic32mz/production/_ext/1192657380/ff.o
                0x000000009d01ed78                f_chdrive

.text.FATFS_chdrive
                0x000000009d01eda8       0x30
 .text.FATFS_chdrive
                0x000000009d01eda8       0x30 build/pic32mz/production/_ext/252936118/sys_fs_fat_interface.o
                0x000000009d01eda8                FATFS_chdrive

.text.clearSendBuffer
                0x000000009d01edd8       0x30
 .text.clearSendBuffer
                0x000000009d01edd8       0x30 build/pic32mz/production/_ext/1360937237/communication.o
                0x000000009d01edd8                clearSendBuffer

.text.clearReceiveBuffer
                0x000000009d01ee08       0x30
 .text.clearReceiveBuffer
                0x000000009d01ee08       0x30 build/pic32mz/production/_ext/1360937237/communication.o
                0x000000009d01ee08                clearReceiveBuffer

.rodata.str1.4  0x000000009d01ee38       0x30
 .rodata.str1.4
                0x000000009d01ee38       0x30 c:/program files/microchip/xc32/v3.00/bin/bin/../../lib/gcc/pic32mx/8.3.1/../../../../pic32mx/lib/fpu64\libc.a(doprnt_cdnopsuxX.eo)

.text.DRV_SPI_ReadTransferAdd
                0x000000009d01ee68       0x2c
 .text.DRV_SPI_ReadTransferAdd
                0x000000009d01ee68       0x2c build/pic32mz/production/_ext/2120450970/drv_spi.o
                0x000000009d01ee68                DRV_SPI_ReadTransferAdd

.text.CORETIMER_Initialize
                0x000000009d01ee94       0x2c
 .text.CORETIMER_Initialize
                0x000000009d01ee94       0x2c build/pic32mz/production/_ext/809018751/plib_coretimer.o
                0x000000009d01ee94                CORETIMER_Initialize

.text._mon_putc
                0x000000009d01eec0       0x2c
 .text._mon_putc
                0x000000009d01eec0       0x2c build/pic32mz/production/_ext/1991269565/xc32_monitor.o
                0x000000009d01eec0                _mon_putc

.text.ld_dword  0x000000009d01eeec       0x2c
 .text.ld_dword
                0x000000009d01eeec       0x2c build/pic32mz/production/_ext/1192657380/ff.o

.text.SYS_INT_SourceRestore
                0x000000009d01ef18       0x2c
 .text.SYS_INT_SourceRestore
                0x000000009d01ef18       0x2c build/pic32mz/production/_ext/1832149040/sys_int.o
                0x000000009d01ef18                SYS_INT_SourceRestore

.text._stub_sbd_memlayout
                0x000000009d01ef44       0x2c
 .text._stub_sbd_memlayout
                0x000000009d01ef44       0x2c c:/program files/microchip/xc32/v3.00/bin/bin/../../lib/gcc/pic32mx/8.3.1/../../../../pic32mx/lib/fpu64\libpic32.a(sbrk.o)
                0x000000009d01ef44                _sbd_memlayout
                0x000000009d01ef44                _stub_sbd_memlayout

.text.DRV_SDSPI_AsyncWrite
                0x000000009d01ef70       0x28
 .text.DRV_SDSPI_AsyncWrite
                0x000000009d01ef70       0x28 build/pic32mz/production/_ext/757013429/drv_sdspi.o
                0x000000009d01ef70                DRV_SDSPI_AsyncWrite

.text.DRV_SDSPI_RegisterWithSysFs
                0x000000009d01ef98       0x28
 .text.DRV_SDSPI_RegisterWithSysFs
                0x000000009d01ef98       0x28 build/pic32mz/production/_ext/757013429/drv_sdspi_file_system.o
                0x000000009d01ef98                DRV_SDSPI_RegisterWithSysFs

.text.EVIC_SourceEnable
                0x000000009d01efc0       0x28
 .text.EVIC_SourceEnable
                0x000000009d01efc0       0x28 build/pic32mz/production/_ext/330098546/plib_evic.o
                0x000000009d01efc0                EVIC_SourceEnable

.text.EVIC_SourceDisable
                0x000000009d01efe8       0x28
 .text.EVIC_SourceDisable
                0x000000009d01efe8       0x28 build/pic32mz/production/_ext/330098546/plib_evic.o
                0x000000009d01efe8                EVIC_SourceDisable

.text.EVIC_SourceStatusClear
                0x000000009d01f010       0x28
 .text.EVIC_SourceStatusClear
                0x000000009d01f010       0x28 build/pic32mz/production/_ext/330098546/plib_evic.o
                0x000000009d01f010                EVIC_SourceStatusClear

.text.EVIC_INT_Restore
                0x000000009d01f038       0x28
 .text.EVIC_INT_Restore
                0x000000009d01f038       0x28 build/pic32mz/production/_ext/330098546/plib_evic.o
                0x000000009d01f038                EVIC_INT_Restore

.text._SYS_FS_MEDIA_MANAGER_HandleMediaDetach
                0x000000009d01f060       0x28
 .text._SYS_FS_MEDIA_MANAGER_HandleMediaDetach
                0x000000009d01f060       0x28 build/pic32mz/production/_ext/252936118/sys_fs_media_manager.o

.text._USB_DEVICE_ClientHandleValidate
                0x000000009d01f088       0x28
 .text._USB_DEVICE_ClientHandleValidate
                0x000000009d01f088       0x28 build/pic32mz/production/_ext/202551283/usb_device.o
                0x000000009d01f088                _USB_DEVICE_ClientHandleValidate

.text.getMdotMessage
                0x000000009d01f0b0       0x28
 .text.getMdotMessage
                0x000000009d01f0b0       0x28 build/pic32mz/production/_ext/1360937237/mdot.o
                0x000000009d01f0b0                getMdotMessage

.text.DRV_SDSPI_AsyncRead
                0x000000009d01f0d8       0x24
 .text.DRV_SDSPI_AsyncRead
                0x000000009d01f0d8       0x24 build/pic32mz/production/_ext/757013429/drv_sdspi.o
                0x000000009d01f0d8                DRV_SDSPI_AsyncRead

.text.DRV_SPI_WriteTransferAdd
                0x000000009d01f0fc       0x24
 .text.DRV_SPI_WriteTransferAdd
                0x000000009d01f0fc       0x24 build/pic32mz/production/_ext/2120450970/drv_spi.o
                0x000000009d01f0fc                DRV_SPI_WriteTransferAdd

.text.CACHE_DataCacheClean
                0x000000009d01f120       0x24
 .text.CACHE_DataCacheClean
                0x000000009d01f120       0x24 build/pic32mz/production/_ext/1640642171/plib_cache.o
                0x000000009d01f120                CACHE_DataCacheClean

.text.CACHE_DataCacheInvalidate
                0x000000009d01f144       0x24
 .text.CACHE_DataCacheInvalidate
                0x000000009d01f144       0x24 build/pic32mz/production/_ext/1640642171/plib_cache.o
                0x000000009d01f144                CACHE_DataCacheInvalidate

.text.mem_cpy   0x000000009d01f168       0x24
 .text.mem_cpy  0x000000009d01f168       0x24 build/pic32mz/production/_ext/1192657380/ff.o

.text.disk_initialize
                0x000000009d01f18c       0x24
 .text.disk_initialize
                0x000000009d01f18c       0x24 build/pic32mz/production/_ext/727274963/diskio.o
                0x000000009d01f18c                disk_initialize

.text.sendBuffer
                0x000000009d01f1b0       0x24
 .text.sendBuffer
                0x000000009d01f1b0       0x24 build/pic32mz/production/_ext/1360937237/communication.o
                0x000000009d01f1b0                sendBuffer

.text.DRV_USBHS_InterruptHandler
                0x000000009d01f1d4       0x20
 .text.DRV_USBHS_InterruptHandler
                0x000000009d01f1d4       0x20 build/pic32mz/production/_ext/1783409726/drv_usbhs.o
                0x000000009d01f1d4                DRV_USBHS_InterruptHandler

.text.DRV_USBHS_DMAInterruptHandler
                0x000000009d01f1f4       0x20
 .text.DRV_USBHS_DMAInterruptHandler
                0x000000009d01f1f4       0x20 build/pic32mz/production/_ext/1783409726/drv_usbhs.o
                0x000000009d01f1f4                DRV_USBHS_DMAInterruptHandler

.text._DRV_USBHS_DEVICE_FIFOFreeAll
                0x000000009d01f214       0x20
 .text._DRV_USBHS_DEVICE_FIFOFreeAll
                0x000000009d01f214       0x20 build/pic32mz/production/_ext/1783409726/drv_usbhs_device.o
                0x000000009d01f214                _DRV_USBHS_DEVICE_FIFOFreeAll

.text.EVIC_SourceIsEnabled
                0x000000009d01f234       0x20
 .text.EVIC_SourceIsEnabled
                0x000000009d01f234       0x20 build/pic32mz/production/_ext/330098546/plib_evic.o
                0x000000009d01f234                EVIC_SourceIsEnabled

.text.EVIC_INT_Disable
                0x000000009d01f254       0x20
 .text.EVIC_INT_Disable
                0x000000009d01f254       0x20 build/pic32mz/production/_ext/330098546/plib_evic.o
                0x000000009d01f254                EVIC_INT_Disable

.text.st_dword  0x000000009d01f274       0x20
 .text.st_dword
                0x000000009d01f274       0x20 build/pic32mz/production/_ext/1192657380/ff.o

.rodata.str1.4  0x000000009d01f294       0x20
 .rodata.str1.4
                0x000000009d01f294       0x20 build/pic32mz/production/_ext/252936118/sys_fs_media_manager.o

.text._USB_DEVICE_CDC_GlobalInitialize
                0x000000009d01f2b4       0x20
 .text._USB_DEVICE_CDC_GlobalInitialize
                0x000000009d01f2b4       0x20 build/pic32mz/production/_ext/202551283/usb_device_cdc.o
                0x000000009d01f2b4                _USB_DEVICE_CDC_GlobalInitialize

.text.main      0x000000009d01f2d4       0x20
 .text.main     0x000000009d01f2d4       0x20 build/pic32mz/production/_ext/1360937237/main.o
                0x000000009d01f2d4                main

.text._DRV_SDSPI_SPIExclusiveAccess
                0x000000009d01f2f4       0x1c
 .text._DRV_SDSPI_SPIExclusiveAccess
                0x000000009d01f2f4       0x1c build/pic32mz/production/_ext/757013429/drv_sdspi_driver_interface.o
                0x000000009d01f2f4                _DRV_SDSPI_SPIExclusiveAccess

.text.CACHE_CacheCoherencyGet
                0x000000009d01f310       0x1c
 .text.CACHE_CacheCoherencyGet
                0x000000009d01f310       0x1c build/pic32mz/production/_ext/1640642171/plib_cache.o
                0x000000009d01f310                CACHE_CacheCoherencyGet

.text.CORETIMER_CompareSet
                0x000000009d01f32c       0x1c
 .text.CORETIMER_CompareSet
                0x000000009d01f32c       0x1c build/pic32mz/production/_ext/809018751/plib_coretimer.o
                0x000000009d01f32c                CORETIMER_CompareSet

.text.GPIO_PortSet
                0x000000009d01f348       0x1c
 .text.GPIO_PortSet
                0x000000009d01f348       0x1c build/pic32mz/production/_ext/330152374/plib_gpio.o
                0x000000009d01f348                GPIO_PortSet

.text.GPIO_PortClear
                0x000000009d01f364       0x1c
 .text.GPIO_PortClear
                0x000000009d01f364       0x1c build/pic32mz/production/_ext/330152374/plib_gpio.o
                0x000000009d01f364                GPIO_PortClear

.text.get_fattime
                0x000000009d01f380       0x1c
 .text.get_fattime
                0x000000009d01f380       0x1c build/pic32mz/production/_ext/727274963/diskio.o
                0x000000009d01f380                get_fattime

.text.SYS_FS_Tasks
                0x000000009d01f39c       0x1c
 .text.SYS_FS_Tasks
                0x000000009d01f39c       0x1c build/pic32mz/production/_ext/252936118/sys_fs.o
                0x000000009d01f39c                SYS_FS_Tasks

.text.FATFS_read
                0x000000009d01f3b8       0x1c
 .text.FATFS_read
                0x000000009d01f3b8       0x1c build/pic32mz/production/_ext/252936118/sys_fs_fat_interface.o
                0x000000009d01f3b8                FATFS_read

.text.FATFS_lseek
                0x000000009d01f3d4       0x1c
 .text.FATFS_lseek
                0x000000009d01f3d4       0x1c build/pic32mz/production/_ext/252936118/sys_fs_fat_interface.o
                0x000000009d01f3d4                FATFS_lseek

.text.FATFS_getlabel
                0x000000009d01f3f0       0x1c
 .text.FATFS_getlabel
                0x000000009d01f3f0       0x1c build/pic32mz/production/_ext/252936118/sys_fs_fat_interface.o
                0x000000009d01f3f0                FATFS_getlabel

.text.FATFS_getcwd
                0x000000009d01f40c       0x1c
 .text.FATFS_getcwd
                0x000000009d01f40c       0x1c build/pic32mz/production/_ext/252936118/sys_fs_fat_interface.o
                0x000000009d01f40c                FATFS_getcwd

.text.FATFS_gets
                0x000000009d01f428       0x1c
 .text.FATFS_gets
                0x000000009d01f428       0x1c build/pic32mz/production/_ext/252936118/sys_fs_fat_interface.o
                0x000000009d01f428                FATFS_gets

.text.FATFS_chdir
                0x000000009d01f444       0x1c
 .text.FATFS_chdir
                0x000000009d01f444       0x1c build/pic32mz/production/_ext/252936118/sys_fs_fat_interface.o
                0x000000009d01f444                FATFS_chdir

.text.FATFS_write
                0x000000009d01f460       0x1c
 .text.FATFS_write
                0x000000009d01f460       0x1c build/pic32mz/production/_ext/252936118/sys_fs_fat_interface.o
                0x000000009d01f460                FATFS_write

.text.FATFS_mkdir
                0x000000009d01f47c       0x1c
 .text.FATFS_mkdir
                0x000000009d01f47c       0x1c build/pic32mz/production/_ext/252936118/sys_fs_fat_interface.o
                0x000000009d01f47c                FATFS_mkdir

.text.FATFS_unlink
                0x000000009d01f498       0x1c
 .text.FATFS_unlink
                0x000000009d01f498       0x1c build/pic32mz/production/_ext/252936118/sys_fs_fat_interface.o
                0x000000009d01f498                FATFS_unlink

.text.FATFS_setlabel
                0x000000009d01f4b4       0x1c
 .text.FATFS_setlabel
                0x000000009d01f4b4       0x1c build/pic32mz/production/_ext/252936118/sys_fs_fat_interface.o
                0x000000009d01f4b4                FATFS_setlabel

.text.FATFS_truncate
                0x000000009d01f4d0       0x1c
 .text.FATFS_truncate
                0x000000009d01f4d0       0x1c build/pic32mz/production/_ext/252936118/sys_fs_fat_interface.o
                0x000000009d01f4d0                FATFS_truncate

.text.FATFS_chmod
                0x000000009d01f4ec       0x1c
 .text.FATFS_chmod
                0x000000009d01f4ec       0x1c build/pic32mz/production/_ext/252936118/sys_fs_fat_interface.o
                0x000000009d01f4ec                FATFS_chmod

.text.FATFS_utime
                0x000000009d01f508       0x1c
 .text.FATFS_utime
                0x000000009d01f508       0x1c build/pic32mz/production/_ext/252936118/sys_fs_fat_interface.o
                0x000000009d01f508                FATFS_utime

.text.FATFS_rename
                0x000000009d01f524       0x1c
 .text.FATFS_rename
                0x000000009d01f524       0x1c build/pic32mz/production/_ext/252936118/sys_fs_fat_interface.o
                0x000000009d01f524                FATFS_rename

.text.FATFS_sync
                0x000000009d01f540       0x1c
 .text.FATFS_sync
                0x000000009d01f540       0x1c build/pic32mz/production/_ext/252936118/sys_fs_fat_interface.o
                0x000000009d01f540                FATFS_sync

.text.FATFS_putc
                0x000000009d01f55c       0x1c
 .text.FATFS_putc
                0x000000009d01f55c       0x1c build/pic32mz/production/_ext/252936118/sys_fs_fat_interface.o
                0x000000009d01f55c                FATFS_putc

.text.FATFS_puts
                0x000000009d01f578       0x1c
 .text.FATFS_puts
                0x000000009d01f578       0x1c build/pic32mz/production/_ext/252936118/sys_fs_fat_interface.o
                0x000000009d01f578                FATFS_puts

.text.FATFS_printf
                0x000000009d01f594       0x1c
 .text.FATFS_printf
                0x000000009d01f594       0x1c build/pic32mz/production/_ext/252936118/sys_fs_fat_interface.o
                0x000000009d01f594                FATFS_printf

.text.FATFS_fdisk
                0x000000009d01f5b0       0x1c
 .text.FATFS_fdisk
                0x000000009d01f5b0       0x1c build/pic32mz/production/_ext/252936118/sys_fs_fat_interface.o
                0x000000009d01f5b0                FATFS_fdisk

.text.SYS_INT_Disable
                0x000000009d01f5cc       0x1c
 .text.SYS_INT_Disable
                0x000000009d01f5cc       0x1c build/pic32mz/production/_ext/1832149040/sys_int.o
                0x000000009d01f5cc                SYS_INT_Disable

.text.SYS_INT_Restore
                0x000000009d01f5e8       0x1c
 .text.SYS_INT_Restore
                0x000000009d01f5e8       0x1c build/pic32mz/production/_ext/1832149040/sys_int.o
                0x000000009d01f5e8                SYS_INT_Restore

.text.uart6_writeCallback
                0x000000009d01f604       0x1c
 .text.uart6_writeCallback
                0x000000009d01f604       0x1c build/pic32mz/production/_ext/1360937237/communication.o
                0x000000009d01f604                uart6_writeCallback

.MIPS.abiflags  0x000000009d01f620       0x18
 .MIPS.abiflags
                0x000000009d01f620       0x18 c:/program files/microchip/xc32/v3.00/bin/bin/../../lib/gcc/pic32mx/8.3.1/../../../../pic32mx/lib/fpu64\debug-exception-return.o

.text.CORETIMER_CounterGet
                0x000000009d01f638       0x18
 .text.CORETIMER_CounterGet
                0x000000009d01f638       0x18 build/pic32mz/production/_ext/809018751/plib_coretimer.o
                0x000000009d01f638                CORETIMER_CounterGet

.text.mem_set   0x000000009d01f650       0x18
 .text.mem_set  0x000000009d01f650       0x18 build/pic32mz/production/_ext/1192657380/ff.o

.text._general_exception_handler
                0x000000009d01f668       0x18
 .text._general_exception_handler
                0x000000009d01f668       0x18 build/pic32mz/production/_ext/953055421/exceptions.o
                0x000000009d01f668                _general_exception_handler

.text._bootstrap_exception_handler
                0x000000009d01f680       0x18
 .text._bootstrap_exception_handler
                0x000000009d01f680       0x18 build/pic32mz/production/_ext/953055421/exceptions.o
                0x000000009d01f680                _bootstrap_exception_handler

.text._cache_err_exception_handler
                0x000000009d01f698       0x18
 .text._cache_err_exception_handler
                0x000000009d01f698       0x18 build/pic32mz/production/_ext/953055421/exceptions.o
                0x000000009d01f698                _cache_err_exception_handler

.text._simple_tlb_refill_exception_handler
                0x000000009d01f6b0       0x18
 .text._simple_tlb_refill_exception_handler
                0x000000009d01f6b0       0x18 build/pic32mz/production/_ext/953055421/exceptions.o
                0x000000009d01f6b0                _simple_tlb_refill_exception_handler

.text           0x000000009d01f6c8       0x18
 .text          0x000000009d01f6c8       0x18 c:/program files/microchip/xc32/v3.00/bin/bin/../../lib/gcc/pic32mx/8.3.1/../../../../pic32mx/lib/fpu64\libpic32.a(default-nmi-handler.o)
                0x000000009d01f6c8                _nmi_handler

.text.SPI4_IsTransmitterBusy
                0x000000009d01f6e0       0x14
 .text.SPI4_IsTransmitterBusy
                0x000000009d01f6e0       0x14 build/pic32mz/production/_ext/867254719/plib_spi4_master.o
                0x000000009d01f6e0                SPI4_IsTransmitterBusy

.text.SPI4_CallbackRegister
                0x000000009d01f6f4       0x14
 .text.SPI4_CallbackRegister
                0x000000009d01f6f4       0x14 build/pic32mz/production/_ext/867254719/plib_spi4_master.o
                0x000000009d01f6f4                SPI4_CallbackRegister

.text.TMR2_Start
                0x000000009d01f708       0x14
 .text.TMR2_Start
                0x000000009d01f708       0x14 build/pic32mz/production/_ext/10662482/plib_tmr2.o
                0x000000009d01f708                TMR2_Start

.text.UART6_ReadCallbackRegister
                0x000000009d01f71c       0x14
 .text.UART6_ReadCallbackRegister
                0x000000009d01f71c       0x14 build/pic32mz/production/_ext/330555317/plib_uart6.o
                0x000000009d01f71c                UART6_ReadCallbackRegister

.text.UART6_WriteCallbackRegister
                0x000000009d01f730       0x14
 .text.UART6_WriteCallbackRegister
                0x000000009d01f730       0x14 build/pic32mz/production/_ext/330555317/plib_uart6.o
                0x000000009d01f730                UART6_WriteCallbackRegister

.text.FATFS_eof
                0x000000009d01f744       0x14
 .text.FATFS_eof
                0x000000009d01f744       0x14 build/pic32mz/production/_ext/252936118/sys_fs_fat_interface.o
                0x000000009d01f744                FATFS_eof

.rodata         0x000000009d01f758       0x28
 .rodata        0x000000009d01f758       0x14 build/pic32mz/production/_ext/202551283/usb_device_cdc.o
                0x000000009d01f758                cdcFunctionDriver
 .rodata        0x000000009d01f76c       0x14 build/pic32mz/production/_ext/1360937237/mdot.o

.text._buffree  0x000000009d01f780       0x14
 .text._buffree
                0x000000009d01f780       0x14 c:/program files/microchip/xc32/v3.00/bin/bin/../../lib/gcc/pic32mx/8.3.1/../../../../pic32mx/lib/fpu64\libc.a(buf.o)
                0x000000009d01f780                _buffree

.text.CORETIMER_CallbackSet
                0x000000009d01f794       0x10
 .text.CORETIMER_CallbackSet
                0x000000009d01f794       0x10 build/pic32mz/production/_ext/809018751/plib_coretimer.o
                0x000000009d01f794                CORETIMER_CallbackSet

.text.TMR2_PeriodSet
                0x000000009d01f7a4       0x10
 .text.TMR2_PeriodSet
                0x000000009d01f7a4       0x10 build/pic32mz/production/_ext/10662482/plib_tmr2.o
                0x000000009d01f7a4                TMR2_PeriodSet

.text.TMR2_CallbackRegister
                0x000000009d01f7b4       0x10
 .text.TMR2_CallbackRegister
                0x000000009d01f7b4       0x10 build/pic32mz/production/_ext/10662482/plib_tmr2.o
                0x000000009d01f7b4                TMR2_CallbackRegister

.text.communication_init
                0x000000009d01f7c4       0x10
 .text.communication_init
                0x000000009d01f7c4       0x10 build/pic32mz/production/_ext/1360937237/communication.o
                0x000000009d01f7c4                communication_init

.rodata.cst8    0x000000009d01f7d8       0x10
 .rodata.cst8   0x000000009d01f7d8       0x10 build/pic32mz/production/_ext/1360937237/mdot.o

.text.DRV_SDSPI_TimerCallback
                0x000000009d01f7e8        0xc
 .text.DRV_SDSPI_TimerCallback
                0x000000009d01f7e8        0xc build/pic32mz/production/_ext/757013429/drv_sdspi_driver_interface.o

.text.CORETIMER_FrequencyGet
                0x000000009d01f7f4        0xc
 .text.CORETIMER_FrequencyGet
                0x000000009d01f7f4        0xc build/pic32mz/production/_ext/809018751/plib_coretimer.o
                0x000000009d01f7f4                CORETIMER_FrequencyGet

.text.TMR2_FrequencyGet
                0x000000009d01f800        0xc
 .text.TMR2_FrequencyGet
                0x000000009d01f800        0xc build/pic32mz/production/_ext/10662482/plib_tmr2.o
                0x000000009d01f800                TMR2_FrequencyGet

.text.SYS_FS_MEDIA_MANAGER_RegisterTransferHandler
                0x000000009d01f80c        0xc
 .text.SYS_FS_MEDIA_MANAGER_RegisterTransferHandler
                0x000000009d01f80c        0xc build/pic32mz/production/_ext/252936118/sys_fs_media_manager.o
                0x000000009d01f80c                SYS_FS_MEDIA_MANAGER_RegisterTransferHandler

.text.FATFS_error
                0x000000009d01f818        0xc
 .text.FATFS_error
                0x000000009d01f818        0xc build/pic32mz/production/_ext/252936118/sys_fs_fat_interface.o
                0x000000009d01f818                FATFS_error

.text.APP_Initialize
                0x000000009d01f824        0xc
 .text.APP_Initialize
                0x000000009d01f824        0xc build/pic32mz/production/_ext/1360937237/app.o
                0x000000009d01f824                APP_Initialize

.text.mDotInit  0x000000009d01f830        0xc
 .text.mDotInit
                0x000000009d01f830        0xc build/pic32mz/production/_ext/1360937237/mdot.o
                0x000000009d01f830                mDotInit

.text.DRV_USBHS_DEVICE_RemoteWakeupStart
                0x000000009d01f83c        0x8
 .text.DRV_USBHS_DEVICE_RemoteWakeupStart
                0x000000009d01f83c        0x8 build/pic32mz/production/_ext/1783409726/drv_usbhs_device.o
                0x000000009d01f83c                DRV_USBHS_DEVICE_RemoteWakeupStart

.text.DRV_USBHS_DEVICE_RemoteWakeupStop
                0x000000009d01f844        0x8
 .text.DRV_USBHS_DEVICE_RemoteWakeupStop
                0x000000009d01f844        0x8 build/pic32mz/production/_ext/1783409726/drv_usbhs_device.o
                0x000000009d01f844                DRV_USBHS_DEVICE_RemoteWakeupStop

.text.DRV_USBHS_DEVICE_SOFNumberGet
                0x000000009d01f84c        0x8
 .text.DRV_USBHS_DEVICE_SOFNumberGet
                0x000000009d01f84c        0x8 build/pic32mz/production/_ext/1783409726/drv_usbhs_device.o
                0x000000009d01f84c                DRV_USBHS_DEVICE_SOFNumberGet

.text.disk_status
                0x000000009d01f854        0x8
 .text.disk_status
                0x000000009d01f854        0x8 build/pic32mz/production/_ext/727274963/diskio.o
                0x000000009d01f854                disk_status

.rodata         0x000000009d01f85c        0x8
 .rodata        0x000000009d01f85c        0x8 build/pic32mz/production/_ext/252936118/sys_fs_media_manager.o
                0x000000009d01f85c                gPartitionTypeOffset

.text.FATFS_tell
                0x000000009d01f864        0x8
 .text.FATFS_tell
                0x000000009d01f864        0x8 build/pic32mz/production/_ext/252936118/sys_fs_fat_interface.o
                0x000000009d01f864                FATFS_tell

.text.FATFS_size
                0x000000009d01f86c        0x8
 .text.FATFS_size
                0x000000009d01f86c        0x8 build/pic32mz/production/_ext/252936118/sys_fs_fat_interface.o
                0x000000009d01f86c                FATFS_size

.text._on_reset
                0x000000009d01f874        0x8
 .text._on_reset
                0x000000009d01f874        0x8 c:/program files/microchip/xc32/v3.00/bin/bin/../../lib/gcc/pic32mx/8.3.1/../../../../pic32mx/lib/fpu64\libpic32.a(default-on-reset.o)
                0x000000009d01f874                _on_reset

.text._on_bootstrap
                0x000000009d01f87c        0x8
 .text._on_bootstrap
                0x000000009d01f87c        0x8 c:/program files/microchip/xc32/v3.00/bin/bin/../../lib/gcc/pic32mx/8.3.1/../../../../pic32mx/lib/fpu64\libpic32.a(default-on-bootstrap.o)
                0x000000009d01f87c                _on_bootstrap
