
Optional file vector_offset_init.o not found
Archive member included to satisfy reference by file (symbol)

c:/program files/microchip/xc32/v4.00/bin/bin/../../lib/gcc/pic32mx/8.3.1/fpu64\libgcc.a(_udivdi3.o)
                              build/pic32mz/production/_ext/1636986698/sys_time.o (__udivdi3)
c:/program files/microchip/xc32/v4.00/bin/bin/../../lib/gcc/pic32mx/8.3.1/../../../../pic32mx/lib/fpu64\libpic32.a(memcmp.o)
                              build/pic32mz/production/_ext/757013429/drv_sdspi.o (memcmp)
c:/program files/microchip/xc32/v4.00/bin/bin/../../lib/gcc/pic32mx/8.3.1/../../../../pic32mx/lib/fpu64\libpic32.a(memcpy.o)
                              build/pic32mz/production/_ext/727274963/diskio.o (memcpy)
c:/program files/microchip/xc32/v4.00/bin/bin/../../lib/gcc/pic32mx/8.3.1/../../../../pic32mx/lib/fpu64\libpic32.a(memset.o)
                              build/pic32mz/production/_ext/757013429/drv_sdspi.o (memset)
c:/program files/microchip/xc32/v4.00/bin/bin/../../lib/gcc/pic32mx/8.3.1/../../../../pic32mx/lib/fpu64\libpic32.a(strcmp.o)
                              build/pic32mz/production/_ext/252936118/sys_fs_media_manager.o (strcmp)
c:/program files/microchip/xc32/v4.00/bin/bin/../../lib/gcc/pic32mx/8.3.1/../../../../pic32mx/lib/fpu64\libpic32.a(strcpy.o)
                              build/pic32mz/production/_ext/252936118/sys_fs.o (strcpy)
c:/program files/microchip/xc32/v4.00/bin/bin/../../lib/gcc/pic32mx/8.3.1/../../../../pic32mx/lib/fpu64\libpic32.a(strlen.o)
                              build/pic32mz/production/_ext/252936118/sys_fs.o (strlen)
c:/program files/microchip/xc32/v4.00/bin/bin/../../lib/gcc/pic32mx/8.3.1/../../../../pic32mx/lib/fpu64\libpic32.a(default-on-reset.o)
                              C:\Users\rford7\AppData\Local\Temp\cciIy8zr.o (_on_reset)
c:/program files/microchip/xc32/v4.00/bin/bin/../../lib/gcc/pic32mx/8.3.1/../../../../pic32mx/lib/fpu64\libpic32.a(default-on-bootstrap.o)
                              C:\Users\rford7\AppData\Local\Temp\cciIy8zr.o (_on_bootstrap)
c:/program files/microchip/xc32/v4.00/bin/bin/../../lib/gcc/pic32mx/8.3.1/../../../../pic32mx/lib/fpu64\libpic32.a(default-nmi-handler.o)
                              C:\Users\rford7\AppData\Local\Temp\cciIy8zr.o (_nmi_handler)
c:/program files/microchip/xc32/v4.00/bin/bin/../../lib/gcc/pic32mx/8.3.1/../../../../pic32mx/lib/fpu64\libpic32.a(pic32_data_init.o)
                              C:\Users\rford7\AppData\Local\Temp\cciIy8zr.o (__pic32_data_init)
c:/program files/microchip/xc32/v4.00/bin/bin/../../lib/gcc/pic32mx/8.3.1/../../../../pic32mx/lib/fpu64\libpic32.a(pic32_init_cache.o)
                              C:\Users\rford7\AppData\Local\Temp\cciIy8zr.o (__pic32_init_cache)
c:/program files/microchip/xc32/v4.00/bin/bin/../../lib/gcc/pic32mx/8.3.1/../../../../pic32mx/lib/fpu64\libpic32.a(pic32_init_tlb_ebi_sqi.o)
                              C:\Users\rford7\AppData\Local\Temp\cciIy8zr.o (__pic32_tlb_init_ebi_sqi)
c:/program files/microchip/xc32/v4.00/bin/bin/../../lib/gcc/pic32mx/8.3.1/../../../../pic32mx/lib/fpu64\libpic32.a(general-exception.o)
                              C:\Users\rford7\AppData\Local\Temp\cciIy8zr.o (_general_exception_context)
c:/program files/microchip/xc32/v4.00/bin/bin/../../lib/gcc/pic32mx/8.3.1/../../../../pic32mx/lib/fpu64\libpic32.a(cache-err-exception.o)
                              C:\Users\rford7\AppData\Local\Temp\cciIy8zr.o (_cache_err_exception_context)
c:/program files/microchip/xc32/v4.00/bin/bin/../../lib/gcc/pic32mx/8.3.1/../../../../pic32mx/lib/fpu64\libpic32.a(simple-tlb-refill-exception.o)
                              C:\Users\rford7\AppData\Local\Temp\cciIy8zr.o (_simple_tlb_refill_exception_context)
c:/program files/microchip/xc32/v4.00/bin/bin/../../lib/gcc/pic32mx/8.3.1/../../../../pic32mx/lib/fpu64\libpic32.a(defaultinterrupt.o)
                              C:\Users\rford7\AppData\Local\Temp\ccCB6OPC.o (_DefaultInterrupt)
c:/program files/microchip/xc32/v4.00/bin/bin/../../lib/gcc/pic32mx/8.3.1/../../../../pic32mx/lib/fpu64\libc-musl.a(__sio_sprintf_dosux.o)
                              build/pic32mz/production/_ext/1360937237/mdot.o (_sprintf_cdnopsuxX)
c:/program files/microchip/xc32/v4.00/bin/bin/../../lib/gcc/pic32mx/8.3.1/../../../../pic32mx/lib/fpu64\libc-musl.a(__fmt_d.o)
                              c:/program files/microchip/xc32/v4.00/bin/bin/../../lib/gcc/pic32mx/8.3.1/../../../../pic32mx/lib/fpu64\libc-musl.a(__sio_sprintf_dosux.o) (__fmt_d_needed)
c:/program files/microchip/xc32/v4.00/bin/bin/../../lib/gcc/pic32mx/8.3.1/../../../../pic32mx/lib/fpu64\libc-musl.a(__fmt_o.o)
                              c:/program files/microchip/xc32/v4.00/bin/bin/../../lib/gcc/pic32mx/8.3.1/../../../../pic32mx/lib/fpu64\libc-musl.a(__sio_sprintf_dosux.o) (__fmt_o_needed)
c:/program files/microchip/xc32/v4.00/bin/bin/../../lib/gcc/pic32mx/8.3.1/../../../../pic32mx/lib/fpu64\libc-musl.a(__fmt_s.o)
                              c:/program files/microchip/xc32/v4.00/bin/bin/../../lib/gcc/pic32mx/8.3.1/../../../../pic32mx/lib/fpu64\libc-musl.a(__sio_sprintf_dosux.o) (__fmt_s_needed)
c:/program files/microchip/xc32/v4.00/bin/bin/../../lib/gcc/pic32mx/8.3.1/../../../../pic32mx/lib/fpu64\libc-musl.a(__fmt_u.o)
                              c:/program files/microchip/xc32/v4.00/bin/bin/../../lib/gcc/pic32mx/8.3.1/../../../../pic32mx/lib/fpu64\libc-musl.a(__fmt_d.o) (__cvt_u)
c:/program files/microchip/xc32/v4.00/bin/bin/../../lib/gcc/pic32mx/8.3.1/../../../../pic32mx/lib/fpu64\libc-musl.a(__fmt_x.o)
                              c:/program files/microchip/xc32/v4.00/bin/bin/../../lib/gcc/pic32mx/8.3.1/../../../../pic32mx/lib/fpu64\libc-musl.a(__sio_sprintf_dosux.o) (__fmt_x_needed)
c:/program files/microchip/xc32/v4.00/bin/bin/../../lib/gcc/pic32mx/8.3.1/../../../../pic32mx/lib/fpu64\libc-musl.a(__printf_core.o)
                              c:/program files/microchip/xc32/v4.00/bin/bin/../../lib/gcc/pic32mx/8.3.1/../../../../pic32mx/lib/fpu64\libc-musl.a(__fmt_d.o) (__pad)
c:/program files/microchip/xc32/v4.00/bin/bin/../../lib/gcc/pic32mx/8.3.1/../../../../pic32mx/lib/fpu64\libc-musl.a(stdin.o)
                              build/pic32mz/production/_ext/953055421/initialization.o (_stdin)
c:/program files/microchip/xc32/v4.00/bin/bin/../../lib/gcc/pic32mx/8.3.1/../../../../pic32mx/lib/fpu64\libc-musl.a(stdout.o)
                              build/pic32mz/production/_ext/953055421/initialization.o (_stdout)
c:/program files/microchip/xc32/v4.00/bin/bin/../../lib/gcc/pic32mx/8.3.1/../../../../pic32mx/lib/fpu64\libc-musl.a(setbuf.o)
                              build/pic32mz/production/_ext/953055421/initialization.o (setbuf)
c:/program files/microchip/xc32/v4.00/bin/bin/../../lib/gcc/pic32mx/8.3.1/../../../../pic32mx/lib/fpu64\libc-musl.a(atoi.o)
                              c:/program files/microchip/xc32/v4.00/bin/bin/../../lib/gcc/pic32mx/8.3.1/../../../../pic32mx/lib/fpu64\libc-musl.a(__printf_core.o) (atoi)
c:/program files/microchip/xc32/v4.00/bin/bin/../../lib/gcc/pic32mx/8.3.1/../../../../pic32mx/lib/fpu64\libc-musl.a(memmove.o)
                              build/pic32mz/production/_ext/727274963/diskio.o (memmove)
c:/program files/microchip/xc32/v4.00/bin/bin/../../lib/gcc/pic32mx/8.3.1/../../../../pic32mx/lib/fpu64\libc-musl.a(strncmp.o)
                              build/pic32mz/production/_ext/252936118/sys_fs.o (strncmp)
c:/program files/microchip/xc32/v4.00/bin/bin/../../lib/gcc/pic32mx/8.3.1/../../../../pic32mx/lib/fpu64\libc-musl.a(strncpy.o)
                              build/pic32mz/production/_ext/1360937237/mdot.o (strncpy)
c:/program files/microchip/xc32/v4.00/bin/bin/../../lib/gcc/pic32mx/8.3.1/../../../../pic32mx/lib/fpu64\libc-musl.a(tolower.o)
                              c:/program files/microchip/xc32/v4.00/bin/bin/../../lib/gcc/pic32mx/8.3.1/../../../../pic32mx/lib/fpu64\libc-musl.a(__printf_core.o) (tolower)
c:/program files/microchip/xc32/v4.00/bin/bin/../../lib/gcc/pic32mx/8.3.1/../../../../pic32mx/lib/fpu64\libc-musl.a(toupper.o)
                              c:/program files/microchip/xc32/v4.00/bin/bin/../../lib/gcc/pic32mx/8.3.1/../../../../pic32mx/lib/fpu64\libc-musl.a(__fmt_x.o) (toupper)
c:/program files/microchip/xc32/v4.00/bin/bin/../../lib/gcc/pic32mx/8.3.1/../../../../pic32mx/lib/fpu64\libc-musl.a(__int_vsprintf.o)
                              c:/program files/microchip/xc32/v4.00/bin/bin/../../lib/gcc/pic32mx/8.3.1/../../../../pic32mx/lib/fpu64\libc-musl.a(__sio_sprintf_dosux.o) (__vsprintf)
c:/program files/microchip/xc32/v4.00/bin/bin/../../lib/gcc/pic32mx/8.3.1/../../../../pic32mx/lib/fpu64\libc-musl.a(__fopen.o)
                              c:/program files/microchip/xc32/v4.00/bin/bin/../../lib/gcc/pic32mx/8.3.1/../../../../pic32mx/lib/fpu64\libc-musl.a(stdout.o) (__stdio_seek)
c:/program files/microchip/xc32/v4.00/bin/bin/../../lib/gcc/pic32mx/8.3.1/../../../../pic32mx/lib/fpu64\libc-musl.a(__io_init_needed.o)
                              c:/program files/microchip/xc32/v4.00/bin/bin/../../lib/gcc/pic32mx/8.3.1/../../../../pic32mx/lib/fpu64\libc-musl.a(stdout.o) (__io_init_needed)
c:/program files/microchip/xc32/v4.00/bin/bin/../../lib/gcc/pic32mx/8.3.1/../../../../pic32mx/lib/fpu64\libc-musl.a(__io_rw_needed.o)
                              c:/program files/microchip/xc32/v4.00/bin/bin/../../lib/gcc/pic32mx/8.3.1/../../../../pic32mx/lib/fpu64\libc-musl.a(stdin.o) (__io_rw_needed)
c:/program files/microchip/xc32/v4.00/bin/bin/../../lib/gcc/pic32mx/8.3.1/../../../../pic32mx/lib/fpu64\libc-musl.a(__out.o)
                              c:/program files/microchip/xc32/v4.00/bin/bin/../../lib/gcc/pic32mx/8.3.1/../../../../pic32mx/lib/fpu64\libc-musl.a(stdout.o) (__stdio_write_unbuffered)
c:/program files/microchip/xc32/v4.00/bin/bin/../../lib/gcc/pic32mx/8.3.1/../../../../pic32mx/lib/fpu64\libc-musl.a(__pop_float.o)
                              c:/program files/microchip/xc32/v4.00/bin/bin/../../lib/gcc/pic32mx/8.3.1/../../../../pic32mx/lib/fpu64\libc-musl.a(__printf_core.o) (__pop_float)
c:/program files/microchip/xc32/v4.00/bin/bin/../../lib/gcc/pic32mx/8.3.1/../../../../pic32mx/lib/fpu64\libc-musl.a(__pop_int.o)
                              c:/program files/microchip/xc32/v4.00/bin/bin/../../lib/gcc/pic32mx/8.3.1/../../../../pic32mx/lib/fpu64\libc-musl.a(__printf_core.o) (__pop_int)
c:/program files/microchip/xc32/v4.00/bin/bin/../../lib/gcc/pic32mx/8.3.1/../../../../pic32mx/lib/fpu64\libc-musl.a(__pop_ptr.o)
                              c:/program files/microchip/xc32/v4.00/bin/bin/../../lib/gcc/pic32mx/8.3.1/../../../../pic32mx/lib/fpu64\libc-musl.a(__printf_core.o) (__pop_ptr)
c:/program files/microchip/xc32/v4.00/bin/bin/../../lib/gcc/pic32mx/8.3.1/../../../../pic32mx/lib/fpu64\libc-musl.a(__stdio_close.o)
                              c:/program files/microchip/xc32/v4.00/bin/bin/../../lib/gcc/pic32mx/8.3.1/../../../../pic32mx/lib/fpu64\libc-musl.a(stdout.o) (__stdio_close_rw)
c:/program files/microchip/xc32/v4.00/bin/bin/../../lib/gcc/pic32mx/8.3.1/../../../../pic32mx/lib/fpu64\libc-musl.a(__stdio_read.o)
                              c:/program files/microchip/xc32/v4.00/bin/bin/../../lib/gcc/pic32mx/8.3.1/../../../../pic32mx/lib/fpu64\libc-musl.a(stdin.o) (__stdio_read)
c:/program files/microchip/xc32/v4.00/bin/bin/../../lib/gcc/pic32mx/8.3.1/../../../../pic32mx/lib/fpu64\libc-musl.a(__towrite_rw.o)
                              c:/program files/microchip/xc32/v4.00/bin/bin/../../lib/gcc/pic32mx/8.3.1/../../../../pic32mx/lib/fpu64\libc-musl.a(__io_rw_needed.o) (__towrite_rw_needed)
c:/program files/microchip/xc32/v4.00/bin/bin/../../lib/gcc/pic32mx/8.3.1/../../../../pic32mx/lib/fpu64\libc-musl.a(setvbuf.o)
                              c:/program files/microchip/xc32/v4.00/bin/bin/../../lib/gcc/pic32mx/8.3.1/../../../../pic32mx/lib/fpu64\libc-musl.a(setbuf.o) (setvbuf)
c:/program files/microchip/xc32/v4.00/bin/bin/../../lib/gcc/pic32mx/8.3.1/../../../../pic32mx/lib/fpu64\libc-musl.a(stpncpy.o)
                              c:/program files/microchip/xc32/v4.00/bin/bin/../../lib/gcc/pic32mx/8.3.1/../../../../pic32mx/lib/fpu64\libc-musl.a(strncpy.o) (__stpncpy)
c:/program files/microchip/xc32/v4.00/bin/bin/../../lib/gcc/pic32mx/8.3.1/../../../../pic32mx/lib/fpu64\libc-musl.a(readv.o)
                              c:/program files/microchip/xc32/v4.00/bin/bin/../../lib/gcc/pic32mx/8.3.1/../../../../pic32mx/lib/fpu64\libc-musl.a(__stdio_read.o) (readv)
c:/program files/microchip/xc32/v4.00/bin/bin/../../lib/gcc/pic32mx/8.3.1/../../../../pic32mx/lib/fpu64\libc-musl.a(malloc.o)
                              c:/program files/microchip/xc32/v4.00/bin/bin/../../lib/gcc/pic32mx/8.3.1/../../../../pic32mx/lib/fpu64\libc-musl.a(__fopen.o) (malloc)
c:/program files/microchip/xc32/v4.00/bin/bin/../../lib/gcc/pic32mx/8.3.1/../../../../pic32mx/lib/fpu64\libc-musl.a(expand_heap.o)
                              c:/program files/microchip/xc32/v4.00/bin/bin/../../lib/gcc/pic32mx/8.3.1/../../../../pic32mx/lib/fpu64\libc-musl.a(malloc.o) (__expand_heap)
c:/program files/microchip/xc32/v4.00/bin/bin/../../lib/gcc/pic32mx/8.3.1/../../../../pic32mx/lib/fpu64\libc-musl.a(__int_vsnprintf.o)
                              c:/program files/microchip/xc32/v4.00/bin/bin/../../lib/gcc/pic32mx/8.3.1/../../../../pic32mx/lib/fpu64\libc-musl.a(__int_vsprintf.o) (__vsnprintf)
c:/program files/microchip/xc32/v4.00/bin/bin/../../lib/gcc/pic32mx/8.3.1/../../../../pic32mx/lib/fpu64\libc-musl.a(__fopen_rw.o)
                              c:/program files/microchip/xc32/v4.00/bin/bin/../../lib/gcc/pic32mx/8.3.1/../../../../pic32mx/lib/fpu64\libc-musl.a(__io_rw_needed.o) (__fopen_rw_needed)
c:/program files/microchip/xc32/v4.00/bin/bin/../../lib/gcc/pic32mx/8.3.1/../../../../pic32mx/lib/fpu64\libc-musl.a(__ftello_rw.o)
                              c:/program files/microchip/xc32/v4.00/bin/bin/../../lib/gcc/pic32mx/8.3.1/../../../../pic32mx/lib/fpu64\libc-musl.a(__io_rw_needed.o) (__ftello_adj_rw_needed)
c:/program files/microchip/xc32/v4.00/bin/bin/../../lib/gcc/pic32mx/8.3.1/../../../../pic32mx/lib/fpu64\libc-musl.a(__init_stdio.o)
                              c:/program files/microchip/xc32/v4.00/bin/bin/../../lib/gcc/pic32mx/8.3.1/../../../../pic32mx/lib/fpu64\libc-musl.a(__io_init_needed.o) (__init_stdio_needed)
c:/program files/microchip/xc32/v4.00/bin/bin/../../lib/gcc/pic32mx/8.3.1/../../../../pic32mx/lib/fpu64\libc-musl.a(__io_buf_needed.o)
                              c:/program files/microchip/xc32/v4.00/bin/bin/../../lib/gcc/pic32mx/8.3.1/../../../../pic32mx/lib/fpu64\libc-musl.a(__io_rw_needed.o) (__io_buf_needed)
c:/program files/microchip/xc32/v4.00/bin/bin/../../lib/gcc/pic32mx/8.3.1/../../../../pic32mx/lib/fpu64\libc-musl.a(__io_file_needed.o)
                              c:/program files/microchip/xc32/v4.00/bin/bin/../../lib/gcc/pic32mx/8.3.1/../../../../pic32mx/lib/fpu64\libc-musl.a(__io_init_needed.o) (__io_file_needed)
c:/program files/microchip/xc32/v4.00/bin/bin/../../lib/gcc/pic32mx/8.3.1/../../../../pic32mx/lib/fpu64\libc-musl.a(__io_std_needed.o)
                              c:/program files/microchip/xc32/v4.00/bin/bin/../../lib/gcc/pic32mx/8.3.1/../../../../pic32mx/lib/fpu64\libc-musl.a(__io_buf_needed.o) (__io_std_needed)
c:/program files/microchip/xc32/v4.00/bin/bin/../../lib/gcc/pic32mx/8.3.1/../../../../pic32mx/lib/fpu64\libc-musl.a(__putc.o)
                              c:/program files/microchip/xc32/v4.00/bin/bin/../../lib/gcc/pic32mx/8.3.1/../../../../pic32mx/lib/fpu64\libc-musl.a(__io_buf_needed.o) (__putc_needed)
c:/program files/microchip/xc32/v4.00/bin/bin/../../lib/gcc/pic32mx/8.3.1/../../../../pic32mx/lib/fpu64\libc-musl.a(__stderr.o)
                              c:/program files/microchip/xc32/v4.00/bin/bin/../../lib/gcc/pic32mx/8.3.1/../../../../pic32mx/lib/fpu64\libc-musl.a(__io_std_needed.o) (__init_stderr_needed)
c:/program files/microchip/xc32/v4.00/bin/bin/../../lib/gcc/pic32mx/8.3.1/../../../../pic32mx/lib/fpu64\libc-musl.a(__stdio_exit.o)
                              c:/program files/microchip/xc32/v4.00/bin/bin/../../lib/gcc/pic32mx/8.3.1/../../../../pic32mx/lib/fpu64\libc-musl.a(__io_buf_needed.o) (__stdio_exit_needed)
c:/program files/microchip/xc32/v4.00/bin/bin/../../lib/gcc/pic32mx/8.3.1/../../../../pic32mx/lib/fpu64\libc-musl.a(__stdio_write.o)
                              c:/program files/microchip/xc32/v4.00/bin/bin/../../lib/gcc/pic32mx/8.3.1/../../../../pic32mx/lib/fpu64\libc-musl.a(setvbuf.o) (__stdio_write_buffered)
c:/program files/microchip/xc32/v4.00/bin/bin/../../lib/gcc/pic32mx/8.3.1/../../../../pic32mx/lib/fpu64\libc-musl.a(__stdout.o)
                              c:/program files/microchip/xc32/v4.00/bin/bin/../../lib/gcc/pic32mx/8.3.1/../../../../pic32mx/lib/fpu64\libc-musl.a(__io_std_needed.o) (__init_stdout_needed)
c:/program files/microchip/xc32/v4.00/bin/bin/../../lib/gcc/pic32mx/8.3.1/../../../../pic32mx/lib/fpu64\libc-musl.a(__towrite.o)
                              c:/program files/microchip/xc32/v4.00/bin/bin/../../lib/gcc/pic32mx/8.3.1/../../../../pic32mx/lib/fpu64\libc-musl.a(__stdio_write.o) (__towrite)
c:/program files/microchip/xc32/v4.00/bin/bin/../../lib/gcc/pic32mx/8.3.1/../../../../pic32mx/lib/fpu64\libc-musl.a(putc.o)
                              c:/program files/microchip/xc32/v4.00/bin/bin/../../lib/gcc/pic32mx/8.3.1/../../../../pic32mx/lib/fpu64\libc-musl.a(__putc.o) (__putc_unbuffered)
c:/program files/microchip/xc32/v4.00/bin/bin/../../lib/gcc/pic32mx/8.3.1/../../../../pic32mx/lib/fpu64\libc-musl.a(read.o)
                              c:/program files/microchip/xc32/v4.00/bin/bin/../../lib/gcc/pic32mx/8.3.1/../../../../pic32mx/lib/fpu64\libc-musl.a(readv.o) (read)
c:/program files/microchip/xc32/v4.00/bin/bin/../../lib/gcc/pic32mx/8.3.1/../../../../pic32mx/lib/fpu64\libc-musl.a(writev.o)
                              c:/program files/microchip/xc32/v4.00/bin/bin/../../lib/gcc/pic32mx/8.3.1/../../../../pic32mx/lib/fpu64\libc-musl.a(__stdio_write.o) (writev)
c:/program files/microchip/xc32/v4.00/bin/bin/../../lib/gcc/pic32mx/8.3.1/../../../../pic32mx/lib/fpu64\libc-musl.a(libc.o)
                              c:/program files/microchip/xc32/v4.00/bin/bin/../../lib/gcc/pic32mx/8.3.1/../../../../pic32mx/lib/fpu64\libc-musl.a(malloc.o) (__libc)
c:/program files/microchip/xc32/v4.00/bin/bin/../../lib/gcc/pic32mx/8.3.1/../../../../pic32mx/lib/fpu64\libc-musl.a(syscall_ret.o)
                              c:/program files/microchip/xc32/v4.00/bin/bin/../../lib/gcc/pic32mx/8.3.1/../../../../pic32mx/lib/fpu64\libc-musl.a(read.o) (__syscall_ret)
c:/program files/microchip/xc32/v4.00/bin/bin/../../lib/gcc/pic32mx/8.3.1/../../../../pic32mx/lib/fpu64\libc-musl.a(__int_vfprintf.o)
                              c:/program files/microchip/xc32/v4.00/bin/bin/../../lib/gcc/pic32mx/8.3.1/../../../../pic32mx/lib/fpu64\libc-musl.a(__int_vsnprintf.o) (__vfprintf)
c:/program files/microchip/xc32/v4.00/bin/bin/../../lib/gcc/pic32mx/8.3.1/../../../../pic32mx/lib/fpu64\libc-musl.a(__overflow.o)
                              c:/program files/microchip/xc32/v4.00/bin/bin/../../lib/gcc/pic32mx/8.3.1/../../../../pic32mx/lib/fpu64\libc-musl.a(__putc.o) (__overflow)
c:/program files/microchip/xc32/v4.00/bin/bin/../../lib/gcc/pic32mx/8.3.1/../../../../pic32mx/lib/fpu64\libc-musl.a(__fclose.o)
                              c:/program files/microchip/xc32/v4.00/bin/bin/../../lib/gcc/pic32mx/8.3.1/../../../../pic32mx/lib/fpu64\libc-musl.a(__io_buf_needed.o) (__fclose_needed)
c:/program files/microchip/xc32/v4.00/bin/bin/../../lib/gcc/pic32mx/8.3.1/../../../../pic32mx/lib/fpu64\libc-musl.a(__fseeko.o)
                              c:/program files/microchip/xc32/v4.00/bin/bin/../../lib/gcc/pic32mx/8.3.1/../../../../pic32mx/lib/fpu64\libc-musl.a(__io_buf_needed.o) (__fseeko_needed)
c:/program files/microchip/xc32/v4.00/bin/bin/../../lib/gcc/pic32mx/8.3.1/../../../../pic32mx/lib/fpu64\libc-musl.a(__ftello.o)
                              c:/program files/microchip/xc32/v4.00/bin/bin/../../lib/gcc/pic32mx/8.3.1/../../../../pic32mx/lib/fpu64\libc-musl.a(__io_buf_needed.o) (__ftello_adj_needed)
c:/program files/microchip/xc32/v4.00/bin/bin/../../lib/gcc/pic32mx/8.3.1/../../../../pic32mx/lib/fpu64\libc-musl.a(__fwrite.o)
                              c:/program files/microchip/xc32/v4.00/bin/bin/../../lib/gcc/pic32mx/8.3.1/../../../../pic32mx/lib/fpu64\libc-musl.a(__io_std_needed.o) (__fwrite_needed)
c:/program files/microchip/xc32/v4.00/bin/bin/../../lib/gcc/pic32mx/8.3.1/../../../../pic32mx/lib/fpu64\libpic32.a(sbrk.o)
                              c:/program files/microchip/xc32/v4.00/bin/bin/../../lib/gcc/pic32mx/8.3.1/../../../../pic32mx/lib/fpu64\libc-musl.a(expand_heap.o) (_sbrk)
c:/program files/microchip/xc32/v4.00/bin/bin/../../lib/gcc/pic32mx/8.3.1/../../../../pic32mx/lib/fpu64\libpic32.a(write.o)
                              c:/program files/microchip/xc32/v4.00/bin/bin/../../lib/gcc/pic32mx/8.3.1/../../../../pic32mx/lib/fpu64\libc-musl.a(__out.o) (write)
c:/program files/microchip/xc32/v4.00/bin/bin/../../lib/gcc/pic32mx/8.3.1/../../../../pic32mx/lib/fpu64\libpic32.a(lseek.o)
                              c:/program files/microchip/xc32/v4.00/bin/bin/../../lib/gcc/pic32mx/8.3.1/../../../../pic32mx/lib/fpu64\libc-musl.a(__stdio_close.o) (lseek)
c:/program files/microchip/xc32/v4.00/bin/bin/../../lib/gcc/pic32mx/8.3.1/../../../../pic32mx/lib/fpu64\libpic32.a(close.o)
                              c:/program files/microchip/xc32/v4.00/bin/bin/../../lib/gcc/pic32mx/8.3.1/../../../../pic32mx/lib/fpu64\libc-musl.a(__stdio_close.o) (close)
c:/program files/microchip/xc32/v4.00/bin/bin/../../lib/gcc/pic32mx/8.3.1/../../../../pic32mx/lib/fpu64\libpic32.a(errno.o)
                              c:/program files/microchip/xc32/v4.00/bin/bin/../../lib/gcc/pic32mx/8.3.1/../../../../pic32mx/lib/fpu64\libc-musl.a(__printf_core.o) (errno)
c:/program files/microchip/xc32/v4.00/bin/bin/../../lib/gcc/pic32mx/8.3.1/fpu64\libgcc.a(_lshrdi3.o)
                              c:/program files/microchip/xc32/v4.00/bin/bin/../../lib/gcc/pic32mx/8.3.1/../../../../pic32mx/lib/fpu64\libc-musl.a(malloc.o) (__lshrdi3)
c:/program files/microchip/xc32/v4.00/bin/bin/../../lib/gcc/pic32mx/8.3.1/fpu64\libgcc.a(_ashldi3.o)
                              c:/program files/microchip/xc32/v4.00/bin/bin/../../lib/gcc/pic32mx/8.3.1/../../../../pic32mx/lib/fpu64\libc-musl.a(malloc.o) (__ashldi3)
c:/program files/microchip/xc32/v4.00/bin/bin/../../lib/gcc/pic32mx/8.3.1/fpu64\libgcc.a(_umoddi3.o)
                              c:/program files/microchip/xc32/v4.00/bin/bin/../../lib/gcc/pic32mx/8.3.1/../../../../pic32mx/lib/fpu64\libc-musl.a(__fmt_u.o) (__umoddi3)

Microchip PIC32 Memory-Usage Report

kseg0 Program-Memory Usage
section                    address  length [bytes]      (dec)  Description
-------                 ----------  -------------------------  -----------
.simple_tlb_refill_excp 0x9d000000           0x10          16   
.text._DRV_SPI_Resource 0x9d000010           0xec         236   
.cache_err_excpt        0x9d000100           0x10          16   
.text._USB_DEVICE_CDC_D 0x9d000110           0x70         112   
.app_excpt              0x9d000180           0x10          16  General-Exception 
.text.alloc_fwd         0x9d000190           0x70         112   
.vectors                0x9d000200          0x138         312   
.text.DRV_SDSPI_Tasks   0x9d000338         0x2bcc       11212   
.text._DRV_SDSPI_Comman 0x9d002f04          0xdbc        3516   
.text.f_mkfs            0x9d003cc0          0xbc4        3012   
.text._DRV_USBHS_DEVICE 0x9d004884          0x9b4        2484   
.dinit                  0x9d005238          0x900        2304   
.text.SYS_FS_MEDIA_MANA 0x9d005b38          0x6cc        1740   
.text                   0x9d006204          0x6bc        1724  App's exec code 
.text.follow_path       0x9d0068c0          0x670        1648   
.text.mount_volume      0x9d006f30          0x58c        1420   
.text.__printf_core     0x9d0074bc          0x588        1416   
.text.DRV_USBHS_Tasks   0x9d007a44          0x568        1384   
.text.DRV_USBHS_DEVICE_ 0x9d007fac          0x510        1296   
.text.f_printf          0x9d0084bc          0x4fc        1276   
.text.I2C2_MASTER_Inter 0x9d0089b8          0x4b4        1204   
.text.I2C4_MASTER_Inter 0x9d008e6c          0x4b4        1204   
.text.dir_register      0x9d009320          0x448        1096   
.text._DRV_USBHS_Proces 0x9d009768          0x43c        1084   
.text                   0x9d009ba4          0x3f8        1016  App's exec code 
.text.f_open            0x9d009f9c          0x3f0        1008   
.text                   0x9d00a38c          0x3ec        1004  App's exec code 
.text.DRV_USBHS_DEVICE_ 0x9d00a778          0x3e8        1000   
.text.mDotCommand       0x9d00ab60          0x3bc         956   
.rodata                 0x9d00af1c          0x3b0         944  Read-only const 
.text.DRV_SDSPI_SetupXf 0x9d00b2cc          0x32c         812   
.text.f_write           0x9d00b5f8          0x328         808   
.text.SPI4_RX_Interrupt 0x9d00b920          0x324         804   
.text.SPI2_RX_Interrupt 0x9d00bc44          0x324         804   
.text.SPI1_RX_Interrupt 0x9d00bf68          0x324         804   
.text.SPI4_WriteRead    0x9d00c28c          0x310         784   
.text.DRV_SPI_WriteRead 0x9d00c59c          0x304         772   
.text.SYS_FS_MEDIA_MANA 0x9d00c8a0          0x2f8         760   
.text.f_lseek           0x9d00cb98          0x2f0         752   
.text.mDotTasks         0x9d00ce88          0x2f0         752   
.text.dir_find          0x9d00d178          0x2e0         736   
.text.get_fileinfo      0x9d00d458          0x2c0         704   
.text.f_setlabel        0x9d00d718          0x2bc         700   
.text.f_read            0x9d00d9d4          0x2b8         696   
.text.GPIO_Initialize   0x9d00dc8c          0x2b0         688   
.text.malloc            0x9d00df3c          0x29c         668   
.text._DRV_USBHS_DEVICE 0x9d00e1d8          0x294         660   
.text.create_partition  0x9d00e46c          0x290         656   
.text.DRV_USBHS_DEVICE_ 0x9d00e6fc          0x270         624   
.text.DRV_USBHS_DEVICE_ 0x9d00e96c          0x26c         620   
.text.dir_read          0x9d00ebd8          0x258         600   
.text.USB_DEVICE_Tasks  0x9d00ee30          0x248         584   
.text.f_getcwd          0x9d00f078          0x244         580   
.text._USB_DEVICE_Contr 0x9d00f2bc          0x230         560   
.text.create_chain      0x9d00f4ec          0x22c         556   
.text.DRV_USBHS_DEVICE_ 0x9d00f718          0x220         544   
.text._USB_DEVICE_Proce 0x9d00f938          0x220         544   
.text._USB_DEVICE_Other 0x9d00fb58          0x214         532   
.text.__fmt_x           0x9d00fd6c          0x210         528   
.text._USB_DEVICE_Proce 0x9d00ff7c          0x20c         524   
.text.put_fat           0x9d010188          0x208         520   
.text.disk_write        0x9d010390          0x208         520   
.text.DRV_USBHS_DEVICE_ 0x9d010598          0x1f4         500   
.text.f_mkdir           0x9d01078c          0x1f0         496   
.text.disk_read         0x9d01097c          0x1f0         496   
.text.SYS_TIME_PLIBCall 0x9d010b6c          0x1e0         480   
.text.f_rename          0x9d010d4c          0x1d0         464   
.text.CORE_TIMER_Handle 0x9d010f1c          0x1d0         464   
.text.TIMER_2_Handler   0x9d0110ec          0x1d0         464   
.text.SPI1_RX_Handler   0x9d0112bc          0x1d0         464   
.text.SPI1_TX_Handler   0x9d01148c          0x1d0         464   
.text.UART1_FAULT_Handl 0x9d01165c          0x1d0         464   
.text.UART1_RX_Handler  0x9d01182c          0x1d0         464   
.text.UART1_TX_Handler  0x9d0119fc          0x1d0         464   
.text.CHANGE_NOTICE_J_H 0x9d011bcc          0x1d0         464   
.text.USB_Handler       0x9d011d9c          0x1d0         464   
.text.USB_DMA_Handler   0x9d011f6c          0x1d0         464   
.text.SPI2_RX_Handler   0x9d01213c          0x1d0         464   
.text.SPI2_TX_Handler   0x9d01230c          0x1d0         464   
.text.UART2_FAULT_Handl 0x9d0124dc          0x1d0         464   
.text.UART2_RX_Handler  0x9d0126ac          0x1d0         464   
.text.UART2_TX_Handler  0x9d01287c          0x1d0         464   
.text.I2C2_BUS_Handler  0x9d012a4c          0x1d0         464   
.text.I2C2_MASTER_Handl 0x9d012c1c          0x1d0         464   
.text.UART3_FAULT_Handl 0x9d012dec          0x1d0         464   
.text.UART3_RX_Handler  0x9d012fbc          0x1d0         464   
.text.UART3_TX_Handler  0x9d01318c          0x1d0         464   
.text.SPI4_RX_Handler   0x9d01335c          0x1d0         464   
.text.SPI4_TX_Handler   0x9d01352c          0x1d0         464   
.text.UART4_FAULT_Handl 0x9d0136fc          0x1d0         464   
.text.UART4_RX_Handler  0x9d0138cc          0x1d0         464   
.text.UART4_TX_Handler  0x9d013a9c          0x1d0         464   
.text.I2C4_BUS_Handler  0x9d013c6c          0x1d0         464   
.text.I2C4_MASTER_Handl 0x9d013e3c          0x1d0         464   
.text.UART6_FAULT_Handl 0x9d01400c          0x1d0         464   
.text.UART6_RX_Handler  0x9d0141dc          0x1d0         464   
.text.UART6_TX_Handler  0x9d0143ac          0x1d0         464   
.text.communication_tas 0x9d01457c          0x1d0         464   
.text.DRV_USBHS_DEVICE_ 0x9d01474c          0x1c4         452   
.text._DRV_SPI_PlibCall 0x9d014910          0x1b4         436   
.text.DRV_SPI_Lock      0x9d014ac4          0x1b4         436   
.text.f_getfree         0x9d014c78          0x1b0         432   
.rodata                 0x9d014e28          0x1a8         424  Read-only const 
.text.DRV_SDSPI_Initial 0x9d014fd0          0x1a4         420   
.text                   0x9d015174          0x1a0         416  App's exec code 
.text.DRV_SPI_Open      0x9d015314          0x19c         412   
.rodata                 0x9d0154b0          0x19c         412  Read-only const 
.text.free              0x9d01564c          0x19c         412   
.text.dir_next          0x9d0157e8          0x194         404   
.text.check_fs          0x9d01597c          0x194         404   
.text._USB_DEVICE_Ep0Re 0x9d015b10          0x190         400   
.text.__pop_int         0x9d015ca0          0x188         392   
.text.get_fat           0x9d015e28          0x184         388   
.text.SYS_TIME_HwTimerC 0x9d015fac          0x17c         380   
.text.SYS_Initialize    0x9d016128          0x17c         380   
.text.DRV_SDSPI_Open    0x9d0162a4          0x178         376   
.text._USB_DEVICE_CDC_A 0x9d01641c          0x170         368   
.text.SPI4_TX_Interrupt 0x9d01658c          0x16c         364   
.text.SPI2_TX_Interrupt 0x9d0166f8          0x16c         364   
.text.SPI1_TX_Interrupt 0x9d016864          0x16c         364   
.text.dir_sdi           0x9d0169d0          0x16c         364   
.text                   0x9d016b3c          0x2d0         720  App's exec code 
.text.DRV_USBHS_DEVICE_ 0x9d016e0c          0x164         356   
.text.f_truncate        0x9d016f70          0x15c         348   
.text.USB_DEVICE_Initia 0x9d0170cc          0x15c         348   
.text.DRV_SDSPI_Close   0x9d017228          0x158         344   
.text.__fmt_d           0x9d017380          0x158         344   
.text._USB_DEVICE_CDC_I 0x9d0174d8          0x154         340   
.text._sbrk_init        0x9d01762c          0x154         340   
.text.f_unlink          0x9d017780          0x148         328   
.text.DRV_USBHS_Tasks_I 0x9d0178c8          0x144         324   
.text.SYS_TIME_Initiali 0x9d017a0c          0x144         324   
.text.__cvt_u           0x9d017b50          0x144         324   
.rodata                 0x9d017c94          0x140         320  Read-only const 
.text.ff_wtoupper       0x9d017dd4          0x140         320   
.text.f_getlabel        0x9d017f14          0x13c         316   
.text._DRV_SPI_UpdateTr 0x9d018050          0x138         312   
.text.inc_lock          0x9d018188          0x138         312   
.text.FATFS_open        0x9d0182c0          0x134         308   
.text.SYS_TIME_TimerObj 0x9d0183f4          0x130         304   
.text._DRV_USBHS_DEVICE 0x9d018524          0x124         292   
.text.remove_chain      0x9d018648          0x120         288   
.text.DRV_SPI_TransferS 0x9d018768          0x110         272   
.text.UART6_RX_Interrup 0x9d018878          0x110         272   
.text.UART3_RX_Interrup 0x9d018988          0x110         272   
.text.UART4_RX_Interrup 0x9d018a98          0x110         272   
.text.UART1_RX_Interrup 0x9d018ba8          0x110         272   
.text.UART2_RX_Interrup 0x9d018cb8          0x110         272   
.text.f_opendir         0x9d018dc8          0x110         272   
.text.__write_buffered  0x9d018ed8          0x110         272   
.text._USB_DEVICE_Confi 0x9d018fe8          0x10c         268   
.text.f_sync            0x9d0190f4          0x108         264   
.text.__stdio_write_buf 0x9d0191fc          0x108         264   
.text._USB_DEVICE_CDC_C 0x9d019304          0x104         260   
.text.__pad             0x9d019408          0x104         260   
.text.UART6_TX_Interrup 0x9d01950c          0x100         256   
.text.UART3_TX_Interrup 0x9d01960c          0x100         256   
.text.UART4_TX_Interrup 0x9d01970c          0x100         256   
.text.UART1_TX_Interrup 0x9d01980c          0x100         256   
.text.UART2_TX_Interrup 0x9d01990c          0x100         256   
.text.SYS_TIME_AddToLis 0x9d019a0c          0x100         256   
.text._USB_DEVICE_Proce 0x9d019b0c          0x100         256   
.text.__fmt_o           0x9d019c0c           0xfc         252   
.rodata.str1.4          0x9d019d08           0xf8         248   
.text.APP_Tasks         0x9d019e00           0xf4         244   
.text.DRV_SPI_Initializ 0x9d019ef4           0xec         236   
.text.FATFS_unmount     0x9d019fe0           0xec         236   
.text.FATFS_opendir     0x9d01a0cc           0xe8         232   
.text.DRV_USBHS_Tasks_I 0x9d01a1b4           0xe4         228   
.text.EVIC_Initialize   0x9d01a298           0xe4         228   
.text.sync_fs           0x9d01a37c           0xe4         228   
.text.__pop_ptr         0x9d01a460           0xe4         228   
.text._DRV_SPI_Resource 0x9d01a544           0xe0         224   
.text.SYS_FS_MEDIA_MANA 0x9d01a624           0xdc         220   
.text.general_exception 0x9d01a700           0xdc         220   
.text._cache_err_except 0x9d01a7dc           0xd8         216   
.text.simple_tlb_refill 0x9d01a8b4           0xd8         216   
.rodata                 0x9d01a98c           0xd4         212  Read-only const 
.text.initPayload       0x9d01aa60           0xd4         212   
.text._USB_DEVICE_GetSt 0x9d01ab34           0xd0         208   
.text.SPI4_TransferSetu 0x9d01ac04           0xcc         204   
.text.FATFS_mount       0x9d01acd0           0xcc         204   
.text.__stdio_read      0x9d01ad9c           0xcc         204   
.text._DRV_USBHS_DEVICE 0x9d01ae68           0xc8         200   
.text.__stdio_close_rw  0x9d01af30           0xc8         200   
.text.DRV_USBHS_Initial 0x9d01aff8           0xc4         196   
.text.CLK_Initialize    0x9d01b0bc           0xc4         196   
.text.SYS_FS_Initialize 0x9d01b180           0xc4         196   
.text.DRV_USBHS_Open    0x9d01b244           0xc0         192   
.text.DRV_USBHS_ClientE 0x9d01b304           0xc0         192   
.text.dir_alloc         0x9d01b3c4           0xc0         192   
.text.dir_remove        0x9d01b484           0xc0         192   
.text.f_mount           0x9d01b544           0xc0         192   
.text._USB_DEVICE_Ep0Tr 0x9d01b604           0xc0         192   
.text.UART6_Write       0x9d01b6c4           0xbc         188   
.text.dir_clear         0x9d01b780           0xbc         188   
.text.f_gets            0x9d01b83c           0xbc         188   
.text.disk_checkCommand 0x9d01b8f8           0xbc         188   
.tlb.__pic32_tlb_init_e 0x9d01b9b4           0xbc         188   
.text.__fmt_u           0x9d01ba70           0xbc         188   
.text.DRV_SDSPI_Command 0x9d01bb2c           0xb8         184   
.text._DRV_SDSPI_Driver 0x9d01bbe4           0xb4         180   
.text.chk_lock          0x9d01bc98           0xb4         180   
.text.sync_window       0x9d01bd4c           0xb4         180   
.text.f_chdir           0x9d01be00           0xb4         180   
.text.SYS_TIME_TimerSta 0x9d01beb4           0xb4         180   
.text._USB_DEVICE_DeIni 0x9d01bf68           0xb4         180   
.text._sbrk             0x9d01c01c           0xb0         176   
.text.f_chmod           0x9d01c0cc           0xac         172   
.text.SYS_TIME_Callback 0x9d01c178           0xac         172   
.text.setvbuf           0x9d01c224           0xac         172   
.text.unbin             0x9d01c2d0           0xac         172   
.text.CHANGE_NOTICE_J_I 0x9d01c37c           0xa8         168   
.text.pop               0x9d01c424           0xa8         168   
.text                   0x9d01c4cc           0xa8         168  App's exec code 
.text.__fmt_s           0x9d01c574           0xa8         168   
.text.validate          0x9d01c61c           0xa0         160   
.text.SYS_TIME_RemoveFr 0x9d01c6bc           0xa0         160   
.text._USB_DEVICE_Forwa 0x9d01c75c           0xa0         160   
.text.f_utime           0x9d01c7fc           0x9c         156   
.text._DRV_USBHS_DEVICE 0x9d01c898           0x98         152   
.text.uart6_counters    0x9d01c930           0x98         152   
.text.sendStringU6      0x9d01c9c8           0x98         152   
.text.push              0x9d01ca60           0x98         152   
.text                   0x9d01caf8           0x98         152  App's exec code 
.text._DRV_SDSPI_SPIWri 0x9d01cb90           0x94         148   
.text.f_readdir         0x9d01cc24           0x94         148   
.text.UART6_Read        0x9d01ccb8           0x90         144   
.text.putc_bfd          0x9d01cd48           0x90         144   
.text.SYS_TIME_TimerAdd 0x9d01cdd8           0x90         144   
.text.SPI4_Initialize   0x9d01ce68           0x8c         140   
.text.dec_lock          0x9d01cef4           0x8c         140   
.text.get_ldnumber      0x9d01cf80           0x8c         140   
.text.SYS_TIME_GetTimer 0x9d01d00c           0x8c         140   
.text._USB_DEVICE_GetFu 0x9d01d098           0x8c         140   
.text                   0x9d01d124           0x8c         140  App's exec code 
.text.__out             0x9d01d1b0           0x8c         140   
.text._DRV_SPI_DriverHa 0x9d01d23c           0x88         136   
.text.DRV_SPI_TransferE 0x9d01d2c4           0x88         136   
.text.SPI2_Initialize   0x9d01d34c           0x88         136   
.text.SPI1_Initialize   0x9d01d3d4           0x88         136   
.text.UART6_Initialize  0x9d01d45c           0x88         136   
.text.UART3_Initialize  0x9d01d4e4           0x88         136   
.text.UART4_Initialize  0x9d01d56c           0x88         136   
.text.UART1_Initialize  0x9d01d5f4           0x88         136   
.text.UART2_Initialize  0x9d01d67c           0x88         136   
.text.write             0x9d01d704           0x88         136   
.text.USB_DEVICE_Contro 0x9d01d78c           0x84         132   
.text.UART5_Write       0x9d01d810           0x80         128   
.text.f_stat            0x9d01d890           0x80         128   
.text._USB_DEVICE_FindE 0x9d01d910           0x80         128   
.text.atoi              0x9d01d990           0x80         128   
.text.__vsnprintf       0x9d01da10           0x80         128   
.text.f_fdisk           0x9d01da90           0x7c         124   
.text.disk_ioctl        0x9d01db0c           0x7c         124   
.text.FATFS_getclusters 0x9d01db88           0x7c         124   
.text.SYS_TIME_TimerDes 0x9d01dc04           0x7c         124   
.text.USB_DEVICE_Contro 0x9d01dc80           0x7c         124   
.text.__readv           0x9d01dcfc           0x7c         124   
.text.__writev          0x9d01dd78           0x7c         124   
.text.UART6_ErrorClear  0x9d01ddf4           0x78         120   
.text.UART3_ErrorClear  0x9d01de6c           0x78         120   
.text.UART4_ErrorClear  0x9d01dee4           0x78         120   
.text.UART1_ErrorClear  0x9d01df5c           0x78         120   
.text.UART2_ErrorClear  0x9d01dfd4           0x78         120   
.text.move_window       0x9d01e04c           0x74         116   
.text.ff_uni2oem        0x9d01e0c0           0x74         116   
.text.disk_read_aligned 0x9d01e134           0x74         116   
.text.SYS_FS_MEDIA_MANA 0x9d01e1a8           0x74         116   
.text.SYS_TIME_UpdateTi 0x9d01e21c           0x74         116   
.text.alloc_rev         0x9d01e290           0x74         116   
.text._DRV_USBHS_DEVICE 0x9d01e304           0x68         104   
.text.f_puts            0x9d01e36c           0x68         104   
.text.memmove           0x9d01e3d4           0x68         104   
.text.CORETIMER_Start   0x9d01e43c           0x64         100   
.text.I2C2_Initialize   0x9d01e4a0           0x64         100   
.text.UART6_FAULT_Inter 0x9d01e504           0x64         100   
.text.UART3_FAULT_Inter 0x9d01e568           0x64         100   
.text.UART4_FAULT_Inter 0x9d01e5cc           0x64         100   
.text.UART1_FAULT_Inter 0x9d01e630           0x64         100   
.text.UART2_FAULT_Inter 0x9d01e694           0x64         100   
.text.putc_flush        0x9d01e6f8           0x64         100   
.text.f_closedir        0x9d01e75c           0x64         100   
.text.bin_index         0x9d01e7c0           0x64         100   
.text.I2C2_BUS_Interrup 0x9d01e824           0x60          96   
.text.I2C4_BUS_Interrup 0x9d01e884           0x60          96   
.text.SYS_FS_MEDIA_MANA 0x9d01e8e4           0x60          96   
.text._DRV_USBHS_DEVICE 0x9d01e944           0x5c          92   
.text.I2C4_Initialize   0x9d01e9a0           0x5c          92   
.text.SYS_FS_MEDIA_MANA 0x9d01e9fc           0x5c          92   
.text.__fmt_state       0x9d01ea58           0x5c          92   
.rodata                 0x9d01eab4           0x5c          92  Read-only const 
.text.DRV_USBHS_DEVICE_ 0x9d01eb10           0x58          88   
.text.DRV_USBHS_DEVICE_ 0x9d01eb68           0x58          88   
.text.tchar2uni         0x9d01ebc0           0x58          88   
.text.diskEventHandler  0x9d01ec18           0x58          88   
.text.SYS_INT_SourceDis 0x9d01ec70           0x58          88   
.text.SYS_TIME_Resource 0x9d01ecc8           0x58          88   
.text._USB_DEVICE_Redir 0x9d01ed20           0x58          88   
.text.USB_DEVICE_Endpoi 0x9d01ed78           0x58          88   
.text._USB_DEVICE_CDC_E 0x9d01edd0           0x58          88   
.text.initCyclicTImer   0x9d01ee28           0x58          88   
.text.adjust_size       0x9d01ee80           0x58          88   
.text.trim              0x9d01eed8           0x58          88   
.text.DRV_SDSPI_IsAttac 0x9d01ef30           0x54          84   
.text.DRV_USBHS_DEVICE_ 0x9d01ef84           0x54          84   
.rodata.str1.4          0x9d01efd8           0x54          84   
.text.f_close           0x9d01f02c           0x54          84   
.text.f_putc            0x9d01f080           0x54          84   
.text.ff_oem2uni        0x9d01f0d4           0x54          84   
.text.createHexString   0x9d01f128           0x54          84   
.text.main_entry        0x9d01f17c           0x54          84   
.text._DRV_SDSPI_SPIWri 0x9d01f1d0           0x50          80   
.text._DRV_SDSPI_SPIRea 0x9d01f220           0x50          80   
.text.initBuffer        0x9d01f270           0x50          80   
.text._DRV_USBHS_DEVICE 0x9d01f2c0           0x4c          76   
.text.SYS_CACHE_Invalid 0x9d01f30c           0x4c          76   
.text.SYS_CACHE_CleanDC 0x9d01f358           0x4c          76   
.text.SYS_FS_MEDIA_MANA 0x9d01f3a4           0x4c          76   
.text.FATFS_readdir     0x9d01f3f0           0x4c          76   
.text.cyclicCallback    0x9d01f43c           0x4c          76   
.text.uart6_readCallbac 0x9d01f488           0x4c          76   
.text.DRV_SDSPI_Geometr 0x9d01f4d4           0x48          72   
.text._DRV_SDSPI_SPIDri 0x9d01f51c           0x48          72   
.text._DRV_SDSPI_CardDe 0x9d01f564           0x48          72   
.text._DRV_SDSPI_CmdRes 0x9d01f5ac           0x48          72   
.text._DRV_SDSPI_TimerS 0x9d01f5f4           0x48          72   
.text.DRV_USBHS_DEVICE_ 0x9d01f63c           0x48          72   
.text.FATFS_stat        0x9d01f684           0x48          72   
.text.SYS_Tasks         0x9d01f6cc           0x48          72   
.text.__pop_float       0x9d01f714           0x48          72   
.text.FATFS_close       0x9d01f75c           0x44          68   
.text.FATFS_closedir    0x9d01f7a0           0x44          68   
.text.SYS_TIME_Resource 0x9d01f7e4           0x44          68   
.text.USB_DEVICE_Endpoi 0x9d01f828           0x44          68   
.text.USB_DEVICE_IRPCan 0x9d01f86c           0x44          68   
.text                   0x9d01f8b0           0x44          68  App's exec code 
.text.__towrite         0x9d01f8f4           0x44          68   
.text.DRV_SDSPI_EventHa 0x9d01f938           0x40          64   
.text.TMR2_Initialize   0x9d01f978           0x40          64   
.text.TIMER_2_Interrupt 0x9d01f9b8           0x40          64   
.text.ld_clust          0x9d01f9f8           0x40          64   
.text.FATFS_mkfs        0x9d01fa38           0x40          64   
.text.mDotWait          0x9d01fa78           0x40          64   
.text.available         0x9d01fab8           0x40          64   
.text._DRV_SDSPI_SPISpe 0x9d01faf8           0x3c          60   
.text.CORE_TIMER_Interr 0x9d01fb34           0x3c          60   
.text.SYS_TIME_Counter6 0x9d01fb70           0x3c          60   
.text.__towrite_rw      0x9d01fbac           0x3c          60   
.text.__expand_heap     0x9d01fbe8           0x3c          60   
.text.__vfprintf        0x9d01fc24           0x3c          60   
.text                   0x9d01fc60           0x78         120  App's exec code 
.text._DRV_SDSPI_CmdRes 0x9d01fcd8           0x38          56   
.text._DRV_SDSPI_TimerS 0x9d01fd10           0x38          56   
.text.DRV_USBHS_DEVICE_ 0x9d01fd48           0x38          56   
.rodata                 0x9d01fd80           0x38          56  Read-only const 
.text.UART5_Initialize  0x9d01fdb8           0x38          56   
.text.SYS_TIME_GetElaps 0x9d01fdf0           0x38          56   
.text.CORETIMER_Stop    0x9d01fe28           0x34          52   
.text.clst2sect         0x9d01fe5c           0x34          52   
.text.st_clust          0x9d01fe90           0x34          52   
.text.SYS_FS_MEDIA_MANA 0x9d01fec4           0x34          52   
.text.lock_bin          0x9d01fef8           0x34          52   
.text.__fwrite          0x9d01ff2c           0x34          52   
.rodata                 0x9d01ff60           0x30          48  Read-only const 
.text.DRV_USBHS_Close   0x9d01ff90           0x30          48   
.text.sum_sfn           0x9d01ffc0           0x30          48   
.text.f_chdrive         0x9d01fff0           0x30          48   
.text.FATFS_chdrive     0x9d020020           0x30          48   
.text.clearSendBuffer   0x9d020050           0x30          48   
.text.clearReceiveBuffe 0x9d020080           0x30          48   
.text.DRV_SPI_ReadTrans 0x9d0200b0           0x2c          44   
.text.CORETIMER_Initial 0x9d0200dc           0x2c          44   
.text._mon_putc         0x9d020108           0x2c          44   
.text.ld_dword          0x9d020134           0x2c          44   
.text.SYS_INT_SourceRes 0x9d020160           0x2c          44   
.text.parseLoraFrame    0x9d02018c           0x2c          44   
.text._stub_sbd_memlayo 0x9d0201b8           0x2c          44   
.text.DRV_SDSPI_AsyncWr 0x9d0201e4           0x28          40   
.text.DRV_SDSPI_Registe 0x9d02020c           0x28          40   
.text.EVIC_SourceEnable 0x9d020234           0x28          40   
.text.EVIC_SourceDisabl 0x9d02025c           0x28          40   
.text.EVIC_SourceStatus 0x9d020284           0x28          40   
.text.EVIC_INT_Restore  0x9d0202ac           0x28          40   
.text._SYS_FS_MEDIA_MAN 0x9d0202d4           0x28          40   
.text._USB_DEVICE_Clien 0x9d0202fc           0x28          40   
.text.__wrap_sprintf    0x9d020324           0x28          40   
.text.__vsprintf        0x9d02034c           0x28          40   
.text.DRV_SDSPI_AsyncRe 0x9d020374           0x24          36   
.text.DRV_SPI_WriteTran 0x9d020398           0x24          36   
.text.CACHE_DataCacheCl 0x9d0203bc           0x24          36   
.text.CACHE_DataCacheIn 0x9d0203e0           0x24          36   
.text.mem_cpy           0x9d020404           0x24          36   
.text.disk_initialize   0x9d020428           0x24          36   
.text.sendBuffer        0x9d02044c           0x24          36   
.text.setbuf            0x9d020470           0x24          36   
.text.__syscall_ret     0x9d020494           0x24          36   
.text.DRV_USBHS_Interru 0x9d0204b8           0x20          32   
.text.DRV_USBHS_DMAInte 0x9d0204d8           0x20          32   
.text._DRV_USBHS_DEVICE 0x9d0204f8           0x20          32   
.text.EVIC_SourceIsEnab 0x9d020518           0x20          32   
.text.EVIC_INT_Disable  0x9d020538           0x20          32   
.text.st_dword          0x9d020558           0x20          32   
.rodata.str1.4          0x9d020578           0x20          32   
.text._USB_DEVICE_CDC_G 0x9d020598           0x20          32   
.text.main              0x9d0205b8           0x20          32   
.text.__fwrite_min      0x9d0205d8           0x20          32   
.text._DRV_SDSPI_SPIExc 0x9d0205f8           0x1c          28   
.text.CACHE_CacheCohere 0x9d020614           0x1c          28   
.text.CORETIMER_Compare 0x9d020630           0x1c          28   
.text.GPIO_PortSet      0x9d02064c           0x1c          28   
.text.GPIO_PortClear    0x9d020668           0x1c          28   
.text.get_fattime       0x9d020684           0x1c          28   
.text.SYS_FS_Tasks      0x9d0206a0           0x1c          28   
.text.FATFS_read        0x9d0206bc           0x1c          28   
.text.FATFS_lseek       0x9d0206d8           0x1c          28   
.text.FATFS_getlabel    0x9d0206f4           0x1c          28   
.text.FATFS_getcwd      0x9d020710           0x1c          28   
.text.FATFS_gets        0x9d02072c           0x1c          28   
.text.FATFS_chdir       0x9d020748           0x1c          28   
.text.FATFS_write       0x9d020764           0x1c          28   
.text.FATFS_mkdir       0x9d020780           0x1c          28   
.text.FATFS_unlink      0x9d02079c           0x1c          28   
.text.FATFS_setlabel    0x9d0207b8           0x1c          28   
.text.FATFS_truncate    0x9d0207d4           0x1c          28   
.text.FATFS_chmod       0x9d0207f0           0x1c          28   
.text.FATFS_utime       0x9d02080c           0x1c          28   
.text.FATFS_rename      0x9d020828           0x1c          28   
.text.FATFS_sync        0x9d020844           0x1c          28   
.text.FATFS_putc        0x9d020860           0x1c          28   
.text.FATFS_puts        0x9d02087c           0x1c          28   
.text.FATFS_printf      0x9d020898           0x1c          28   
.text.FATFS_fdisk       0x9d0208b4           0x1c          28   
.text.SYS_INT_Disable   0x9d0208d0           0x1c          28   
.text.SYS_INT_Restore   0x9d0208ec           0x1c          28   
.text.uart6_writeCallba 0x9d020908           0x1c          28   
.text.tolower           0x9d020924           0x1c          28   
.text.toupper           0x9d020940           0x1c          28   
.text.__read            0x9d02095c           0x1c          28   
.MIPS.abiflags          0x9d020978           0x18          24   
.text.CORETIMER_Counter 0x9d020990           0x18          24   
.text.mem_set           0x9d0209a8           0x18          24   
.text._general_exceptio 0x9d0209c0           0x18          24   
.text._bootstrap_except 0x9d0209d8           0x18          24   
.text._cache_err_except 0x9d0209f0           0x18          24   
.text._simple_tlb_refil 0x9d020a08           0x18          24   
.text                   0x9d020a20           0x18          24  App's exec code 
.rodata                 0x9d020a38           0x18          24  Read-only const 
.text.SPI4_IsTransmitte 0x9d020a50           0x14          20   
.text.SPI4_CallbackRegi 0x9d020a64           0x14          20   
.text.TMR2_Start        0x9d020a78           0x14          20   
.text.UART6_ReadCallbac 0x9d020a8c           0x14          20   
.text.UART6_WriteCallba 0x9d020aa0           0x14          20   
.text.FATFS_eof         0x9d020ab4           0x14          20   
.rodata                 0x9d020ac8           0x28          40  Read-only const 
.text.CORETIMER_Callbac 0x9d020af0           0x10          16   
.text.TMR2_PeriodSet    0x9d020b00           0x10          16   
.text.TMR2_CallbackRegi 0x9d020b10           0x10          16   
.text.communication_ini 0x9d020b20           0x10          16   
.rodata.cst8            0x9d020b30           0x10          16   
.text.DRV_SDSPI_TimerCa 0x9d020b40            0xc          12   
.text.CORETIMER_Frequen 0x9d020b4c            0xc          12   
.text.TMR2_FrequencyGet 0x9d020b58            0xc          12   
.text.SYS_FS_MEDIA_MANA 0x9d020b64            0xc          12   
.text.FATFS_error       0x9d020b70            0xc          12   
.text.APP_Initialize    0x9d020b7c            0xc          12   
.text.mDotInit          0x9d020b88            0xc          12   
.text.__dummy           0x9d020b94           0x18          24   
.text.DRV_USBHS_DEVICE_ 0x9d020bac            0x8           8   
.text.DRV_USBHS_DEVICE_ 0x9d020bb4            0x8           8   
.text.DRV_USBHS_DEVICE_ 0x9d020bbc            0x8           8   
.text.disk_status       0x9d020bc4            0x8           8   
.rodata                 0x9d020bcc            0x8           8  Read-only const 
.text.FATFS_tell        0x9d020bd4            0x8           8   
.text.FATFS_size        0x9d020bdc            0x8           8   
.text._on_reset         0x9d020be4            0x8           8   
.text._on_bootstrap     0x9d020bec            0x8           8   
.text.__dummy_fmt4      0x9d020bf4            0x8           8   
.rodata.str1.4          0x9d020bfc            0x8           8   
.text.lseek             0x9d020c04            0x8           8   
.text.close             0x9d020c0c            0x8           8   
      Total kseg0_program_mem used  :     0x20c10      134160  6.4% of 0x200000

kseg0 Boot-Memory Usage
section                    address  length [bytes]      (dec)  Description
-------                 ----------  -------------------------  -----------
         Total kseg0_boot_mem used  :           0           0  

kseg1 Boot-Memory Usage
section                    address  length [bytes]      (dec)  Description
-------                 ----------  -------------------------  -----------
.reset                  0xbfc00000          0x1c4         452  Reset handler 
.bev_excpt              0xbfc00380           0x10          16  BEV-Exception 
         Total kseg1_boot_mem used  :       0x1d4         468  40.6% of 0x480
        --------------------------------------------------------------------------
         Total Program Memory used  :     0x20de4      134628  6.4% of 0x200480
        --------------------------------------------------------------------------


kseg0 Data-Memory Usage
section                    address  length [bytes]      (dec)  Description
-------                 ----------  -------------------------  -----------
.sdata                  0x80000000           0x2c          44  Small init data 
.sbss                   0x8000002c           0x70         112  Small uninit data 
.data._stdin            0x8000009c            0x4           4   
.bss                    0x80004bd0         0x1c34        7220  Uninitialized data 
.data._stdout           0x80006804            0x4           4   
.bss                    0x80006808         0x1224        4644  Uninitialized data 
.bss                    0x80007a2c          0x5f8        1528  Uninitialized data 
.bss.errno              0x80008024            0x4           4   
.bss                    0x80008028          0x3e4         996  Uninitialized data 
.bss                    0x8000840c          0x320         800  Uninitialized data 
.bss                    0x8000872c          0x1f4         500  Uninitialized data 
.bss                    0x80008920          0x180         384  Uninitialized data 
.data                   0x80008aa0           0xe0         224  Initialized data 
.data                   0x80008b80           0x50          80  Initialized data 
.bss                    0x80008bd0           0x98         152  Uninitialized data 
.bss                    0x80008c68           0x68         104  Uninitialized data 
.bss                    0x80008cd0           0x68         104  Uninitialized data 
.bss                    0x80008d38           0x68         104  Uninitialized data 
.bss                    0x80008da0           0x34          52  Uninitialized data 
.data                   0x80008dd4           0x2c          44  Initialized data 
.bss                    0x80008e00           0x50          80  Uninitialized data 
.bss                    0x80008e50           0x4c          76  Uninitialized data 
.bss                    0x80008e9c           0x18          24  Uninitialized data 
         Total kseg0_data_mem used  :      0x4384       17284  3.3% of 0x80000
        --------------------------------------------------------------------------
            Total Data Memory used  :      0x4384       17284  3.3% of 0x80000
        --------------------------------------------------------------------------


Dynamic Data-Memory Reservation
section                    address  length [bytes]      (dec)  Description
-------                 ----------  -------------------------  -----------
heap                    0x80008eb8          0x200         512  Reserved for heap 
stack                   0x800090d0        0x76f20      487200  Reserved for stack 

        --------------------------------------------------------------------------

Discarded input sections

 .text          0x0000000000000000        0x0 c:/program files/microchip/xc32/v4.00/bin/bin/../../lib/gcc/pic32mx/8.3.1/../../../../pic32mx/lib/fpu64\debug-exception-return.o
 .data          0x0000000000000000        0x0 c:/program files/microchip/xc32/v4.00/bin/bin/../../lib/gcc/pic32mx/8.3.1/../../../../pic32mx/lib/fpu64\debug-exception-return.o
 .bss           0x0000000000000000        0x0 c:/program files/microchip/xc32/v4.00/bin/bin/../../lib/gcc/pic32mx/8.3.1/../../../../pic32mx/lib/fpu64\debug-exception-return.o
 .xc_stack_usage.hdr
                0x0000000000000000        0xe c:/program files/microchip/xc32/v4.00/bin/bin/../../lib/gcc/pic32mx/8.3.1/../../../../pic32mx/lib/fpu64\debug-exception-return.o
 .xc_stack_usage
                0x0000000000000000       0x1d c:/program files/microchip/xc32/v4.00/bin/bin/../../lib/gcc/pic32mx/8.3.1/../../../../pic32mx/lib/fpu64\debug-exception-return.o
 .text          0x0000000000000000        0x0 build/pic32mz/production/_ext/757013429/drv_sdspi.o
 .data          0x0000000000000000        0x0 build/pic32mz/production/_ext/757013429/drv_sdspi.o
 .reginfo       0x0000000000000000       0x18 build/pic32mz/production/_ext/757013429/drv_sdspi.o
 .MIPS.abiflags
                0x0000000000000000       0x18 build/pic32mz/production/_ext/757013429/drv_sdspi.o
 .text.DRV_SDSPI_RegisterWithSysFs
                0x0000000000000000        0x8 build/pic32mz/production/_ext/757013429/drv_sdspi.o
 .text.DRV_SDSPI_Status
                0x0000000000000000       0x1c build/pic32mz/production/_ext/757013429/drv_sdspi.o
 .text.DRV_SDSPI_IsWriteProtected
                0x0000000000000000       0x84 build/pic32mz/production/_ext/757013429/drv_sdspi.o
 .text          0x0000000000000000        0x0 build/pic32mz/production/_ext/757013429/drv_sdspi_driver_interface.o
 .data          0x0000000000000000        0x0 build/pic32mz/production/_ext/757013429/drv_sdspi_driver_interface.o
 .bss           0x0000000000000000        0x0 build/pic32mz/production/_ext/757013429/drv_sdspi_driver_interface.o
 .reginfo       0x0000000000000000       0x18 build/pic32mz/production/_ext/757013429/drv_sdspi_driver_interface.o
 .MIPS.abiflags
                0x0000000000000000       0x18 build/pic32mz/production/_ext/757013429/drv_sdspi_driver_interface.o
 .text          0x0000000000000000        0x0 build/pic32mz/production/_ext/757013429/drv_sdspi_file_system.o
 .data          0x0000000000000000        0x0 build/pic32mz/production/_ext/757013429/drv_sdspi_file_system.o
 .bss           0x0000000000000000        0x0 build/pic32mz/production/_ext/757013429/drv_sdspi_file_system.o
 .reginfo       0x0000000000000000       0x18 build/pic32mz/production/_ext/757013429/drv_sdspi_file_system.o
 .MIPS.abiflags
                0x0000000000000000       0x18 build/pic32mz/production/_ext/757013429/drv_sdspi_file_system.o
 .text          0x0000000000000000        0x0 build/pic32mz/production/_ext/2120450970/drv_spi.o
 .data          0x0000000000000000        0x0 build/pic32mz/production/_ext/2120450970/drv_spi.o
 .bss           0x0000000000000000        0x0 build/pic32mz/production/_ext/2120450970/drv_spi.o
 .reginfo       0x0000000000000000       0x18 build/pic32mz/production/_ext/2120450970/drv_spi.o
 .MIPS.abiflags
                0x0000000000000000       0x18 build/pic32mz/production/_ext/2120450970/drv_spi.o
 .text.DRV_SPI_Status
                0x0000000000000000       0x1c build/pic32mz/production/_ext/2120450970/drv_spi.o
 .text.DRV_SPI_Close
                0x0000000000000000      0x174 build/pic32mz/production/_ext/2120450970/drv_spi.o
 .text.DRV_SPI_TransferStatusGet
                0x0000000000000000       0x64 build/pic32mz/production/_ext/2120450970/drv_spi.o
 .text          0x0000000000000000        0x0 build/pic32mz/production/_ext/1783409726/drv_usbhs.o
 .data          0x0000000000000000        0x0 build/pic32mz/production/_ext/1783409726/drv_usbhs.o
 .reginfo       0x0000000000000000       0x18 build/pic32mz/production/_ext/1783409726/drv_usbhs.o
 .MIPS.abiflags
                0x0000000000000000       0x18 build/pic32mz/production/_ext/1783409726/drv_usbhs.o
 .text.DRV_USBHS_Deinitialize
                0x0000000000000000       0x7c build/pic32mz/production/_ext/1783409726/drv_usbhs.o
 .text.DRV_USBHS_Status
                0x0000000000000000       0x40 build/pic32mz/production/_ext/1783409726/drv_usbhs.o
 .text          0x0000000000000000        0x0 build/pic32mz/production/_ext/1783409726/drv_usbhs_device.o
 .bss           0x0000000000000000        0x0 build/pic32mz/production/_ext/1783409726/drv_usbhs_device.o
 .reginfo       0x0000000000000000       0x18 build/pic32mz/production/_ext/1783409726/drv_usbhs_device.o
 .MIPS.abiflags
                0x0000000000000000       0x18 build/pic32mz/production/_ext/1783409726/drv_usbhs_device.o
 .text._DRV_USBHS_DEVICE_EndpointObjectEnable
                0x0000000000000000       0x1c build/pic32mz/production/_ext/1783409726/drv_usbhs_device.o
 .text.DRV_USBHS_DEVICE_IRPCancel
                0x0000000000000000      0x1a0 build/pic32mz/production/_ext/1783409726/drv_usbhs_device.o
 .text.DRV_USBHS_DEVICE_TestModeExit
                0x0000000000000000       0xa8 build/pic32mz/production/_ext/1783409726/drv_usbhs_device.o
 .text          0x0000000000000000        0x0 build/pic32mz/production/_ext/1640642171/plib_cache.o
 .data          0x0000000000000000        0x0 build/pic32mz/production/_ext/1640642171/plib_cache.o
 .bss           0x0000000000000000        0x0 build/pic32mz/production/_ext/1640642171/plib_cache.o
 .reginfo       0x0000000000000000       0x18 build/pic32mz/production/_ext/1640642171/plib_cache.o
 .MIPS.abiflags
                0x0000000000000000       0x18 build/pic32mz/production/_ext/1640642171/plib_cache.o
 .text.CACHE_CacheInit
                0x0000000000000000       0x24 build/pic32mz/production/_ext/1640642171/plib_cache.o
 .text.CACHE_CacheFlush
                0x0000000000000000       0x24 build/pic32mz/production/_ext/1640642171/plib_cache.o
 .text.CACHE_DataCacheFlush
                0x0000000000000000       0x24 build/pic32mz/production/_ext/1640642171/plib_cache.o
 .text.CACHE_InstructionCacheFlush
                0x0000000000000000       0x24 build/pic32mz/production/_ext/1640642171/plib_cache.o
 .text.CACHE_CacheClean
                0x0000000000000000       0x24 build/pic32mz/production/_ext/1640642171/plib_cache.o
 .text.CACHE_InstructionCacheInvalidate
                0x0000000000000000       0x24 build/pic32mz/production/_ext/1640642171/plib_cache.o
 .text.CACHE_InstructionCacheLock
                0x0000000000000000       0x24 build/pic32mz/production/_ext/1640642171/plib_cache.o
 .text.CACHE_DataCacheLock
                0x0000000000000000       0x24 build/pic32mz/production/_ext/1640642171/plib_cache.o
 .text.CACHE_CacheSync
                0x0000000000000000       0x24 build/pic32mz/production/_ext/1640642171/plib_cache.o
 .text.CACHE_CacheCoherencySet
                0x0000000000000000       0x28 build/pic32mz/production/_ext/1640642171/plib_cache.o
 .text.CACHE_DataCacheAssociativityGet
                0x0000000000000000       0x24 build/pic32mz/production/_ext/1640642171/plib_cache.o
 .text.CACHE_InstructionCacheAssociativityGet
                0x0000000000000000       0x24 build/pic32mz/production/_ext/1640642171/plib_cache.o
 .text.CACHE_DataCacheLineSizeGet
                0x0000000000000000       0x24 build/pic32mz/production/_ext/1640642171/plib_cache.o
 .text.CACHE_InstructionCacheLineSizeGet
                0x0000000000000000       0x24 build/pic32mz/production/_ext/1640642171/plib_cache.o
 .text.CACHE_DataCacheLinesPerWayGet
                0x0000000000000000       0x24 build/pic32mz/production/_ext/1640642171/plib_cache.o
 .text.CACHE_InstructionCacheLinesPerWayGet
                0x0000000000000000       0x24 build/pic32mz/production/_ext/1640642171/plib_cache.o
 .text.CACHE_DataCacheSizeGet
                0x0000000000000000       0x24 build/pic32mz/production/_ext/1640642171/plib_cache.o
 .text.CACHE_InstructionCacheSizeGet
                0x0000000000000000       0x24 build/pic32mz/production/_ext/1640642171/plib_cache.o
 .data          0x0000000000000000        0x0 build/pic32mz/production/_ext/1640642171/plib_cache_pic32mz.o
 .bss           0x0000000000000000        0x0 build/pic32mz/production/_ext/1640642171/plib_cache_pic32mz.o
 .reginfo       0x0000000000000000       0x18 build/pic32mz/production/_ext/1640642171/plib_cache_pic32mz.o
 .MIPS.abiflags
                0x0000000000000000       0x18 build/pic32mz/production/_ext/1640642171/plib_cache_pic32mz.o
 .text          0x0000000000000000        0x0 build/pic32mz/production/_ext/10646107/plib_clk.o
 .data          0x0000000000000000        0x0 build/pic32mz/production/_ext/10646107/plib_clk.o
 .bss           0x0000000000000000        0x0 build/pic32mz/production/_ext/10646107/plib_clk.o
 .reginfo       0x0000000000000000       0x18 build/pic32mz/production/_ext/10646107/plib_clk.o
 .MIPS.abiflags
                0x0000000000000000       0x18 build/pic32mz/production/_ext/10646107/plib_clk.o
 .text          0x0000000000000000        0x0 build/pic32mz/production/_ext/809018751/plib_coretimer.o
 .data          0x0000000000000000        0x0 build/pic32mz/production/_ext/809018751/plib_coretimer.o
 .bss           0x0000000000000000        0x0 build/pic32mz/production/_ext/809018751/plib_coretimer.o
 .reginfo       0x0000000000000000       0x18 build/pic32mz/production/_ext/809018751/plib_coretimer.o
 .MIPS.abiflags
                0x0000000000000000       0x18 build/pic32mz/production/_ext/809018751/plib_coretimer.o
 .text.CORETIMER_DelayMs
                0x0000000000000000       0x4c build/pic32mz/production/_ext/809018751/plib_coretimer.o
 .text.CORETIMER_DelayUs
                0x0000000000000000       0x3c build/pic32mz/production/_ext/809018751/plib_coretimer.o
 .text          0x0000000000000000        0x0 build/pic32mz/production/_ext/330098546/plib_evic.o
 .data          0x0000000000000000        0x0 build/pic32mz/production/_ext/330098546/plib_evic.o
 .bss           0x0000000000000000        0x0 build/pic32mz/production/_ext/330098546/plib_evic.o
 .reginfo       0x0000000000000000       0x18 build/pic32mz/production/_ext/330098546/plib_evic.o
 .MIPS.abiflags
                0x0000000000000000       0x18 build/pic32mz/production/_ext/330098546/plib_evic.o
 .text.EVIC_SourceStatusGet
                0x0000000000000000       0x20 build/pic32mz/production/_ext/330098546/plib_evic.o
 .text.EVIC_SourceStatusSet
                0x0000000000000000       0x28 build/pic32mz/production/_ext/330098546/plib_evic.o
 .text.EVIC_INT_Enable
                0x0000000000000000       0x18 build/pic32mz/production/_ext/330098546/plib_evic.o
 .text          0x0000000000000000        0x0 build/pic32mz/production/_ext/330152374/plib_gpio.o
 .data          0x0000000000000000        0xb build/pic32mz/production/_ext/330152374/plib_gpio.o
 .reginfo       0x0000000000000000       0x18 build/pic32mz/production/_ext/330152374/plib_gpio.o
 .MIPS.abiflags
                0x0000000000000000       0x18 build/pic32mz/production/_ext/330152374/plib_gpio.o
 .text.GPIO_PortRead
                0x0000000000000000       0x18 build/pic32mz/production/_ext/330152374/plib_gpio.o
 .text.GPIO_PortWrite
                0x0000000000000000       0x2c build/pic32mz/production/_ext/330152374/plib_gpio.o
 .text.GPIO_PortLatchRead
                0x0000000000000000       0x18 build/pic32mz/production/_ext/330152374/plib_gpio.o
 .text.GPIO_PortToggle
                0x0000000000000000       0x1c build/pic32mz/production/_ext/330152374/plib_gpio.o
 .text.GPIO_PortInputEnable
                0x0000000000000000       0x1c build/pic32mz/production/_ext/330152374/plib_gpio.o
 .text.GPIO_PortOutputEnable
                0x0000000000000000       0x1c build/pic32mz/production/_ext/330152374/plib_gpio.o
 .text.GPIO_PortInterruptEnable
                0x0000000000000000       0x1c build/pic32mz/production/_ext/330152374/plib_gpio.o
 .text.GPIO_PortInterruptDisable
                0x0000000000000000       0x1c build/pic32mz/production/_ext/330152374/plib_gpio.o
 .text.GPIO_PinIntEnable
                0x0000000000000000       0xd0 build/pic32mz/production/_ext/330152374/plib_gpio.o
 .text.GPIO_PinIntDisable
                0x0000000000000000       0x3c build/pic32mz/production/_ext/330152374/plib_gpio.o
 .text.GPIO_PinInterruptCallbackRegister
                0x0000000000000000       0xb8 build/pic32mz/production/_ext/330152374/plib_gpio.o
 .text          0x0000000000000000        0x0 build/pic32mz/production/_ext/249272802/plib_i2c2_master.o
 .data          0x0000000000000000        0x0 build/pic32mz/production/_ext/249272802/plib_i2c2_master.o
 .reginfo       0x0000000000000000       0x18 build/pic32mz/production/_ext/249272802/plib_i2c2_master.o
 .MIPS.abiflags
                0x0000000000000000       0x18 build/pic32mz/production/_ext/249272802/plib_i2c2_master.o
 .text.I2C2_CallbackRegister
                0x0000000000000000       0x1c build/pic32mz/production/_ext/249272802/plib_i2c2_master.o
 .text.I2C2_IsBusy
                0x0000000000000000       0x5c build/pic32mz/production/_ext/249272802/plib_i2c2_master.o
 .text.I2C2_Read
                0x0000000000000000       0x88 build/pic32mz/production/_ext/249272802/plib_i2c2_master.o
 .text.I2C2_Write
                0x0000000000000000       0x88 build/pic32mz/production/_ext/249272802/plib_i2c2_master.o
 .text.I2C2_WriteRead
                0x0000000000000000       0x8c build/pic32mz/production/_ext/249272802/plib_i2c2_master.o
 .text.I2C2_ErrorGet
                0x0000000000000000       0x14 build/pic32mz/production/_ext/249272802/plib_i2c2_master.o
 .text.I2C2_TransferSetup
                0x0000000000000000      0x114 build/pic32mz/production/_ext/249272802/plib_i2c2_master.o
 .rodata.cst4   0x0000000000000000        0x8 build/pic32mz/production/_ext/249272802/plib_i2c2_master.o
 .rodata.cst8   0x0000000000000000       0x18 build/pic32mz/production/_ext/249272802/plib_i2c2_master.o
 .text          0x0000000000000000        0x0 build/pic32mz/production/_ext/249272802/plib_i2c4_master.o
 .data          0x0000000000000000        0x0 build/pic32mz/production/_ext/249272802/plib_i2c4_master.o
 .reginfo       0x0000000000000000       0x18 build/pic32mz/production/_ext/249272802/plib_i2c4_master.o
 .MIPS.abiflags
                0x0000000000000000       0x18 build/pic32mz/production/_ext/249272802/plib_i2c4_master.o
 .text.I2C4_CallbackRegister
                0x0000000000000000       0x1c build/pic32mz/production/_ext/249272802/plib_i2c4_master.o
 .text.I2C4_IsBusy
                0x0000000000000000       0x5c build/pic32mz/production/_ext/249272802/plib_i2c4_master.o
 .text.I2C4_Read
                0x0000000000000000       0x88 build/pic32mz/production/_ext/249272802/plib_i2c4_master.o
 .text.I2C4_Write
                0x0000000000000000       0x88 build/pic32mz/production/_ext/249272802/plib_i2c4_master.o
 .text.I2C4_WriteRead
                0x0000000000000000       0x8c build/pic32mz/production/_ext/249272802/plib_i2c4_master.o
 .text.I2C4_ErrorGet
                0x0000000000000000       0x14 build/pic32mz/production/_ext/249272802/plib_i2c4_master.o
 .text.I2C4_TransferSetup
                0x0000000000000000      0x114 build/pic32mz/production/_ext/249272802/plib_i2c4_master.o
 .rodata.cst4   0x0000000000000000        0x8 build/pic32mz/production/_ext/249272802/plib_i2c4_master.o
 .rodata.cst8   0x0000000000000000       0x18 build/pic32mz/production/_ext/249272802/plib_i2c4_master.o
 .text          0x0000000000000000        0x0 build/pic32mz/production/_ext/867254719/plib_spi4_master.o
 .data          0x0000000000000000        0x0 build/pic32mz/production/_ext/867254719/plib_spi4_master.o
 .reginfo       0x0000000000000000       0x18 build/pic32mz/production/_ext/867254719/plib_spi4_master.o
 .MIPS.abiflags
                0x0000000000000000       0x18 build/pic32mz/production/_ext/867254719/plib_spi4_master.o
 .text.SPI4_Write
                0x0000000000000000       0x20 build/pic32mz/production/_ext/867254719/plib_spi4_master.o
 .text.SPI4_Read
                0x0000000000000000       0x28 build/pic32mz/production/_ext/867254719/plib_spi4_master.o
 .text.SPI4_IsBusy
                0x0000000000000000       0x28 build/pic32mz/production/_ext/867254719/plib_spi4_master.o
 .text          0x0000000000000000        0x0 build/pic32mz/production/_ext/867254719/plib_spi2_master.o
 .data          0x0000000000000000        0x0 build/pic32mz/production/_ext/867254719/plib_spi2_master.o
 .reginfo       0x0000000000000000       0x18 build/pic32mz/production/_ext/867254719/plib_spi2_master.o
 .MIPS.abiflags
                0x0000000000000000       0x18 build/pic32mz/production/_ext/867254719/plib_spi2_master.o
 .text.SPI2_TransferSetup
                0x0000000000000000       0xcc build/pic32mz/production/_ext/867254719/plib_spi2_master.o
 .text.SPI2_IsTransmitterBusy
                0x0000000000000000       0x14 build/pic32mz/production/_ext/867254719/plib_spi2_master.o
 .text.SPI2_WriteRead
                0x0000000000000000      0x310 build/pic32mz/production/_ext/867254719/plib_spi2_master.o
 .text.SPI2_Write
                0x0000000000000000       0x20 build/pic32mz/production/_ext/867254719/plib_spi2_master.o
 .text.SPI2_Read
                0x0000000000000000       0x28 build/pic32mz/production/_ext/867254719/plib_spi2_master.o
 .text.SPI2_IsBusy
                0x0000000000000000       0x28 build/pic32mz/production/_ext/867254719/plib_spi2_master.o
 .text.SPI2_CallbackRegister
                0x0000000000000000       0x14 build/pic32mz/production/_ext/867254719/plib_spi2_master.o
 .text          0x0000000000000000        0x0 build/pic32mz/production/_ext/867254719/plib_spi1_master.o
 .data          0x0000000000000000        0x0 build/pic32mz/production/_ext/867254719/plib_spi1_master.o
 .reginfo       0x0000000000000000       0x18 build/pic32mz/production/_ext/867254719/plib_spi1_master.o
 .MIPS.abiflags
                0x0000000000000000       0x18 build/pic32mz/production/_ext/867254719/plib_spi1_master.o
 .text.SPI1_TransferSetup
                0x0000000000000000       0xcc build/pic32mz/production/_ext/867254719/plib_spi1_master.o
 .text.SPI1_IsTransmitterBusy
                0x0000000000000000       0x14 build/pic32mz/production/_ext/867254719/plib_spi1_master.o
 .text.SPI1_WriteRead
                0x0000000000000000      0x310 build/pic32mz/production/_ext/867254719/plib_spi1_master.o
 .text.SPI1_Write
                0x0000000000000000       0x20 build/pic32mz/production/_ext/867254719/plib_spi1_master.o
 .text.SPI1_Read
                0x0000000000000000       0x28 build/pic32mz/production/_ext/867254719/plib_spi1_master.o
 .text.SPI1_IsBusy
                0x0000000000000000       0x28 build/pic32mz/production/_ext/867254719/plib_spi1_master.o
 .text.SPI1_CallbackRegister
                0x0000000000000000       0x14 build/pic32mz/production/_ext/867254719/plib_spi1_master.o
 .text          0x0000000000000000        0x0 build/pic32mz/production/_ext/10662482/plib_tmr2.o
 .data          0x0000000000000000        0x0 build/pic32mz/production/_ext/10662482/plib_tmr2.o
 .bss           0x0000000000000000        0x0 build/pic32mz/production/_ext/10662482/plib_tmr2.o
 .reginfo       0x0000000000000000       0x18 build/pic32mz/production/_ext/10662482/plib_tmr2.o
 .MIPS.abiflags
                0x0000000000000000       0x18 build/pic32mz/production/_ext/10662482/plib_tmr2.o
 .text.TMR2_Stop
                0x0000000000000000       0x14 build/pic32mz/production/_ext/10662482/plib_tmr2.o
 .text.TMR2_PeriodGet
                0x0000000000000000       0x10 build/pic32mz/production/_ext/10662482/plib_tmr2.o
 .text.TMR2_CounterGet
                0x0000000000000000       0x10 build/pic32mz/production/_ext/10662482/plib_tmr2.o
 .text.TMR2_InterruptEnable
                0x0000000000000000       0x14 build/pic32mz/production/_ext/10662482/plib_tmr2.o
 .text.TMR2_InterruptDisable
                0x0000000000000000       0x14 build/pic32mz/production/_ext/10662482/plib_tmr2.o
 .text          0x0000000000000000        0x0 build/pic32mz/production/_ext/330555317/plib_uart5.o
 .data          0x0000000000000000        0x0 build/pic32mz/production/_ext/330555317/plib_uart5.o
 .bss           0x0000000000000000        0x0 build/pic32mz/production/_ext/330555317/plib_uart5.o
 .reginfo       0x0000000000000000       0x18 build/pic32mz/production/_ext/330555317/plib_uart5.o
 .MIPS.abiflags
                0x0000000000000000       0x18 build/pic32mz/production/_ext/330555317/plib_uart5.o
 .text.UART5_ErrorClear
                0x0000000000000000       0x64 build/pic32mz/production/_ext/330555317/plib_uart5.o
 .text.UART5_SerialSetup
                0x0000000000000000      0x118 build/pic32mz/production/_ext/330555317/plib_uart5.o
 .text.UART5_AutoBaudQuery
                0x0000000000000000       0x10 build/pic32mz/production/_ext/330555317/plib_uart5.o
 .text.UART5_AutoBaudSet
                0x0000000000000000       0x18 build/pic32mz/production/_ext/330555317/plib_uart5.o
 .text.UART5_Read
                0x0000000000000000       0xc0 build/pic32mz/production/_ext/330555317/plib_uart5.o
 .text.UART5_ErrorGet
                0x0000000000000000       0x44 build/pic32mz/production/_ext/330555317/plib_uart5.o
 .text.UART5_WriteByte
                0x0000000000000000       0x20 build/pic32mz/production/_ext/330555317/plib_uart5.o
 .text.UART5_TransmitterIsReady
                0x0000000000000000       0x14 build/pic32mz/production/_ext/330555317/plib_uart5.o
 .text.UART5_TransmitComplete
                0x0000000000000000       0x10 build/pic32mz/production/_ext/330555317/plib_uart5.o
 .text.UART5_ReadByte
                0x0000000000000000       0x10 build/pic32mz/production/_ext/330555317/plib_uart5.o
 .text.UART5_ReceiverIsReady
                0x0000000000000000       0x10 build/pic32mz/production/_ext/330555317/plib_uart5.o
 .text          0x0000000000000000        0x0 build/pic32mz/production/_ext/330555317/plib_uart6.o
 .data          0x0000000000000000        0x0 build/pic32mz/production/_ext/330555317/plib_uart6.o
 .reginfo       0x0000000000000000       0x18 build/pic32mz/production/_ext/330555317/plib_uart6.o
 .MIPS.abiflags
                0x0000000000000000       0x18 build/pic32mz/production/_ext/330555317/plib_uart6.o
 .text.UART6_SerialSetup
                0x0000000000000000      0x128 build/pic32mz/production/_ext/330555317/plib_uart6.o
 .text.UART6_AutoBaudQuery
                0x0000000000000000       0x10 build/pic32mz/production/_ext/330555317/plib_uart6.o
 .text.UART6_AutoBaudSet
                0x0000000000000000       0x18 build/pic32mz/production/_ext/330555317/plib_uart6.o
 .text.UART6_ErrorGet
                0x0000000000000000       0x18 build/pic32mz/production/_ext/330555317/plib_uart6.o
 .text.UART6_ReadIsBusy
                0x0000000000000000        0xc build/pic32mz/production/_ext/330555317/plib_uart6.o
 .text.UART6_ReadCountGet
                0x0000000000000000        0xc build/pic32mz/production/_ext/330555317/plib_uart6.o
 .text.UART6_ReadAbort
                0x0000000000000000       0x3c build/pic32mz/production/_ext/330555317/plib_uart6.o
 .text.UART6_WriteIsBusy
                0x0000000000000000        0xc build/pic32mz/production/_ext/330555317/plib_uart6.o
 .text.UART6_WriteCountGet
                0x0000000000000000        0xc build/pic32mz/production/_ext/330555317/plib_uart6.o
 .text          0x0000000000000000        0x0 build/pic32mz/production/_ext/330555317/plib_uart3.o
 .data          0x0000000000000000        0x0 build/pic32mz/production/_ext/330555317/plib_uart3.o
 .reginfo       0x0000000000000000       0x18 build/pic32mz/production/_ext/330555317/plib_uart3.o
 .MIPS.abiflags
                0x0000000000000000       0x18 build/pic32mz/production/_ext/330555317/plib_uart3.o
 .text.UART3_SerialSetup
                0x0000000000000000      0x128 build/pic32mz/production/_ext/330555317/plib_uart3.o
 .text.UART3_AutoBaudQuery
                0x0000000000000000       0x10 build/pic32mz/production/_ext/330555317/plib_uart3.o
 .text.UART3_AutoBaudSet
                0x0000000000000000       0x18 build/pic32mz/production/_ext/330555317/plib_uart3.o
 .text.UART3_Read
                0x0000000000000000       0x90 build/pic32mz/production/_ext/330555317/plib_uart3.o
 .text.UART3_Write
                0x0000000000000000       0xbc build/pic32mz/production/_ext/330555317/plib_uart3.o
 .text.UART3_ErrorGet
                0x0000000000000000       0x18 build/pic32mz/production/_ext/330555317/plib_uart3.o
 .text.UART3_ReadCallbackRegister
                0x0000000000000000       0x14 build/pic32mz/production/_ext/330555317/plib_uart3.o
 .text.UART3_ReadIsBusy
                0x0000000000000000        0xc build/pic32mz/production/_ext/330555317/plib_uart3.o
 .text.UART3_ReadCountGet
                0x0000000000000000        0xc build/pic32mz/production/_ext/330555317/plib_uart3.o
 .text.UART3_ReadAbort
                0x0000000000000000       0x3c build/pic32mz/production/_ext/330555317/plib_uart3.o
 .text.UART3_WriteCallbackRegister
                0x0000000000000000       0x14 build/pic32mz/production/_ext/330555317/plib_uart3.o
 .text.UART3_WriteIsBusy
                0x0000000000000000        0xc build/pic32mz/production/_ext/330555317/plib_uart3.o
 .text.UART3_WriteCountGet
                0x0000000000000000        0xc build/pic32mz/production/_ext/330555317/plib_uart3.o
 .text          0x0000000000000000        0x0 build/pic32mz/production/_ext/330555317/plib_uart4.o
 .data          0x0000000000000000        0x0 build/pic32mz/production/_ext/330555317/plib_uart4.o
 .reginfo       0x0000000000000000       0x18 build/pic32mz/production/_ext/330555317/plib_uart4.o
 .MIPS.abiflags
                0x0000000000000000       0x18 build/pic32mz/production/_ext/330555317/plib_uart4.o
 .text.UART4_SerialSetup
                0x0000000000000000      0x128 build/pic32mz/production/_ext/330555317/plib_uart4.o
 .text.UART4_AutoBaudQuery
                0x0000000000000000       0x10 build/pic32mz/production/_ext/330555317/plib_uart4.o
 .text.UART4_AutoBaudSet
                0x0000000000000000       0x18 build/pic32mz/production/_ext/330555317/plib_uart4.o
 .text.UART4_Read
                0x0000000000000000       0x90 build/pic32mz/production/_ext/330555317/plib_uart4.o
 .text.UART4_Write
                0x0000000000000000       0xbc build/pic32mz/production/_ext/330555317/plib_uart4.o
 .text.UART4_ErrorGet
                0x0000000000000000       0x18 build/pic32mz/production/_ext/330555317/plib_uart4.o
 .text.UART4_ReadCallbackRegister
                0x0000000000000000       0x14 build/pic32mz/production/_ext/330555317/plib_uart4.o
 .text.UART4_ReadIsBusy
                0x0000000000000000        0xc build/pic32mz/production/_ext/330555317/plib_uart4.o
 .text.UART4_ReadCountGet
                0x0000000000000000        0xc build/pic32mz/production/_ext/330555317/plib_uart4.o
 .text.UART4_ReadAbort
                0x0000000000000000       0x3c build/pic32mz/production/_ext/330555317/plib_uart4.o
 .text.UART4_WriteCallbackRegister
                0x0000000000000000       0x14 build/pic32mz/production/_ext/330555317/plib_uart4.o
 .text.UART4_WriteIsBusy
                0x0000000000000000        0xc build/pic32mz/production/_ext/330555317/plib_uart4.o
 .text.UART4_WriteCountGet
                0x0000000000000000        0xc build/pic32mz/production/_ext/330555317/plib_uart4.o
 .text          0x0000000000000000        0x0 build/pic32mz/production/_ext/330555317/plib_uart1.o
 .data          0x0000000000000000        0x0 build/pic32mz/production/_ext/330555317/plib_uart1.o
 .reginfo       0x0000000000000000       0x18 build/pic32mz/production/_ext/330555317/plib_uart1.o
 .MIPS.abiflags
                0x0000000000000000       0x18 build/pic32mz/production/_ext/330555317/plib_uart1.o
 .text.UART1_SerialSetup
                0x0000000000000000      0x128 build/pic32mz/production/_ext/330555317/plib_uart1.o
 .text.UART1_AutoBaudQuery
                0x0000000000000000       0x10 build/pic32mz/production/_ext/330555317/plib_uart1.o
 .text.UART1_AutoBaudSet
                0x0000000000000000       0x18 build/pic32mz/production/_ext/330555317/plib_uart1.o
 .text.UART1_Read
                0x0000000000000000       0x90 build/pic32mz/production/_ext/330555317/plib_uart1.o
 .text.UART1_Write
                0x0000000000000000       0xbc build/pic32mz/production/_ext/330555317/plib_uart1.o
 .text.UART1_ErrorGet
                0x0000000000000000       0x18 build/pic32mz/production/_ext/330555317/plib_uart1.o
 .text.UART1_ReadCallbackRegister
                0x0000000000000000       0x14 build/pic32mz/production/_ext/330555317/plib_uart1.o
 .text.UART1_ReadIsBusy
                0x0000000000000000        0xc build/pic32mz/production/_ext/330555317/plib_uart1.o
 .text.UART1_ReadCountGet
                0x0000000000000000        0xc build/pic32mz/production/_ext/330555317/plib_uart1.o
 .text.UART1_ReadAbort
                0x0000000000000000       0x3c build/pic32mz/production/_ext/330555317/plib_uart1.o
 .text.UART1_WriteCallbackRegister
                0x0000000000000000       0x14 build/pic32mz/production/_ext/330555317/plib_uart1.o
 .text.UART1_WriteIsBusy
                0x0000000000000000        0xc build/pic32mz/production/_ext/330555317/plib_uart1.o
 .text.UART1_WriteCountGet
                0x0000000000000000        0xc build/pic32mz/production/_ext/330555317/plib_uart1.o
 .text          0x0000000000000000        0x0 build/pic32mz/production/_ext/330555317/plib_uart2.o
 .data          0x0000000000000000        0x0 build/pic32mz/production/_ext/330555317/plib_uart2.o
 .reginfo       0x0000000000000000       0x18 build/pic32mz/production/_ext/330555317/plib_uart2.o
 .MIPS.abiflags
                0x0000000000000000       0x18 build/pic32mz/production/_ext/330555317/plib_uart2.o
 .text.UART2_SerialSetup
                0x0000000000000000      0x128 build/pic32mz/production/_ext/330555317/plib_uart2.o
 .text.UART2_AutoBaudQuery
                0x0000000000000000       0x10 build/pic32mz/production/_ext/330555317/plib_uart2.o
 .text.UART2_AutoBaudSet
                0x0000000000000000       0x18 build/pic32mz/production/_ext/330555317/plib_uart2.o
 .text.UART2_Read
                0x0000000000000000       0x90 build/pic32mz/production/_ext/330555317/plib_uart2.o
 .text.UART2_Write
                0x0000000000000000       0xbc build/pic32mz/production/_ext/330555317/plib_uart2.o
 .text.UART2_ErrorGet
                0x0000000000000000       0x18 build/pic32mz/production/_ext/330555317/plib_uart2.o
 .text.UART2_ReadCallbackRegister
                0x0000000000000000       0x14 build/pic32mz/production/_ext/330555317/plib_uart2.o
 .text.UART2_ReadIsBusy
                0x0000000000000000        0xc build/pic32mz/production/_ext/330555317/plib_uart2.o
 .text.UART2_ReadCountGet
                0x0000000000000000        0xc build/pic32mz/production/_ext/330555317/plib_uart2.o
 .text.UART2_ReadAbort
                0x0000000000000000       0x3c build/pic32mz/production/_ext/330555317/plib_uart2.o
 .text.UART2_WriteCallbackRegister
                0x0000000000000000       0x14 build/pic32mz/production/_ext/330555317/plib_uart2.o
 .text.UART2_WriteIsBusy
                0x0000000000000000        0xc build/pic32mz/production/_ext/330555317/plib_uart2.o
 .text.UART2_WriteCountGet
                0x0000000000000000        0xc build/pic32mz/production/_ext/330555317/plib_uart2.o
 .text          0x0000000000000000        0x0 build/pic32mz/production/_ext/1991269565/xc32_monitor.o
 .data          0x0000000000000000        0x0 build/pic32mz/production/_ext/1991269565/xc32_monitor.o
 .bss           0x0000000000000000        0x0 build/pic32mz/production/_ext/1991269565/xc32_monitor.o
 .reginfo       0x0000000000000000       0x18 build/pic32mz/production/_ext/1991269565/xc32_monitor.o
 .MIPS.abiflags
                0x0000000000000000       0x18 build/pic32mz/production/_ext/1991269565/xc32_monitor.o
 .text._mon_getc
                0x0000000000000000       0x30 build/pic32mz/production/_ext/1991269565/xc32_monitor.o
 .text          0x0000000000000000        0x0 build/pic32mz/production/_ext/1519118610/sys_cache.o
 .data          0x0000000000000000        0x0 build/pic32mz/production/_ext/1519118610/sys_cache.o
 .bss           0x0000000000000000        0x0 build/pic32mz/production/_ext/1519118610/sys_cache.o
 .reginfo       0x0000000000000000       0x18 build/pic32mz/production/_ext/1519118610/sys_cache.o
 .MIPS.abiflags
                0x0000000000000000       0x18 build/pic32mz/production/_ext/1519118610/sys_cache.o
 .text.SYS_CACHE_EnableCaches
                0x0000000000000000       0x1c build/pic32mz/production/_ext/1519118610/sys_cache.o
 .text.SYS_CACHE_DisableCaches
                0x0000000000000000       0x1c build/pic32mz/production/_ext/1519118610/sys_cache.o
 .text.SYS_CACHE_EnableICache
                0x0000000000000000       0x1c build/pic32mz/production/_ext/1519118610/sys_cache.o
 .text.SYS_CACHE_DisableICache
                0x0000000000000000       0x1c build/pic32mz/production/_ext/1519118610/sys_cache.o
 .text.SYS_CACHE_EnableDCache
                0x0000000000000000       0x1c build/pic32mz/production/_ext/1519118610/sys_cache.o
 .text.SYS_CACHE_DisableDCache
                0x0000000000000000       0x1c build/pic32mz/production/_ext/1519118610/sys_cache.o
 .text.SYS_CACHE_CleanDCache
                0x0000000000000000       0x1c build/pic32mz/production/_ext/1519118610/sys_cache.o
 .text.SYS_CACHE_CleanInvalidateDCache
                0x0000000000000000       0x38 build/pic32mz/production/_ext/1519118610/sys_cache.o
 .text.SYS_CACHE_InvalidateICache
                0x0000000000000000       0x38 build/pic32mz/production/_ext/1519118610/sys_cache.o
 .text.SYS_CACHE_InvalidateDCache
                0x0000000000000000       0x38 build/pic32mz/production/_ext/1519118610/sys_cache.o
 .text.SYS_CACHE_CleanInvalidateDCache_by_Addr
                0x0000000000000000       0x4c build/pic32mz/production/_ext/1519118610/sys_cache.o
 .text          0x0000000000000000        0x0 build/pic32mz/production/_ext/1373644956/sys_dma.o
 .data          0x0000000000000000        0x0 build/pic32mz/production/_ext/1373644956/sys_dma.o
 .bss           0x0000000000000000        0x0 build/pic32mz/production/_ext/1373644956/sys_dma.o
 .reginfo       0x0000000000000000       0x18 build/pic32mz/production/_ext/1373644956/sys_dma.o
 .MIPS.abiflags
                0x0000000000000000       0x18 build/pic32mz/production/_ext/1373644956/sys_dma.o
 .text.SYS_DMA_AddressingModeSetup
                0x0000000000000000        0x8 build/pic32mz/production/_ext/1373644956/sys_dma.o
 .text.SYS_DMA_DataWidthSetup
                0x0000000000000000        0x8 build/pic32mz/production/_ext/1373644956/sys_dma.o
 .text.SYS_DMA_ChannelTransfer
                0x0000000000000000        0x8 build/pic32mz/production/_ext/1373644956/sys_dma.o
 .text          0x0000000000000000        0x0 build/pic32mz/production/_ext/1192657380/ff.o
 .data          0x0000000000000000        0x0 build/pic32mz/production/_ext/1192657380/ff.o
 .reginfo       0x0000000000000000       0x18 build/pic32mz/production/_ext/1192657380/ff.o
 .MIPS.abiflags
                0x0000000000000000       0x18 build/pic32mz/production/_ext/1192657380/ff.o
 .text          0x0000000000000000        0x0 build/pic32mz/production/_ext/1192657380/ffunicode.o
 .data          0x0000000000000000        0x0 build/pic32mz/production/_ext/1192657380/ffunicode.o
 .bss           0x0000000000000000        0x0 build/pic32mz/production/_ext/1192657380/ffunicode.o
 .reginfo       0x0000000000000000       0x18 build/pic32mz/production/_ext/1192657380/ffunicode.o
 .MIPS.abiflags
                0x0000000000000000       0x18 build/pic32mz/production/_ext/1192657380/ffunicode.o
 .text          0x0000000000000000        0x0 build/pic32mz/production/_ext/727274963/diskio.o
 .data          0x0000000000000000        0x0 build/pic32mz/production/_ext/727274963/diskio.o
 .bss           0x0000000000000000        0x0 build/pic32mz/production/_ext/727274963/diskio.o
 .reginfo       0x0000000000000000       0x18 build/pic32mz/production/_ext/727274963/diskio.o
 .MIPS.abiflags
                0x0000000000000000       0x18 build/pic32mz/production/_ext/727274963/diskio.o
 .text          0x0000000000000000        0x0 build/pic32mz/production/_ext/252936118/sys_fs.o
 .data          0x0000000000000000        0x0 build/pic32mz/production/_ext/252936118/sys_fs.o
 .reginfo       0x0000000000000000       0x18 build/pic32mz/production/_ext/252936118/sys_fs.o
 .MIPS.abiflags
                0x0000000000000000       0x18 build/pic32mz/production/_ext/252936118/sys_fs.o
 .rodata.str1.4
                0x0000000000000000        0x8 build/pic32mz/production/_ext/252936118/sys_fs.o
 .text.SYS_FS_GetDisk
                0x0000000000000000      0x160 build/pic32mz/production/_ext/252936118/sys_fs.o
 .text.SYS_FS_Mount
                0x0000000000000000      0x268 build/pic32mz/production/_ext/252936118/sys_fs.o
 .text.SYS_FS_Unmount
                0x0000000000000000      0x154 build/pic32mz/production/_ext/252936118/sys_fs.o
 .text.SYS_FS_FileOpen
                0x0000000000000000      0x1f4 build/pic32mz/production/_ext/252936118/sys_fs.o
 .text.SYS_FS_FileClose
                0x0000000000000000       0xc8 build/pic32mz/production/_ext/252936118/sys_fs.o
 .text.SYS_FS_FileNameGet
                0x0000000000000000       0x84 build/pic32mz/production/_ext/252936118/sys_fs.o
 .text.SYS_FS_FileRead
                0x0000000000000000       0xc8 build/pic32mz/production/_ext/252936118/sys_fs.o
 .text.SYS_FS_FileSeek
                0x0000000000000000      0x174 build/pic32mz/production/_ext/252936118/sys_fs.o
 .text.SYS_FS_FileTell
                0x0000000000000000       0xc0 build/pic32mz/production/_ext/252936118/sys_fs.o
 .text.SYS_FS_FileSize
                0x0000000000000000       0xc0 build/pic32mz/production/_ext/252936118/sys_fs.o
 .text.SYS_FS_FileEOF
                0x0000000000000000       0xb0 build/pic32mz/production/_ext/252936118/sys_fs.o
 .text.SYS_FS_FileStat
                0x0000000000000000       0xdc build/pic32mz/production/_ext/252936118/sys_fs.o
 .text.SYS_FS_Error
                0x0000000000000000        0x8 build/pic32mz/production/_ext/252936118/sys_fs.o
 .text.SYS_FS_FileError
                0x0000000000000000       0x30 build/pic32mz/production/_ext/252936118/sys_fs.o
 .text.SYS_FS_DirOpen
                0x0000000000000000      0x15c build/pic32mz/production/_ext/252936118/sys_fs.o
 .text.SYS_FS_DirClose
                0x0000000000000000       0xc8 build/pic32mz/production/_ext/252936118/sys_fs.o
 .text.SYS_FS_DirRead
                0x0000000000000000       0xc8 build/pic32mz/production/_ext/252936118/sys_fs.o
 .text.SYS_FS_DirRewind
                0x0000000000000000       0xc4 build/pic32mz/production/_ext/252936118/sys_fs.o
 .text.SYS_FS_DirSearch
                0x0000000000000000      0x260 build/pic32mz/production/_ext/252936118/sys_fs.o
 .text.SYS_FS_FileStringGet
                0x0000000000000000       0xec build/pic32mz/production/_ext/252936118/sys_fs.o
 .text.SYS_FS_DirectoryChange
                0x0000000000000000       0xc8 build/pic32mz/production/_ext/252936118/sys_fs.o
 .text.SYS_FS_CurrentWorkingDirectoryGet
                0x0000000000000000      0x1c8 build/pic32mz/production/_ext/252936118/sys_fs.o
 .text.SYS_FS_CurrentDriveGet
                0x0000000000000000       0x7c build/pic32mz/production/_ext/252936118/sys_fs.o
 .text.SYS_FS_DriveLabelGet
                0x0000000000000000       0xf8 build/pic32mz/production/_ext/252936118/sys_fs.o
 .text.SYS_FS_FileWrite
                0x0000000000000000       0xcc build/pic32mz/production/_ext/252936118/sys_fs.o
 .text.SYS_FS_FileSync
                0x0000000000000000       0xc0 build/pic32mz/production/_ext/252936118/sys_fs.o
 .text.SYS_FS_FileTruncate
                0x0000000000000000       0xb4 build/pic32mz/production/_ext/252936118/sys_fs.o
 .text.SYS_FS_FileCharacterPut
                0x0000000000000000       0xd8 build/pic32mz/production/_ext/252936118/sys_fs.o
 .text.SYS_FS_FileStringPut
                0x0000000000000000       0xd4 build/pic32mz/production/_ext/252936118/sys_fs.o
 .text.SYS_FS_FilePrintf
                0x0000000000000000       0xe8 build/pic32mz/production/_ext/252936118/sys_fs.o
 .text.SYS_FS_FileTestError
                0x0000000000000000       0xb0 build/pic32mz/production/_ext/252936118/sys_fs.o
 .text.SYS_FS_DirectoryMake
                0x0000000000000000       0xc8 build/pic32mz/production/_ext/252936118/sys_fs.o
 .text.SYS_FS_FileDirectoryRemove
                0x0000000000000000       0xc8 build/pic32mz/production/_ext/252936118/sys_fs.o
 .text.SYS_FS_FileDirectoryModeSet
                0x0000000000000000       0xe8 build/pic32mz/production/_ext/252936118/sys_fs.o
 .text.SYS_FS_FileDirectoryTimeSet
                0x0000000000000000       0xec build/pic32mz/production/_ext/252936118/sys_fs.o
 .text.SYS_FS_FileDirectoryRenameMove
                0x0000000000000000      0x104 build/pic32mz/production/_ext/252936118/sys_fs.o
 .text.SYS_FS_CurrentDriveSet
                0x0000000000000000       0xe0 build/pic32mz/production/_ext/252936118/sys_fs.o
 .text.SYS_FS_DriveLabelSet
                0x0000000000000000      0x114 build/pic32mz/production/_ext/252936118/sys_fs.o
 .text.SYS_FS_DriveFormat
                0x0000000000000000       0xcc build/pic32mz/production/_ext/252936118/sys_fs.o
 .text.SYS_FS_DrivePartition
                0x0000000000000000       0xc0 build/pic32mz/production/_ext/252936118/sys_fs.o
 .text.SYS_FS_DriveSectorGet
                0x0000000000000000      0x108 build/pic32mz/production/_ext/252936118/sys_fs.o
 .text          0x0000000000000000        0x0 build/pic32mz/production/_ext/252936118/sys_fs_media_manager.o
 .reginfo       0x0000000000000000       0x18 build/pic32mz/production/_ext/252936118/sys_fs_media_manager.o
 .MIPS.abiflags
                0x0000000000000000       0x18 build/pic32mz/production/_ext/252936118/sys_fs_media_manager.o
 .text.SYS_FS_MEDIA_MANAGER_DeRegister
                0x0000000000000000       0x18 build/pic32mz/production/_ext/252936118/sys_fs_media_manager.o
 .text.SYS_FS_MEDIA_MANAGER_Read
                0x0000000000000000       0xc4 build/pic32mz/production/_ext/252936118/sys_fs_media_manager.o
 .text.SYS_FS_MEDIA_MANAGER_AddressGet
                0x0000000000000000       0x3c build/pic32mz/production/_ext/252936118/sys_fs_media_manager.o
 .text.SYS_FS_MEDIA_MANAGER_CommandStatusGet
                0x0000000000000000       0x50 build/pic32mz/production/_ext/252936118/sys_fs_media_manager.o
 .text.SYS_FS_MEDIA_MANAGER_MediaStatusGet
                0x0000000000000000       0xb4 build/pic32mz/production/_ext/252936118/sys_fs_media_manager.o
 .text.SYS_FS_MEDIA_MANAGER_VolumePropertyGet
                0x0000000000000000       0x74 build/pic32mz/production/_ext/252936118/sys_fs_media_manager.o
 .text          0x0000000000000000        0x0 build/pic32mz/production/_ext/252936118/sys_fs_fat_interface.o
 .data          0x0000000000000000        0x0 build/pic32mz/production/_ext/252936118/sys_fs_fat_interface.o
 .bss           0x0000000000000000        0x0 build/pic32mz/production/_ext/252936118/sys_fs_fat_interface.o
 .reginfo       0x0000000000000000       0x18 build/pic32mz/production/_ext/252936118/sys_fs_fat_interface.o
 .MIPS.abiflags
                0x0000000000000000       0x18 build/pic32mz/production/_ext/252936118/sys_fs_fat_interface.o
 .text.FATFS_getfree
                0x0000000000000000       0x1c build/pic32mz/production/_ext/252936118/sys_fs_fat_interface.o
 .text          0x0000000000000000        0x0 build/pic32mz/production/_ext/1832149040/sys_int.o
 .data          0x0000000000000000        0x0 build/pic32mz/production/_ext/1832149040/sys_int.o
 .bss           0x0000000000000000        0x0 build/pic32mz/production/_ext/1832149040/sys_int.o
 .reginfo       0x0000000000000000       0x18 build/pic32mz/production/_ext/1832149040/sys_int.o
 .MIPS.abiflags
                0x0000000000000000       0x18 build/pic32mz/production/_ext/1832149040/sys_int.o
 .text.SYS_INT_Enable
                0x0000000000000000       0x1c build/pic32mz/production/_ext/1832149040/sys_int.o
 .text          0x0000000000000000        0x0 build/pic32mz/production/_ext/1636986698/sys_time.o
 .data          0x0000000000000000        0x0 build/pic32mz/production/_ext/1636986698/sys_time.o
 .reginfo       0x0000000000000000       0x18 build/pic32mz/production/_ext/1636986698/sys_time.o
 .MIPS.abiflags
                0x0000000000000000       0x18 build/pic32mz/production/_ext/1636986698/sys_time.o
 .text.SYS_TIME_Deinitialize
                0x0000000000000000       0x9c build/pic32mz/production/_ext/1636986698/sys_time.o
 .text.SYS_TIME_Status
                0x0000000000000000       0x24 build/pic32mz/production/_ext/1636986698/sys_time.o
 .text.SYS_TIME_FrequencyGet
                0x0000000000000000        0xc build/pic32mz/production/_ext/1636986698/sys_time.o
 .text.SYS_TIME_Counter64Get
                0x0000000000000000       0x78 build/pic32mz/production/_ext/1636986698/sys_time.o
 .text.SYS_TIME_CounterGet
                0x0000000000000000       0x1c build/pic32mz/production/_ext/1636986698/sys_time.o
 .text.SYS_TIME_CounterSet
                0x0000000000000000       0x48 build/pic32mz/production/_ext/1636986698/sys_time.o
 .text.SYS_TIME_CountToUS
                0x0000000000000000       0x84 build/pic32mz/production/_ext/1636986698/sys_time.o
 .text.SYS_TIME_CountToMS
                0x0000000000000000       0x64 build/pic32mz/production/_ext/1636986698/sys_time.o
 .text.SYS_TIME_USToCount
                0x0000000000000000       0x38 build/pic32mz/production/_ext/1636986698/sys_time.o
 .text.SYS_TIME_MSToCount
                0x0000000000000000       0x34 build/pic32mz/production/_ext/1636986698/sys_time.o
 .text.SYS_TIME_TimerCreate
                0x0000000000000000       0x30 build/pic32mz/production/_ext/1636986698/sys_time.o
 .text.SYS_TIME_TimerReload
                0x0000000000000000      0x11c build/pic32mz/production/_ext/1636986698/sys_time.o
 .text.SYS_TIME_TimerStop
                0x0000000000000000       0x88 build/pic32mz/production/_ext/1636986698/sys_time.o
 .text.SYS_TIME_TimerCounterGet
                0x0000000000000000       0xfc build/pic32mz/production/_ext/1636986698/sys_time.o
 .text.SYS_TIME_TimerPeriodHasExpired
                0x0000000000000000       0x5c build/pic32mz/production/_ext/1636986698/sys_time.o
 .text.SYS_TIME_DelayUS
                0x0000000000000000       0xa0 build/pic32mz/production/_ext/1636986698/sys_time.o
 .text.SYS_TIME_DelayMS
                0x0000000000000000       0x9c build/pic32mz/production/_ext/1636986698/sys_time.o
 .text.SYS_TIME_DelayIsComplete
                0x0000000000000000       0x48 build/pic32mz/production/_ext/1636986698/sys_time.o
 .text.SYS_TIME_CallbackRegisterUS
                0x0000000000000000       0xb0 build/pic32mz/production/_ext/1636986698/sys_time.o
 .text          0x0000000000000000        0x0 build/pic32mz/production/_ext/202551283/usb_device.o
 .data          0x0000000000000000        0x0 build/pic32mz/production/_ext/202551283/usb_device.o
 .reginfo       0x0000000000000000       0x18 build/pic32mz/production/_ext/202551283/usb_device.o
 .MIPS.abiflags
                0x0000000000000000       0x18 build/pic32mz/production/_ext/202551283/usb_device.o
 .text.USB_DEVICE_Status
                0x0000000000000000       0x44 build/pic32mz/production/_ext/202551283/usb_device.o
 .text.USB_DEVICE_Deinitialize
                0x0000000000000000       0x40 build/pic32mz/production/_ext/202551283/usb_device.o
 .text.USB_DEVICE_Open
                0x0000000000000000       0x58 build/pic32mz/production/_ext/202551283/usb_device.o
 .text._USB_DEVICE_EventHandler
                0x0000000000000000      0x208 build/pic32mz/production/_ext/202551283/usb_device.o
 .text.USB_DEVICE_Attach
                0x0000000000000000       0x48 build/pic32mz/production/_ext/202551283/usb_device.o
 .text.USB_DEVICE_Detach
                0x0000000000000000       0x50 build/pic32mz/production/_ext/202551283/usb_device.o
 .text.USB_DEVICE_EndpointIsEnabled
                0x0000000000000000       0x44 build/pic32mz/production/_ext/202551283/usb_device.o
 .text.USB_DEVICE_EndpointStall
                0x0000000000000000       0x3c build/pic32mz/production/_ext/202551283/usb_device.o
 .text.USB_DEVICE_EndpointStallClear
                0x0000000000000000       0x3c build/pic32mz/production/_ext/202551283/usb_device.o
 .text.USB_DEVICE_EndpointIsStalled
                0x0000000000000000       0x44 build/pic32mz/production/_ext/202551283/usb_device.o
 .text.USB_DEVICE_IsSuspended
                0x0000000000000000       0x2c build/pic32mz/production/_ext/202551283/usb_device.o
 .text.USB_DEVICE_StateGet
                0x0000000000000000       0x2c build/pic32mz/production/_ext/202551283/usb_device.o
 .text.USB_DEVICE_Close
                0x0000000000000000       0x2c build/pic32mz/production/_ext/202551283/usb_device.o
 .text.USB_DEVICE_ClientStatusGet
                0x0000000000000000       0x28 build/pic32mz/production/_ext/202551283/usb_device.o
 .text.USB_DEVICE_EventHandlerSet
                0x0000000000000000       0x58 build/pic32mz/production/_ext/202551283/usb_device.o
 .text.USB_DEVICE_ActiveConfigurationGet
                0x0000000000000000       0x28 build/pic32mz/production/_ext/202551283/usb_device.o
 .text.USB_DEVICE_ActiveSpeedGet
                0x0000000000000000       0x2c build/pic32mz/production/_ext/202551283/usb_device.o
 .text.USB_DEVICE_ControlReceive
                0x0000000000000000       0x48 build/pic32mz/production/_ext/202551283/usb_device.o
 .text.USB_DEVICE_PowerStateSet
                0x0000000000000000       0x38 build/pic32mz/production/_ext/202551283/usb_device.o
 .text.USB_DEVICE_RemoteWakeupStatusGet
                0x0000000000000000       0x28 build/pic32mz/production/_ext/202551283/usb_device.o
 .text.USB_DEVICE_RemoteWakeupStop
                0x0000000000000000       0x34 build/pic32mz/production/_ext/202551283/usb_device.o
 .text.USB_DEVICE_RemoteWakeupStart
                0x0000000000000000       0x34 build/pic32mz/production/_ext/202551283/usb_device.o
 .text.USB_DEVICE_IRPSubmit
                0x0000000000000000       0x54 build/pic32mz/production/_ext/202551283/usb_device.o
 .text.USB_DEVICE_IRPCancel
                0x0000000000000000       0x44 build/pic32mz/production/_ext/202551283/usb_device.o
 .text._USB_DEVICE_EndpointMutexCreateFunction
                0x0000000000000000       0x1c build/pic32mz/production/_ext/202551283/usb_device.o
 .text._USB_DEVICE_EndpointMutexDeleteFunction
                0x0000000000000000        0x8 build/pic32mz/production/_ext/202551283/usb_device.o
 .text._USB_DEVICE_GetStringDescriptorRequestProcessAdvanced
                0x0000000000000000       0xac build/pic32mz/production/_ext/202551283/usb_device.o
 .text          0x0000000000000000        0x0 build/pic32mz/production/_ext/202551283/usb_device_cdc.o
 .data          0x0000000000000000        0x0 build/pic32mz/production/_ext/202551283/usb_device_cdc.o
 .reginfo       0x0000000000000000       0x18 build/pic32mz/production/_ext/202551283/usb_device_cdc.o
 .MIPS.abiflags
                0x0000000000000000       0x18 build/pic32mz/production/_ext/202551283/usb_device_cdc.o
 .text._USB_DEVICE_CDC_SerialStateSendIRPCallback
                0x0000000000000000       0xc0 build/pic32mz/production/_ext/202551283/usb_device_cdc.o
 .text._USB_DEVICE_CDC_ReadIRPCallback
                0x0000000000000000       0xc0 build/pic32mz/production/_ext/202551283/usb_device_cdc.o
 .text._USB_DEVICE_CDC_WriteIRPCallback
                0x0000000000000000       0xc0 build/pic32mz/production/_ext/202551283/usb_device_cdc.o
 .text.USB_DEVICE_CDC_Read
                0x0000000000000000      0x1ac build/pic32mz/production/_ext/202551283/usb_device_cdc.o
 .text.USB_DEVICE_CDC_Write
                0x0000000000000000      0x1c8 build/pic32mz/production/_ext/202551283/usb_device_cdc.o
 .text.USB_DEVICE_CDC_EventHandlerSet
                0x0000000000000000       0x38 build/pic32mz/production/_ext/202551283/usb_device_cdc.o
 .text.USB_DEVICE_CDC_ReadPacketSizeGet
                0x0000000000000000       0x1c build/pic32mz/production/_ext/202551283/usb_device_cdc.o
 .text.USB_DEVICE_CDC_WritePacketSizeGet
                0x0000000000000000       0x1c build/pic32mz/production/_ext/202551283/usb_device_cdc.o
 .text.USB_DEVICE_CDC_SerialStateNotificationSend
                0x0000000000000000      0x1d4 build/pic32mz/production/_ext/202551283/usb_device_cdc.o
 .text          0x0000000000000000        0x0 build/pic32mz/production/_ext/202551283/usb_device_cdc_acm.o
 .data          0x0000000000000000        0x0 build/pic32mz/production/_ext/202551283/usb_device_cdc_acm.o
 .bss           0x0000000000000000        0x0 build/pic32mz/production/_ext/202551283/usb_device_cdc_acm.o
 .reginfo       0x0000000000000000       0x18 build/pic32mz/production/_ext/202551283/usb_device_cdc_acm.o
 .MIPS.abiflags
                0x0000000000000000       0x18 build/pic32mz/production/_ext/202551283/usb_device_cdc_acm.o
 .text          0x0000000000000000        0x0 build/pic32mz/production/_ext/953055421/usb_device_init_data.o
 .data          0x0000000000000000        0x0 build/pic32mz/production/_ext/953055421/usb_device_init_data.o
 .bss           0x0000000000000000        0x0 build/pic32mz/production/_ext/953055421/usb_device_init_data.o
 .reginfo       0x0000000000000000       0x18 build/pic32mz/production/_ext/953055421/usb_device_init_data.o
 .MIPS.abiflags
                0x0000000000000000       0x18 build/pic32mz/production/_ext/953055421/usb_device_init_data.o
 .text          0x0000000000000000        0x0 build/pic32mz/production/_ext/953055421/tasks.o
 .data          0x0000000000000000        0x0 build/pic32mz/production/_ext/953055421/tasks.o
 .bss           0x0000000000000000        0x0 build/pic32mz/production/_ext/953055421/tasks.o
 .reginfo       0x0000000000000000       0x18 build/pic32mz/production/_ext/953055421/tasks.o
 .MIPS.abiflags
                0x0000000000000000       0x18 build/pic32mz/production/_ext/953055421/tasks.o
 .text          0x0000000000000000        0x0 build/pic32mz/production/_ext/953055421/initialization.o
 .data          0x0000000000000000        0x0 build/pic32mz/production/_ext/953055421/initialization.o
 .reginfo       0x0000000000000000       0x18 build/pic32mz/production/_ext/953055421/initialization.o
 .MIPS.abiflags
                0x0000000000000000       0x18 build/pic32mz/production/_ext/953055421/initialization.o
 .text          0x0000000000000000        0x0 build/pic32mz/production/_ext/953055421/interrupts.o
 .data          0x0000000000000000        0x0 build/pic32mz/production/_ext/953055421/interrupts.o
 .bss           0x0000000000000000        0x0 build/pic32mz/production/_ext/953055421/interrupts.o
 .reginfo       0x0000000000000000       0x18 build/pic32mz/production/_ext/953055421/interrupts.o
 .MIPS.abiflags
                0x0000000000000000       0x18 build/pic32mz/production/_ext/953055421/interrupts.o
 .text          0x0000000000000000        0x0 build/pic32mz/production/_ext/953055421/exceptions.o
 .data          0x0000000000000000        0x0 build/pic32mz/production/_ext/953055421/exceptions.o
 .bss           0x0000000000000000        0x0 build/pic32mz/production/_ext/953055421/exceptions.o
 .reginfo       0x0000000000000000       0x18 build/pic32mz/production/_ext/953055421/exceptions.o
 .MIPS.abiflags
                0x0000000000000000       0x18 build/pic32mz/production/_ext/953055421/exceptions.o
 .text          0x0000000000000000        0x0 build/pic32mz/production/_ext/1360937237/app.o
 .data          0x0000000000000000        0x0 build/pic32mz/production/_ext/1360937237/app.o
 .reginfo       0x0000000000000000       0x18 build/pic32mz/production/_ext/1360937237/app.o
 .MIPS.abiflags
                0x0000000000000000       0x18 build/pic32mz/production/_ext/1360937237/app.o
 .text          0x0000000000000000        0x0 build/pic32mz/production/_ext/1360937237/main.o
 .data          0x0000000000000000        0x0 build/pic32mz/production/_ext/1360937237/main.o
 .bss           0x0000000000000000        0x0 build/pic32mz/production/_ext/1360937237/main.o
 .reginfo       0x0000000000000000       0x18 build/pic32mz/production/_ext/1360937237/main.o
 .MIPS.abiflags
                0x0000000000000000       0x18 build/pic32mz/production/_ext/1360937237/main.o
 .text          0x0000000000000000        0x0 build/pic32mz/production/_ext/1360937237/communication.o
 .data          0x0000000000000000        0x0 build/pic32mz/production/_ext/1360937237/communication.o
 .reginfo       0x0000000000000000       0x18 build/pic32mz/production/_ext/1360937237/communication.o
 .MIPS.abiflags
                0x0000000000000000       0x18 build/pic32mz/production/_ext/1360937237/communication.o
 .text.communicationHandlingDone
                0x0000000000000000       0x18 build/pic32mz/production/_ext/1360937237/communication.o
 .text.uart6Busy
                0x0000000000000000       0x14 build/pic32mz/production/_ext/1360937237/communication.o
 .text          0x0000000000000000        0x0 build/pic32mz/production/_ext/1360937237/mdot.o
 .data          0x0000000000000000        0x0 build/pic32mz/production/_ext/1360937237/mdot.o
 .reginfo       0x0000000000000000       0x18 build/pic32mz/production/_ext/1360937237/mdot.o
 .MIPS.abiflags
                0x0000000000000000       0x18 build/pic32mz/production/_ext/1360937237/mdot.o
 .text.mDotSetEcho
                0x0000000000000000        0x8 build/pic32mz/production/_ext/1360937237/mdot.o
 .text.checkMDotResponse
                0x0000000000000000       0x78 build/pic32mz/production/_ext/1360937237/mdot.o
 .text          0x0000000000000000        0x0 build/pic32mz/production/_ext/1360937237/stringbuffer.o
 .data          0x0000000000000000        0x0 build/pic32mz/production/_ext/1360937237/stringbuffer.o
 .bss           0x0000000000000000        0x0 build/pic32mz/production/_ext/1360937237/stringbuffer.o
 .reginfo       0x0000000000000000       0x18 build/pic32mz/production/_ext/1360937237/stringbuffer.o
 .MIPS.abiflags
                0x0000000000000000       0x18 build/pic32mz/production/_ext/1360937237/stringbuffer.o
 .text          0x0000000000000000        0x0 C:\Users\rford7\AppData\Local\Temp\cciIy8zr.o
 .data          0x0000000000000000        0x0 C:\Users\rford7\AppData\Local\Temp\cciIy8zr.o
 .bss           0x0000000000000000        0x0 C:\Users\rford7\AppData\Local\Temp\cciIy8zr.o
 .reginfo       0x0000000000000000       0x18 C:\Users\rford7\AppData\Local\Temp\cciIy8zr.o
 .MIPS.abiflags
                0x0000000000000000       0x18 C:\Users\rford7\AppData\Local\Temp\cciIy8zr.o
 .text          0x0000000000000000        0x0 C:\Users\rford7\AppData\Local\Temp\cct4lSEV.o
 .data          0x0000000000000000        0x0 C:\Users\rford7\AppData\Local\Temp\cct4lSEV.o
 .bss           0x0000000000000000        0x0 C:\Users\rford7\AppData\Local\Temp\cct4lSEV.o
 .reginfo       0x0000000000000000       0x18 C:\Users\rford7\AppData\Local\Temp\cct4lSEV.o
 .MIPS.abiflags
                0x0000000000000000       0x18 C:\Users\rford7\AppData\Local\Temp\cct4lSEV.o
 .text          0x0000000000000000        0x0 C:\Users\rford7\AppData\Local\Temp\ccezocr3.o
 .data          0x0000000000000000        0x0 C:\Users\rford7\AppData\Local\Temp\ccezocr3.o
 .bss           0x0000000000000000        0x0 C:\Users\rford7\AppData\Local\Temp\ccezocr3.o
 .reginfo       0x0000000000000000       0x18 C:\Users\rford7\AppData\Local\Temp\ccezocr3.o
 .MIPS.abiflags
                0x0000000000000000       0x18 C:\Users\rford7\AppData\Local\Temp\ccezocr3.o
 .text          0x0000000000000000        0x0 C:\Users\rford7\AppData\Local\Temp\ccCB6OPC.o
 .data          0x0000000000000000        0x0 C:\Users\rford7\AppData\Local\Temp\ccCB6OPC.o
 .bss           0x0000000000000000        0x0 C:\Users\rford7\AppData\Local\Temp\ccCB6OPC.o
 .reginfo       0x0000000000000000       0x18 C:\Users\rford7\AppData\Local\Temp\ccCB6OPC.o
 .MIPS.abiflags
                0x0000000000000000       0x18 C:\Users\rford7\AppData\Local\Temp\ccCB6OPC.o
 .discard       0x0000000000000000        0x4 C:\Users\rford7\AppData\Local\Temp\ccCB6OPC.o
 .data          0x0000000000000000        0x0 c:/program files/microchip/xc32/v4.00/bin/bin/../../lib/gcc/pic32mx/8.3.1/../../../../pic32mx/lib/fpu64\pic32_software_reset.o
 .bss           0x0000000000000000        0x0 c:/program files/microchip/xc32/v4.00/bin/bin/../../lib/gcc/pic32mx/8.3.1/../../../../pic32mx/lib/fpu64\pic32_software_reset.o
 .reginfo       0x0000000000000000       0x18 c:/program files/microchip/xc32/v4.00/bin/bin/../../lib/gcc/pic32mx/8.3.1/../../../../pic32mx/lib/fpu64\pic32_software_reset.o
 .MIPS.abiflags
                0x0000000000000000       0x18 c:/program files/microchip/xc32/v4.00/bin/bin/../../lib/gcc/pic32mx/8.3.1/../../../../pic32mx/lib/fpu64\pic32_software_reset.o
 .xc_stack_usage.hdr
                0x0000000000000000        0xe c:/program files/microchip/xc32/v4.00/bin/bin/../../lib/gcc/pic32mx/8.3.1/../../../../pic32mx/lib/fpu64\pic32_software_reset.o
 .xc_stack_usage
                0x0000000000000000       0x24 c:/program files/microchip/xc32/v4.00/bin/bin/../../lib/gcc/pic32mx/8.3.1/../../../../pic32mx/lib/fpu64\pic32_software_reset.o
 .data          0x0000000000000000        0x0 c:/program files/microchip/xc32/v4.00/bin/bin/../../lib/gcc/pic32mx/8.3.1/fpu64\libgcc.a(_udivdi3.o)
 .bss           0x0000000000000000        0x0 c:/program files/microchip/xc32/v4.00/bin/bin/../../lib/gcc/pic32mx/8.3.1/fpu64\libgcc.a(_udivdi3.o)
 .reginfo       0x0000000000000000       0x18 c:/program files/microchip/xc32/v4.00/bin/bin/../../lib/gcc/pic32mx/8.3.1/fpu64\libgcc.a(_udivdi3.o)
 .MIPS.abiflags
                0x0000000000000000       0x18 c:/program files/microchip/xc32/v4.00/bin/bin/../../lib/gcc/pic32mx/8.3.1/fpu64\libgcc.a(_udivdi3.o)
 .xc_stack_usage
                0x0000000000000000       0x17 c:/program files/microchip/xc32/v4.00/bin/bin/../../lib/gcc/pic32mx/8.3.1/fpu64\libgcc.a(_udivdi3.o)
 .xc_stack_usage.hdr
                0x0000000000000000        0xe c:/program files/microchip/xc32/v4.00/bin/bin/../../lib/gcc/pic32mx/8.3.1/fpu64\libgcc.a(_udivdi3.o)
 .data          0x0000000000000000        0x0 c:/program files/microchip/xc32/v4.00/bin/bin/../../lib/gcc/pic32mx/8.3.1/../../../../pic32mx/lib/fpu64\libpic32.a(memcmp.o)
 .bss           0x0000000000000000        0x0 c:/program files/microchip/xc32/v4.00/bin/bin/../../lib/gcc/pic32mx/8.3.1/../../../../pic32mx/lib/fpu64\libpic32.a(memcmp.o)
 .reginfo       0x0000000000000000       0x18 c:/program files/microchip/xc32/v4.00/bin/bin/../../lib/gcc/pic32mx/8.3.1/../../../../pic32mx/lib/fpu64\libpic32.a(memcmp.o)
 .MIPS.abiflags
                0x0000000000000000       0x18 c:/program files/microchip/xc32/v4.00/bin/bin/../../lib/gcc/pic32mx/8.3.1/../../../../pic32mx/lib/fpu64\libpic32.a(memcmp.o)
 .xc_stack_usage.hdr
                0x0000000000000000        0xe c:/program files/microchip/xc32/v4.00/bin/bin/../../lib/gcc/pic32mx/8.3.1/../../../../pic32mx/lib/fpu64\libpic32.a(memcmp.o)
 .xc_stack_usage
                0x0000000000000000       0x14 c:/program files/microchip/xc32/v4.00/bin/bin/../../lib/gcc/pic32mx/8.3.1/../../../../pic32mx/lib/fpu64\libpic32.a(memcmp.o)
 .data          0x0000000000000000        0x0 c:/program files/microchip/xc32/v4.00/bin/bin/../../lib/gcc/pic32mx/8.3.1/../../../../pic32mx/lib/fpu64\libpic32.a(memcpy.o)
 .bss           0x0000000000000000        0x0 c:/program files/microchip/xc32/v4.00/bin/bin/../../lib/gcc/pic32mx/8.3.1/../../../../pic32mx/lib/fpu64\libpic32.a(memcpy.o)
 .reginfo       0x0000000000000000       0x18 c:/program files/microchip/xc32/v4.00/bin/bin/../../lib/gcc/pic32mx/8.3.1/../../../../pic32mx/lib/fpu64\libpic32.a(memcpy.o)
 .MIPS.abiflags
                0x0000000000000000       0x18 c:/program files/microchip/xc32/v4.00/bin/bin/../../lib/gcc/pic32mx/8.3.1/../../../../pic32mx/lib/fpu64\libpic32.a(memcpy.o)
 .xc_stack_usage.hdr
                0x0000000000000000        0xe c:/program files/microchip/xc32/v4.00/bin/bin/../../lib/gcc/pic32mx/8.3.1/../../../../pic32mx/lib/fpu64\libpic32.a(memcpy.o)
 .xc_stack_usage
                0x0000000000000000       0x14 c:/program files/microchip/xc32/v4.00/bin/bin/../../lib/gcc/pic32mx/8.3.1/../../../../pic32mx/lib/fpu64\libpic32.a(memcpy.o)
 .data          0x0000000000000000        0x0 c:/program files/microchip/xc32/v4.00/bin/bin/../../lib/gcc/pic32mx/8.3.1/../../../../pic32mx/lib/fpu64\libpic32.a(memset.o)
 .bss           0x0000000000000000        0x0 c:/program files/microchip/xc32/v4.00/bin/bin/../../lib/gcc/pic32mx/8.3.1/../../../../pic32mx/lib/fpu64\libpic32.a(memset.o)
 .reginfo       0x0000000000000000       0x18 c:/program files/microchip/xc32/v4.00/bin/bin/../../lib/gcc/pic32mx/8.3.1/../../../../pic32mx/lib/fpu64\libpic32.a(memset.o)
 .MIPS.abiflags
                0x0000000000000000       0x18 c:/program files/microchip/xc32/v4.00/bin/bin/../../lib/gcc/pic32mx/8.3.1/../../../../pic32mx/lib/fpu64\libpic32.a(memset.o)
 .xc_stack_usage.hdr
                0x0000000000000000        0xe c:/program files/microchip/xc32/v4.00/bin/bin/../../lib/gcc/pic32mx/8.3.1/../../../../pic32mx/lib/fpu64\libpic32.a(memset.o)
 .xc_stack_usage
                0x0000000000000000       0x14 c:/program files/microchip/xc32/v4.00/bin/bin/../../lib/gcc/pic32mx/8.3.1/../../../../pic32mx/lib/fpu64\libpic32.a(memset.o)
 .text          0x0000000000000000      0x120 c:/program files/microchip/xc32/v4.00/bin/bin/../../lib/gcc/pic32mx/8.3.1/../../../../pic32mx/lib/fpu64\libpic32.a(strcmp.o)
 .data          0x0000000000000000        0x0 c:/program files/microchip/xc32/v4.00/bin/bin/../../lib/gcc/pic32mx/8.3.1/../../../../pic32mx/lib/fpu64\libpic32.a(strcmp.o)
 .bss           0x0000000000000000        0x0 c:/program files/microchip/xc32/v4.00/bin/bin/../../lib/gcc/pic32mx/8.3.1/../../../../pic32mx/lib/fpu64\libpic32.a(strcmp.o)
 .reginfo       0x0000000000000000       0x18 c:/program files/microchip/xc32/v4.00/bin/bin/../../lib/gcc/pic32mx/8.3.1/../../../../pic32mx/lib/fpu64\libpic32.a(strcmp.o)
 .MIPS.abiflags
                0x0000000000000000       0x18 c:/program files/microchip/xc32/v4.00/bin/bin/../../lib/gcc/pic32mx/8.3.1/../../../../pic32mx/lib/fpu64\libpic32.a(strcmp.o)
 .comment       0x0000000000000000       0x1a c:/program files/microchip/xc32/v4.00/bin/bin/../../lib/gcc/pic32mx/8.3.1/../../../../pic32mx/lib/fpu64\libpic32.a(strcmp.o)
 .xc_stack_usage.hdr
                0x0000000000000000        0xe c:/program files/microchip/xc32/v4.00/bin/bin/../../lib/gcc/pic32mx/8.3.1/../../../../pic32mx/lib/fpu64\libpic32.a(strcmp.o)
 .xc_stack_usage
                0x0000000000000000       0x14 c:/program files/microchip/xc32/v4.00/bin/bin/../../lib/gcc/pic32mx/8.3.1/../../../../pic32mx/lib/fpu64\libpic32.a(strcmp.o)
 .data          0x0000000000000000        0x0 c:/program files/microchip/xc32/v4.00/bin/bin/../../lib/gcc/pic32mx/8.3.1/../../../../pic32mx/lib/fpu64\libpic32.a(strcpy.o)
 .bss           0x0000000000000000        0x0 c:/program files/microchip/xc32/v4.00/bin/bin/../../lib/gcc/pic32mx/8.3.1/../../../../pic32mx/lib/fpu64\libpic32.a(strcpy.o)
 .reginfo       0x0000000000000000       0x18 c:/program files/microchip/xc32/v4.00/bin/bin/../../lib/gcc/pic32mx/8.3.1/../../../../pic32mx/lib/fpu64\libpic32.a(strcpy.o)
 .MIPS.abiflags
                0x0000000000000000       0x18 c:/program files/microchip/xc32/v4.00/bin/bin/../../lib/gcc/pic32mx/8.3.1/../../../../pic32mx/lib/fpu64\libpic32.a(strcpy.o)
 .xc_stack_usage.hdr
                0x0000000000000000        0xe c:/program files/microchip/xc32/v4.00/bin/bin/../../lib/gcc/pic32mx/8.3.1/../../../../pic32mx/lib/fpu64\libpic32.a(strcpy.o)
 .xc_stack_usage
                0x0000000000000000       0x14 c:/program files/microchip/xc32/v4.00/bin/bin/../../lib/gcc/pic32mx/8.3.1/../../../../pic32mx/lib/fpu64\libpic32.a(strcpy.o)
 .data          0x0000000000000000        0x0 c:/program files/microchip/xc32/v4.00/bin/bin/../../lib/gcc/pic32mx/8.3.1/../../../../pic32mx/lib/fpu64\libpic32.a(strlen.o)
 .bss           0x0000000000000000        0x0 c:/program files/microchip/xc32/v4.00/bin/bin/../../lib/gcc/pic32mx/8.3.1/../../../../pic32mx/lib/fpu64\libpic32.a(strlen.o)
 .reginfo       0x0000000000000000       0x18 c:/program files/microchip/xc32/v4.00/bin/bin/../../lib/gcc/pic32mx/8.3.1/../../../../pic32mx/lib/fpu64\libpic32.a(strlen.o)
 .MIPS.abiflags
                0x0000000000000000       0x18 c:/program files/microchip/xc32/v4.00/bin/bin/../../lib/gcc/pic32mx/8.3.1/../../../../pic32mx/lib/fpu64\libpic32.a(strlen.o)
 .xc_stack_usage.hdr
                0x0000000000000000        0xe c:/program files/microchip/xc32/v4.00/bin/bin/../../lib/gcc/pic32mx/8.3.1/../../../../pic32mx/lib/fpu64\libpic32.a(strlen.o)
 .xc_stack_usage
                0x0000000000000000       0x14 c:/program files/microchip/xc32/v4.00/bin/bin/../../lib/gcc/pic32mx/8.3.1/../../../../pic32mx/lib/fpu64\libpic32.a(strlen.o)
 .text          0x0000000000000000        0x0 c:/program files/microchip/xc32/v4.00/bin/bin/../../lib/gcc/pic32mx/8.3.1/../../../../pic32mx/lib/fpu64\libpic32.a(default-on-reset.o)
 .data          0x0000000000000000        0x0 c:/program files/microchip/xc32/v4.00/bin/bin/../../lib/gcc/pic32mx/8.3.1/../../../../pic32mx/lib/fpu64\libpic32.a(default-on-reset.o)
 .bss           0x0000000000000000        0x0 c:/program files/microchip/xc32/v4.00/bin/bin/../../lib/gcc/pic32mx/8.3.1/../../../../pic32mx/lib/fpu64\libpic32.a(default-on-reset.o)
 .reginfo       0x0000000000000000       0x18 c:/program files/microchip/xc32/v4.00/bin/bin/../../lib/gcc/pic32mx/8.3.1/../../../../pic32mx/lib/fpu64\libpic32.a(default-on-reset.o)
 .MIPS.abiflags
                0x0000000000000000       0x18 c:/program files/microchip/xc32/v4.00/bin/bin/../../lib/gcc/pic32mx/8.3.1/../../../../pic32mx/lib/fpu64\libpic32.a(default-on-reset.o)
 .xc_stack_usage
                0x0000000000000000       0x17 c:/program files/microchip/xc32/v4.00/bin/bin/../../lib/gcc/pic32mx/8.3.1/../../../../pic32mx/lib/fpu64\libpic32.a(default-on-reset.o)
 .xc_stack_usage.hdr
                0x0000000000000000        0xe c:/program files/microchip/xc32/v4.00/bin/bin/../../lib/gcc/pic32mx/8.3.1/../../../../pic32mx/lib/fpu64\libpic32.a(default-on-reset.o)
 .text          0x0000000000000000        0x0 c:/program files/microchip/xc32/v4.00/bin/bin/../../lib/gcc/pic32mx/8.3.1/../../../../pic32mx/lib/fpu64\libpic32.a(default-on-bootstrap.o)
 .data          0x0000000000000000        0x0 c:/program files/microchip/xc32/v4.00/bin/bin/../../lib/gcc/pic32mx/8.3.1/../../../../pic32mx/lib/fpu64\libpic32.a(default-on-bootstrap.o)
 .bss           0x0000000000000000        0x0 c:/program files/microchip/xc32/v4.00/bin/bin/../../lib/gcc/pic32mx/8.3.1/../../../../pic32mx/lib/fpu64\libpic32.a(default-on-bootstrap.o)
 .reginfo       0x0000000000000000       0x18 c:/program files/microchip/xc32/v4.00/bin/bin/../../lib/gcc/pic32mx/8.3.1/../../../../pic32mx/lib/fpu64\libpic32.a(default-on-bootstrap.o)
 .MIPS.abiflags
                0x0000000000000000       0x18 c:/program files/microchip/xc32/v4.00/bin/bin/../../lib/gcc/pic32mx/8.3.1/../../../../pic32mx/lib/fpu64\libpic32.a(default-on-bootstrap.o)
 .xc_stack_usage
                0x0000000000000000       0x1b c:/program files/microchip/xc32/v4.00/bin/bin/../../lib/gcc/pic32mx/8.3.1/../../../../pic32mx/lib/fpu64\libpic32.a(default-on-bootstrap.o)
 .xc_stack_usage.hdr
                0x0000000000000000        0xe c:/program files/microchip/xc32/v4.00/bin/bin/../../lib/gcc/pic32mx/8.3.1/../../../../pic32mx/lib/fpu64\libpic32.a(default-on-bootstrap.o)
 .data          0x0000000000000000        0x0 c:/program files/microchip/xc32/v4.00/bin/bin/../../lib/gcc/pic32mx/8.3.1/../../../../pic32mx/lib/fpu64\libpic32.a(default-nmi-handler.o)
 .bss           0x0000000000000000        0x0 c:/program files/microchip/xc32/v4.00/bin/bin/../../lib/gcc/pic32mx/8.3.1/../../../../pic32mx/lib/fpu64\libpic32.a(default-nmi-handler.o)
 .reginfo       0x0000000000000000       0x18 c:/program files/microchip/xc32/v4.00/bin/bin/../../lib/gcc/pic32mx/8.3.1/../../../../pic32mx/lib/fpu64\libpic32.a(default-nmi-handler.o)
 .MIPS.abiflags
                0x0000000000000000       0x18 c:/program files/microchip/xc32/v4.00/bin/bin/../../lib/gcc/pic32mx/8.3.1/../../../../pic32mx/lib/fpu64\libpic32.a(default-nmi-handler.o)
 .xc_stack_usage.hdr
                0x0000000000000000        0xe c:/program files/microchip/xc32/v4.00/bin/bin/../../lib/gcc/pic32mx/8.3.1/../../../../pic32mx/lib/fpu64\libpic32.a(default-nmi-handler.o)
 .xc_stack_usage
                0x0000000000000000       0x1a c:/program files/microchip/xc32/v4.00/bin/bin/../../lib/gcc/pic32mx/8.3.1/../../../../pic32mx/lib/fpu64\libpic32.a(default-nmi-handler.o)
 .data          0x0000000000000000        0x0 c:/program files/microchip/xc32/v4.00/bin/bin/../../lib/gcc/pic32mx/8.3.1/../../../../pic32mx/lib/fpu64\libpic32.a(pic32_data_init.o)
 .bss           0x0000000000000000        0x0 c:/program files/microchip/xc32/v4.00/bin/bin/../../lib/gcc/pic32mx/8.3.1/../../../../pic32mx/lib/fpu64\libpic32.a(pic32_data_init.o)
 .reginfo       0x0000000000000000       0x18 c:/program files/microchip/xc32/v4.00/bin/bin/../../lib/gcc/pic32mx/8.3.1/../../../../pic32mx/lib/fpu64\libpic32.a(pic32_data_init.o)
 .MIPS.abiflags
                0x0000000000000000       0x18 c:/program files/microchip/xc32/v4.00/bin/bin/../../lib/gcc/pic32mx/8.3.1/../../../../pic32mx/lib/fpu64\libpic32.a(pic32_data_init.o)
 .xc_stack_usage.hdr
                0x0000000000000000        0xe c:/program files/microchip/xc32/v4.00/bin/bin/../../lib/gcc/pic32mx/8.3.1/../../../../pic32mx/lib/fpu64\libpic32.a(pic32_data_init.o)
 .xc_stack_usage
                0x0000000000000000       0x1f c:/program files/microchip/xc32/v4.00/bin/bin/../../lib/gcc/pic32mx/8.3.1/../../../../pic32mx/lib/fpu64\libpic32.a(pic32_data_init.o)
 .text          0x0000000000000000        0x0 c:/program files/microchip/xc32/v4.00/bin/bin/../../lib/gcc/pic32mx/8.3.1/../../../../pic32mx/lib/fpu64\libpic32.a(pic32_init_cache.o)
 .data          0x0000000000000000        0x0 c:/program files/microchip/xc32/v4.00/bin/bin/../../lib/gcc/pic32mx/8.3.1/../../../../pic32mx/lib/fpu64\libpic32.a(pic32_init_cache.o)
 .bss           0x0000000000000000        0x0 c:/program files/microchip/xc32/v4.00/bin/bin/../../lib/gcc/pic32mx/8.3.1/../../../../pic32mx/lib/fpu64\libpic32.a(pic32_init_cache.o)
 .reginfo       0x0000000000000000       0x18 c:/program files/microchip/xc32/v4.00/bin/bin/../../lib/gcc/pic32mx/8.3.1/../../../../pic32mx/lib/fpu64\libpic32.a(pic32_init_cache.o)
 .MIPS.abiflags
                0x0000000000000000       0x18 c:/program files/microchip/xc32/v4.00/bin/bin/../../lib/gcc/pic32mx/8.3.1/../../../../pic32mx/lib/fpu64\libpic32.a(pic32_init_cache.o)
 .cache_init.pic32_size_cache
                0x0000000000000000       0x58 c:/program files/microchip/xc32/v4.00/bin/bin/../../lib/gcc/pic32mx/8.3.1/../../../../pic32mx/lib/fpu64\libpic32.a(pic32_init_cache.o)
 .xc_stack_usage.hdr
                0x0000000000000000        0xe c:/program files/microchip/xc32/v4.00/bin/bin/../../lib/gcc/pic32mx/8.3.1/../../../../pic32mx/lib/fpu64\libpic32.a(pic32_init_cache.o)
 .xc_stack_usage
                0x0000000000000000       0x5a c:/program files/microchip/xc32/v4.00/bin/bin/../../lib/gcc/pic32mx/8.3.1/../../../../pic32mx/lib/fpu64\libpic32.a(pic32_init_cache.o)
 .text          0x0000000000000000        0x0 c:/program files/microchip/xc32/v4.00/bin/bin/../../lib/gcc/pic32mx/8.3.1/../../../../pic32mx/lib/fpu64\libpic32.a(pic32_init_tlb_ebi_sqi.o)
 .data          0x0000000000000000        0x0 c:/program files/microchip/xc32/v4.00/bin/bin/../../lib/gcc/pic32mx/8.3.1/../../../../pic32mx/lib/fpu64\libpic32.a(pic32_init_tlb_ebi_sqi.o)
 .bss           0x0000000000000000        0x0 c:/program files/microchip/xc32/v4.00/bin/bin/../../lib/gcc/pic32mx/8.3.1/../../../../pic32mx/lib/fpu64\libpic32.a(pic32_init_tlb_ebi_sqi.o)
 .reginfo       0x0000000000000000       0x18 c:/program files/microchip/xc32/v4.00/bin/bin/../../lib/gcc/pic32mx/8.3.1/../../../../pic32mx/lib/fpu64\libpic32.a(pic32_init_tlb_ebi_sqi.o)
 .MIPS.abiflags
                0x0000000000000000       0x18 c:/program files/microchip/xc32/v4.00/bin/bin/../../lib/gcc/pic32mx/8.3.1/../../../../pic32mx/lib/fpu64\libpic32.a(pic32_init_tlb_ebi_sqi.o)
 .xc_stack_usage.hdr
                0x0000000000000000        0xe c:/program files/microchip/xc32/v4.00/bin/bin/../../lib/gcc/pic32mx/8.3.1/../../../../pic32mx/lib/fpu64\libpic32.a(pic32_init_tlb_ebi_sqi.o)
 .xc_stack_usage
                0x0000000000000000       0x26 c:/program files/microchip/xc32/v4.00/bin/bin/../../lib/gcc/pic32mx/8.3.1/../../../../pic32mx/lib/fpu64\libpic32.a(pic32_init_tlb_ebi_sqi.o)
 .text          0x0000000000000000        0x0 c:/program files/microchip/xc32/v4.00/bin/bin/../../lib/gcc/pic32mx/8.3.1/../../../../pic32mx/lib/fpu64\libpic32.a(general-exception.o)
 .data          0x0000000000000000        0x0 c:/program files/microchip/xc32/v4.00/bin/bin/../../lib/gcc/pic32mx/8.3.1/../../../../pic32mx/lib/fpu64\libpic32.a(general-exception.o)
 .bss           0x0000000000000000        0x0 c:/program files/microchip/xc32/v4.00/bin/bin/../../lib/gcc/pic32mx/8.3.1/../../../../pic32mx/lib/fpu64\libpic32.a(general-exception.o)
 .reginfo       0x0000000000000000       0x18 c:/program files/microchip/xc32/v4.00/bin/bin/../../lib/gcc/pic32mx/8.3.1/../../../../pic32mx/lib/fpu64\libpic32.a(general-exception.o)
 .MIPS.abiflags
                0x0000000000000000       0x18 c:/program files/microchip/xc32/v4.00/bin/bin/../../lib/gcc/pic32mx/8.3.1/../../../../pic32mx/lib/fpu64\libpic32.a(general-exception.o)
 .xc_stack_usage.hdr
                0x0000000000000000        0xe c:/program files/microchip/xc32/v4.00/bin/bin/../../lib/gcc/pic32mx/8.3.1/../../../../pic32mx/lib/fpu64\libpic32.a(general-exception.o)
 .xc_stack_usage
                0x0000000000000000       0x28 c:/program files/microchip/xc32/v4.00/bin/bin/../../lib/gcc/pic32mx/8.3.1/../../../../pic32mx/lib/fpu64\libpic32.a(general-exception.o)
 .text          0x0000000000000000        0x0 c:/program files/microchip/xc32/v4.00/bin/bin/../../lib/gcc/pic32mx/8.3.1/../../../../pic32mx/lib/fpu64\libpic32.a(cache-err-exception.o)
 .data          0x0000000000000000        0x0 c:/program files/microchip/xc32/v4.00/bin/bin/../../lib/gcc/pic32mx/8.3.1/../../../../pic32mx/lib/fpu64\libpic32.a(cache-err-exception.o)
 .bss           0x0000000000000000        0x0 c:/program files/microchip/xc32/v4.00/bin/bin/../../lib/gcc/pic32mx/8.3.1/../../../../pic32mx/lib/fpu64\libpic32.a(cache-err-exception.o)
 .reginfo       0x0000000000000000       0x18 c:/program files/microchip/xc32/v4.00/bin/bin/../../lib/gcc/pic32mx/8.3.1/../../../../pic32mx/lib/fpu64\libpic32.a(cache-err-exception.o)
 .MIPS.abiflags
                0x0000000000000000       0x18 c:/program files/microchip/xc32/v4.00/bin/bin/../../lib/gcc/pic32mx/8.3.1/../../../../pic32mx/lib/fpu64\libpic32.a(cache-err-exception.o)
 .xc_stack_usage.hdr
                0x0000000000000000        0xe c:/program files/microchip/xc32/v4.00/bin/bin/../../lib/gcc/pic32mx/8.3.1/../../../../pic32mx/lib/fpu64\libpic32.a(cache-err-exception.o)
 .xc_stack_usage
                0x0000000000000000       0x2a c:/program files/microchip/xc32/v4.00/bin/bin/../../lib/gcc/pic32mx/8.3.1/../../../../pic32mx/lib/fpu64\libpic32.a(cache-err-exception.o)
 .text          0x0000000000000000        0x0 c:/program files/microchip/xc32/v4.00/bin/bin/../../lib/gcc/pic32mx/8.3.1/../../../../pic32mx/lib/fpu64\libpic32.a(simple-tlb-refill-exception.o)
 .data          0x0000000000000000        0x0 c:/program files/microchip/xc32/v4.00/bin/bin/../../lib/gcc/pic32mx/8.3.1/../../../../pic32mx/lib/fpu64\libpic32.a(simple-tlb-refill-exception.o)
 .bss           0x0000000000000000        0x0 c:/program files/microchip/xc32/v4.00/bin/bin/../../lib/gcc/pic32mx/8.3.1/../../../../pic32mx/lib/fpu64\libpic32.a(simple-tlb-refill-exception.o)
 .reginfo       0x0000000000000000       0x18 c:/program files/microchip/xc32/v4.00/bin/bin/../../lib/gcc/pic32mx/8.3.1/../../../../pic32mx/lib/fpu64\libpic32.a(simple-tlb-refill-exception.o)
 .MIPS.abiflags
                0x0000000000000000       0x18 c:/program files/microchip/xc32/v4.00/bin/bin/../../lib/gcc/pic32mx/8.3.1/../../../../pic32mx/lib/fpu64\libpic32.a(simple-tlb-refill-exception.o)
 .xc_stack_usage.hdr
                0x0000000000000000        0xe c:/program files/microchip/xc32/v4.00/bin/bin/../../lib/gcc/pic32mx/8.3.1/../../../../pic32mx/lib/fpu64\libpic32.a(simple-tlb-refill-exception.o)
 .xc_stack_usage
                0x0000000000000000       0x32 c:/program files/microchip/xc32/v4.00/bin/bin/../../lib/gcc/pic32mx/8.3.1/../../../../pic32mx/lib/fpu64\libpic32.a(simple-tlb-refill-exception.o)
 .text          0x0000000000000000        0x0 c:/program files/microchip/xc32/v4.00/bin/bin/../../lib/gcc/pic32mx/8.3.1/../../../../pic32mx/lib/fpu64\libpic32.a(defaultinterrupt.o)
 .data          0x0000000000000000        0x0 c:/program files/microchip/xc32/v4.00/bin/bin/../../lib/gcc/pic32mx/8.3.1/../../../../pic32mx/lib/fpu64\libpic32.a(defaultinterrupt.o)
 .bss           0x0000000000000000        0x0 c:/program files/microchip/xc32/v4.00/bin/bin/../../lib/gcc/pic32mx/8.3.1/../../../../pic32mx/lib/fpu64\libpic32.a(defaultinterrupt.o)
 .reginfo       0x0000000000000000       0x18 c:/program files/microchip/xc32/v4.00/bin/bin/../../lib/gcc/pic32mx/8.3.1/../../../../pic32mx/lib/fpu64\libpic32.a(defaultinterrupt.o)
 .MIPS.abiflags
                0x0000000000000000       0x18 c:/program files/microchip/xc32/v4.00/bin/bin/../../lib/gcc/pic32mx/8.3.1/../../../../pic32mx/lib/fpu64\libpic32.a(defaultinterrupt.o)
 .xc_stack_usage
                0x0000000000000000       0x1f c:/program files/microchip/xc32/v4.00/bin/bin/../../lib/gcc/pic32mx/8.3.1/../../../../pic32mx/lib/fpu64\libpic32.a(defaultinterrupt.o)
 .xc_stack_usage.hdr
                0x0000000000000000        0xe c:/program files/microchip/xc32/v4.00/bin/bin/../../lib/gcc/pic32mx/8.3.1/../../../../pic32mx/lib/fpu64\libpic32.a(defaultinterrupt.o)
 .text          0x0000000000000000        0x0 c:/program files/microchip/xc32/v4.00/bin/bin/../../lib/gcc/pic32mx/8.3.1/../../../../pic32mx/lib/fpu64\libc-musl.a(__sio_sprintf_dosux.o)
 .data          0x0000000000000000        0x0 c:/program files/microchip/xc32/v4.00/bin/bin/../../lib/gcc/pic32mx/8.3.1/../../../../pic32mx/lib/fpu64\libc-musl.a(__sio_sprintf_dosux.o)
 .bss           0x0000000000000000        0x0 c:/program files/microchip/xc32/v4.00/bin/bin/../../lib/gcc/pic32mx/8.3.1/../../../../pic32mx/lib/fpu64\libc-musl.a(__sio_sprintf_dosux.o)
 .reginfo       0x0000000000000000       0x18 c:/program files/microchip/xc32/v4.00/bin/bin/../../lib/gcc/pic32mx/8.3.1/../../../../pic32mx/lib/fpu64\libc-musl.a(__sio_sprintf_dosux.o)
 .MIPS.abiflags
                0x0000000000000000       0x18 c:/program files/microchip/xc32/v4.00/bin/bin/../../lib/gcc/pic32mx/8.3.1/../../../../pic32mx/lib/fpu64\libc-musl.a(__sio_sprintf_dosux.o)
 .xc_stack_usage
                0x0000000000000000       0x3d c:/program files/microchip/xc32/v4.00/bin/bin/../../lib/gcc/pic32mx/8.3.1/../../../../pic32mx/lib/fpu64\libc-musl.a(__sio_sprintf_dosux.o)
 .text.__sio_sprintf_dosux
                0x0000000000000000       0x3c c:/program files/microchip/xc32/v4.00/bin/bin/../../lib/gcc/pic32mx/8.3.1/../../../../pic32mx/lib/fpu64\libc-musl.a(__sio_sprintf_dosux.o)
 .xc_stack_usage.hdr
                0x0000000000000000        0xe c:/program files/microchip/xc32/v4.00/bin/bin/../../lib/gcc/pic32mx/8.3.1/../../../../pic32mx/lib/fpu64\libc-musl.a(__sio_sprintf_dosux.o)
 .note.GNU-stack
                0x0000000000000000        0x0 c:/program files/microchip/xc32/v4.00/bin/bin/../../lib/gcc/pic32mx/8.3.1/../../../../pic32mx/lib/fpu64\libc-musl.a(__sio_sprintf_dosux.o)
 .text          0x0000000000000000        0x0 c:/program files/microchip/xc32/v4.00/bin/bin/../../lib/gcc/pic32mx/8.3.1/../../../../pic32mx/lib/fpu64\libc-musl.a(__fmt_d.o)
 .data          0x0000000000000000        0x0 c:/program files/microchip/xc32/v4.00/bin/bin/../../lib/gcc/pic32mx/8.3.1/../../../../pic32mx/lib/fpu64\libc-musl.a(__fmt_d.o)
 .bss           0x0000000000000000        0x0 c:/program files/microchip/xc32/v4.00/bin/bin/../../lib/gcc/pic32mx/8.3.1/../../../../pic32mx/lib/fpu64\libc-musl.a(__fmt_d.o)
 .reginfo       0x0000000000000000       0x18 c:/program files/microchip/xc32/v4.00/bin/bin/../../lib/gcc/pic32mx/8.3.1/../../../../pic32mx/lib/fpu64\libc-musl.a(__fmt_d.o)
 .MIPS.abiflags
                0x0000000000000000       0x18 c:/program files/microchip/xc32/v4.00/bin/bin/../../lib/gcc/pic32mx/8.3.1/../../../../pic32mx/lib/fpu64\libc-musl.a(__fmt_d.o)
 .xc_stack_usage
                0x0000000000000000       0x15 c:/program files/microchip/xc32/v4.00/bin/bin/../../lib/gcc/pic32mx/8.3.1/../../../../pic32mx/lib/fpu64\libc-musl.a(__fmt_d.o)
 .xc_stack_usage.hdr
                0x0000000000000000        0xe c:/program files/microchip/xc32/v4.00/bin/bin/../../lib/gcc/pic32mx/8.3.1/../../../../pic32mx/lib/fpu64\libc-musl.a(__fmt_d.o)
 .note.GNU-stack
                0x0000000000000000        0x0 c:/program files/microchip/xc32/v4.00/bin/bin/../../lib/gcc/pic32mx/8.3.1/../../../../pic32mx/lib/fpu64\libc-musl.a(__fmt_d.o)
 .text          0x0000000000000000        0x0 c:/program files/microchip/xc32/v4.00/bin/bin/../../lib/gcc/pic32mx/8.3.1/../../../../pic32mx/lib/fpu64\libc-musl.a(__fmt_o.o)
 .data          0x0000000000000000        0x0 c:/program files/microchip/xc32/v4.00/bin/bin/../../lib/gcc/pic32mx/8.3.1/../../../../pic32mx/lib/fpu64\libc-musl.a(__fmt_o.o)
 .bss           0x0000000000000000        0x0 c:/program files/microchip/xc32/v4.00/bin/bin/../../lib/gcc/pic32mx/8.3.1/../../../../pic32mx/lib/fpu64\libc-musl.a(__fmt_o.o)
 .reginfo       0x0000000000000000       0x18 c:/program files/microchip/xc32/v4.00/bin/bin/../../lib/gcc/pic32mx/8.3.1/../../../../pic32mx/lib/fpu64\libc-musl.a(__fmt_o.o)
 .MIPS.abiflags
                0x0000000000000000       0x18 c:/program files/microchip/xc32/v4.00/bin/bin/../../lib/gcc/pic32mx/8.3.1/../../../../pic32mx/lib/fpu64\libc-musl.a(__fmt_o.o)
 .xc_stack_usage
                0x0000000000000000       0x15 c:/program files/microchip/xc32/v4.00/bin/bin/../../lib/gcc/pic32mx/8.3.1/../../../../pic32mx/lib/fpu64\libc-musl.a(__fmt_o.o)
 .xc_stack_usage.hdr
                0x0000000000000000        0xe c:/program files/microchip/xc32/v4.00/bin/bin/../../lib/gcc/pic32mx/8.3.1/../../../../pic32mx/lib/fpu64\libc-musl.a(__fmt_o.o)
 .note.GNU-stack
                0x0000000000000000        0x0 c:/program files/microchip/xc32/v4.00/bin/bin/../../lib/gcc/pic32mx/8.3.1/../../../../pic32mx/lib/fpu64\libc-musl.a(__fmt_o.o)
 .text          0x0000000000000000        0x0 c:/program files/microchip/xc32/v4.00/bin/bin/../../lib/gcc/pic32mx/8.3.1/../../../../pic32mx/lib/fpu64\libc-musl.a(__fmt_s.o)
 .data          0x0000000000000000        0x0 c:/program files/microchip/xc32/v4.00/bin/bin/../../lib/gcc/pic32mx/8.3.1/../../../../pic32mx/lib/fpu64\libc-musl.a(__fmt_s.o)
 .bss           0x0000000000000000        0x0 c:/program files/microchip/xc32/v4.00/bin/bin/../../lib/gcc/pic32mx/8.3.1/../../../../pic32mx/lib/fpu64\libc-musl.a(__fmt_s.o)
 .reginfo       0x0000000000000000       0x18 c:/program files/microchip/xc32/v4.00/bin/bin/../../lib/gcc/pic32mx/8.3.1/../../../../pic32mx/lib/fpu64\libc-musl.a(__fmt_s.o)
 .MIPS.abiflags
                0x0000000000000000       0x18 c:/program files/microchip/xc32/v4.00/bin/bin/../../lib/gcc/pic32mx/8.3.1/../../../../pic32mx/lib/fpu64\libc-musl.a(__fmt_s.o)
 .xc_stack_usage
                0x0000000000000000       0x15 c:/program files/microchip/xc32/v4.00/bin/bin/../../lib/gcc/pic32mx/8.3.1/../../../../pic32mx/lib/fpu64\libc-musl.a(__fmt_s.o)
 .xc_stack_usage.hdr
                0x0000000000000000        0xe c:/program files/microchip/xc32/v4.00/bin/bin/../../lib/gcc/pic32mx/8.3.1/../../../../pic32mx/lib/fpu64\libc-musl.a(__fmt_s.o)
 .note.GNU-stack
                0x0000000000000000        0x0 c:/program files/microchip/xc32/v4.00/bin/bin/../../lib/gcc/pic32mx/8.3.1/../../../../pic32mx/lib/fpu64\libc-musl.a(__fmt_s.o)
 .text          0x0000000000000000        0x0 c:/program files/microchip/xc32/v4.00/bin/bin/../../lib/gcc/pic32mx/8.3.1/../../../../pic32mx/lib/fpu64\libc-musl.a(__fmt_u.o)
 .data          0x0000000000000000        0x0 c:/program files/microchip/xc32/v4.00/bin/bin/../../lib/gcc/pic32mx/8.3.1/../../../../pic32mx/lib/fpu64\libc-musl.a(__fmt_u.o)
 .bss           0x0000000000000000        0x0 c:/program files/microchip/xc32/v4.00/bin/bin/../../lib/gcc/pic32mx/8.3.1/../../../../pic32mx/lib/fpu64\libc-musl.a(__fmt_u.o)
 .reginfo       0x0000000000000000       0x18 c:/program files/microchip/xc32/v4.00/bin/bin/../../lib/gcc/pic32mx/8.3.1/../../../../pic32mx/lib/fpu64\libc-musl.a(__fmt_u.o)
 .MIPS.abiflags
                0x0000000000000000       0x18 c:/program files/microchip/xc32/v4.00/bin/bin/../../lib/gcc/pic32mx/8.3.1/../../../../pic32mx/lib/fpu64\libc-musl.a(__fmt_u.o)
 .xc_stack_usage
                0x0000000000000000       0x2a c:/program files/microchip/xc32/v4.00/bin/bin/../../lib/gcc/pic32mx/8.3.1/../../../../pic32mx/lib/fpu64\libc-musl.a(__fmt_u.o)
 .xc_stack_usage.hdr
                0x0000000000000000        0xe c:/program files/microchip/xc32/v4.00/bin/bin/../../lib/gcc/pic32mx/8.3.1/../../../../pic32mx/lib/fpu64\libc-musl.a(__fmt_u.o)
 .note.GNU-stack
                0x0000000000000000        0x0 c:/program files/microchip/xc32/v4.00/bin/bin/../../lib/gcc/pic32mx/8.3.1/../../../../pic32mx/lib/fpu64\libc-musl.a(__fmt_u.o)
 .text          0x0000000000000000        0x0 c:/program files/microchip/xc32/v4.00/bin/bin/../../lib/gcc/pic32mx/8.3.1/../../../../pic32mx/lib/fpu64\libc-musl.a(__fmt_x.o)
 .data          0x0000000000000000        0x0 c:/program files/microchip/xc32/v4.00/bin/bin/../../lib/gcc/pic32mx/8.3.1/../../../../pic32mx/lib/fpu64\libc-musl.a(__fmt_x.o)
 .bss           0x0000000000000000        0x0 c:/program files/microchip/xc32/v4.00/bin/bin/../../lib/gcc/pic32mx/8.3.1/../../../../pic32mx/lib/fpu64\libc-musl.a(__fmt_x.o)
 .reginfo       0x0000000000000000       0x18 c:/program files/microchip/xc32/v4.00/bin/bin/../../lib/gcc/pic32mx/8.3.1/../../../../pic32mx/lib/fpu64\libc-musl.a(__fmt_x.o)
 .MIPS.abiflags
                0x0000000000000000       0x18 c:/program files/microchip/xc32/v4.00/bin/bin/../../lib/gcc/pic32mx/8.3.1/../../../../pic32mx/lib/fpu64\libc-musl.a(__fmt_x.o)
 .xc_stack_usage
                0x0000000000000000       0x15 c:/program files/microchip/xc32/v4.00/bin/bin/../../lib/gcc/pic32mx/8.3.1/../../../../pic32mx/lib/fpu64\libc-musl.a(__fmt_x.o)
 .xc_stack_usage.hdr
                0x0000000000000000        0xe c:/program files/microchip/xc32/v4.00/bin/bin/../../lib/gcc/pic32mx/8.3.1/../../../../pic32mx/lib/fpu64\libc-musl.a(__fmt_x.o)
 .note.GNU-stack
                0x0000000000000000        0x0 c:/program files/microchip/xc32/v4.00/bin/bin/../../lib/gcc/pic32mx/8.3.1/../../../../pic32mx/lib/fpu64\libc-musl.a(__fmt_x.o)
 .text          0x0000000000000000        0x0 c:/program files/microchip/xc32/v4.00/bin/bin/../../lib/gcc/pic32mx/8.3.1/../../../../pic32mx/lib/fpu64\libc-musl.a(__printf_core.o)
 .data          0x0000000000000000        0x0 c:/program files/microchip/xc32/v4.00/bin/bin/../../lib/gcc/pic32mx/8.3.1/../../../../pic32mx/lib/fpu64\libc-musl.a(__printf_core.o)
 .bss           0x0000000000000000        0x0 c:/program files/microchip/xc32/v4.00/bin/bin/../../lib/gcc/pic32mx/8.3.1/../../../../pic32mx/lib/fpu64\libc-musl.a(__printf_core.o)
 .reginfo       0x0000000000000000       0x18 c:/program files/microchip/xc32/v4.00/bin/bin/../../lib/gcc/pic32mx/8.3.1/../../../../pic32mx/lib/fpu64\libc-musl.a(__printf_core.o)
 .MIPS.abiflags
                0x0000000000000000       0x18 c:/program files/microchip/xc32/v4.00/bin/bin/../../lib/gcc/pic32mx/8.3.1/../../../../pic32mx/lib/fpu64\libc-musl.a(__printf_core.o)
 .xc_stack_usage
                0x0000000000000000       0xaf c:/program files/microchip/xc32/v4.00/bin/bin/../../lib/gcc/pic32mx/8.3.1/../../../../pic32mx/lib/fpu64\libc-musl.a(__printf_core.o)
 .text.__string_out
                0x0000000000000000       0x5c c:/program files/microchip/xc32/v4.00/bin/bin/../../lib/gcc/pic32mx/8.3.1/../../../../pic32mx/lib/fpu64\libc-musl.a(__printf_core.o)
 .text.__dummy_fmt3
                0x0000000000000000        0x8 c:/program files/microchip/xc32/v4.00/bin/bin/../../lib/gcc/pic32mx/8.3.1/../../../../pic32mx/lib/fpu64\libc-musl.a(__printf_core.o)
 .text.__dummy_fmts
                0x0000000000000000        0x8 c:/program files/microchip/xc32/v4.00/bin/bin/../../lib/gcc/pic32mx/8.3.1/../../../../pic32mx/lib/fpu64\libc-musl.a(__printf_core.o)
 .xc_stack_usage.hdr
                0x0000000000000000        0xe c:/program files/microchip/xc32/v4.00/bin/bin/../../lib/gcc/pic32mx/8.3.1/../../../../pic32mx/lib/fpu64\libc-musl.a(__printf_core.o)
 .note.GNU-stack
                0x0000000000000000        0x0 c:/program files/microchip/xc32/v4.00/bin/bin/../../lib/gcc/pic32mx/8.3.1/../../../../pic32mx/lib/fpu64\libc-musl.a(__printf_core.o)
 .text          0x0000000000000000        0x0 c:/program files/microchip/xc32/v4.00/bin/bin/../../lib/gcc/pic32mx/8.3.1/../../../../pic32mx/lib/fpu64\libc-musl.a(stdin.o)
 .reginfo       0x0000000000000000       0x18 c:/program files/microchip/xc32/v4.00/bin/bin/../../lib/gcc/pic32mx/8.3.1/../../../../pic32mx/lib/fpu64\libc-musl.a(stdin.o)
 .MIPS.abiflags
                0x0000000000000000       0x18 c:/program files/microchip/xc32/v4.00/bin/bin/../../lib/gcc/pic32mx/8.3.1/../../../../pic32mx/lib/fpu64\libc-musl.a(stdin.o)
 .xc_stack_usage
                0x0000000000000000       0x33 c:/program files/microchip/xc32/v4.00/bin/bin/../../lib/gcc/pic32mx/8.3.1/../../../../pic32mx/lib/fpu64\libc-musl.a(stdin.o)
 __xc_reference_data
                0x0000000000000000       0x24 c:/program files/microchip/xc32/v4.00/bin/bin/../../lib/gcc/pic32mx/8.3.1/../../../../pic32mx/lib/fpu64\libc-musl.a(stdin.o)
 .xc_stack_usage.hdr
                0x0000000000000000        0xe c:/program files/microchip/xc32/v4.00/bin/bin/../../lib/gcc/pic32mx/8.3.1/../../../../pic32mx/lib/fpu64\libc-musl.a(stdin.o)
 .note.GNU-stack
                0x0000000000000000        0x0 c:/program files/microchip/xc32/v4.00/bin/bin/../../lib/gcc/pic32mx/8.3.1/../../../../pic32mx/lib/fpu64\libc-musl.a(stdin.o)
 .text          0x0000000000000000        0x0 c:/program files/microchip/xc32/v4.00/bin/bin/../../lib/gcc/pic32mx/8.3.1/../../../../pic32mx/lib/fpu64\libc-musl.a(stdout.o)
 .bss           0x0000000000000000        0x0 c:/program files/microchip/xc32/v4.00/bin/bin/../../lib/gcc/pic32mx/8.3.1/../../../../pic32mx/lib/fpu64\libc-musl.a(stdout.o)
 .reginfo       0x0000000000000000       0x18 c:/program files/microchip/xc32/v4.00/bin/bin/../../lib/gcc/pic32mx/8.3.1/../../../../pic32mx/lib/fpu64\libc-musl.a(stdout.o)
 .MIPS.abiflags
                0x0000000000000000       0x18 c:/program files/microchip/xc32/v4.00/bin/bin/../../lib/gcc/pic32mx/8.3.1/../../../../pic32mx/lib/fpu64\libc-musl.a(stdout.o)
 .xc_stack_usage
                0x0000000000000000       0x3c c:/program files/microchip/xc32/v4.00/bin/bin/../../lib/gcc/pic32mx/8.3.1/../../../../pic32mx/lib/fpu64\libc-musl.a(stdout.o)
 .text.__init_stdout
                0x0000000000000000       0x20 c:/program files/microchip/xc32/v4.00/bin/bin/../../lib/gcc/pic32mx/8.3.1/../../../../pic32mx/lib/fpu64\libc-musl.a(stdout.o)
 __xc_reference_data
                0x0000000000000000       0x24 c:/program files/microchip/xc32/v4.00/bin/bin/../../lib/gcc/pic32mx/8.3.1/../../../../pic32mx/lib/fpu64\libc-musl.a(stdout.o)
 .xc_stack_usage.hdr
                0x0000000000000000        0xe c:/program files/microchip/xc32/v4.00/bin/bin/../../lib/gcc/pic32mx/8.3.1/../../../../pic32mx/lib/fpu64\libc-musl.a(stdout.o)
 .note.GNU-stack
                0x0000000000000000        0x0 c:/program files/microchip/xc32/v4.00/bin/bin/../../lib/gcc/pic32mx/8.3.1/../../../../pic32mx/lib/fpu64\libc-musl.a(stdout.o)
 .text          0x0000000000000000        0x0 c:/program files/microchip/xc32/v4.00/bin/bin/../../lib/gcc/pic32mx/8.3.1/../../../../pic32mx/lib/fpu64\libc-musl.a(setbuf.o)
 .data          0x0000000000000000        0x0 c:/program files/microchip/xc32/v4.00/bin/bin/../../lib/gcc/pic32mx/8.3.1/../../../../pic32mx/lib/fpu64\libc-musl.a(setbuf.o)
 .bss           0x0000000000000000        0x0 c:/program files/microchip/xc32/v4.00/bin/bin/../../lib/gcc/pic32mx/8.3.1/../../../../pic32mx/lib/fpu64\libc-musl.a(setbuf.o)
 .reginfo       0x0000000000000000       0x18 c:/program files/microchip/xc32/v4.00/bin/bin/../../lib/gcc/pic32mx/8.3.1/../../../../pic32mx/lib/fpu64\libc-musl.a(setbuf.o)
 .MIPS.abiflags
                0x0000000000000000       0x18 c:/program files/microchip/xc32/v4.00/bin/bin/../../lib/gcc/pic32mx/8.3.1/../../../../pic32mx/lib/fpu64\libc-musl.a(setbuf.o)
 .xc_stack_usage
                0x0000000000000000       0x14 c:/program files/microchip/xc32/v4.00/bin/bin/../../lib/gcc/pic32mx/8.3.1/../../../../pic32mx/lib/fpu64\libc-musl.a(setbuf.o)
 .xc_stack_usage.hdr
                0x0000000000000000        0xe c:/program files/microchip/xc32/v4.00/bin/bin/../../lib/gcc/pic32mx/8.3.1/../../../../pic32mx/lib/fpu64\libc-musl.a(setbuf.o)
 .note.GNU-stack
                0x0000000000000000        0x0 c:/program files/microchip/xc32/v4.00/bin/bin/../../lib/gcc/pic32mx/8.3.1/../../../../pic32mx/lib/fpu64\libc-musl.a(setbuf.o)
 .text          0x0000000000000000        0x0 c:/program files/microchip/xc32/v4.00/bin/bin/../../lib/gcc/pic32mx/8.3.1/../../../../pic32mx/lib/fpu64\libc-musl.a(atoi.o)
 .data          0x0000000000000000        0x0 c:/program files/microchip/xc32/v4.00/bin/bin/../../lib/gcc/pic32mx/8.3.1/../../../../pic32mx/lib/fpu64\libc-musl.a(atoi.o)
 .bss           0x0000000000000000        0x0 c:/program files/microchip/xc32/v4.00/bin/bin/../../lib/gcc/pic32mx/8.3.1/../../../../pic32mx/lib/fpu64\libc-musl.a(atoi.o)
 .reginfo       0x0000000000000000       0x18 c:/program files/microchip/xc32/v4.00/bin/bin/../../lib/gcc/pic32mx/8.3.1/../../../../pic32mx/lib/fpu64\libc-musl.a(atoi.o)
 .MIPS.abiflags
                0x0000000000000000       0x18 c:/program files/microchip/xc32/v4.00/bin/bin/../../lib/gcc/pic32mx/8.3.1/../../../../pic32mx/lib/fpu64\libc-musl.a(atoi.o)
 .xc_stack_usage
                0x0000000000000000       0x12 c:/program files/microchip/xc32/v4.00/bin/bin/../../lib/gcc/pic32mx/8.3.1/../../../../pic32mx/lib/fpu64\libc-musl.a(atoi.o)
 .xc_stack_usage.hdr
                0x0000000000000000        0xe c:/program files/microchip/xc32/v4.00/bin/bin/../../lib/gcc/pic32mx/8.3.1/../../../../pic32mx/lib/fpu64\libc-musl.a(atoi.o)
 .note.GNU-stack
                0x0000000000000000        0x0 c:/program files/microchip/xc32/v4.00/bin/bin/../../lib/gcc/pic32mx/8.3.1/../../../../pic32mx/lib/fpu64\libc-musl.a(atoi.o)
 .text          0x0000000000000000        0x0 c:/program files/microchip/xc32/v4.00/bin/bin/../../lib/gcc/pic32mx/8.3.1/../../../../pic32mx/lib/fpu64\libc-musl.a(memmove.o)
 .data          0x0000000000000000        0x0 c:/program files/microchip/xc32/v4.00/bin/bin/../../lib/gcc/pic32mx/8.3.1/../../../../pic32mx/lib/fpu64\libc-musl.a(memmove.o)
 .bss           0x0000000000000000        0x0 c:/program files/microchip/xc32/v4.00/bin/bin/../../lib/gcc/pic32mx/8.3.1/../../../../pic32mx/lib/fpu64\libc-musl.a(memmove.o)
 .reginfo       0x0000000000000000       0x18 c:/program files/microchip/xc32/v4.00/bin/bin/../../lib/gcc/pic32mx/8.3.1/../../../../pic32mx/lib/fpu64\libc-musl.a(memmove.o)
 .MIPS.abiflags
                0x0000000000000000       0x18 c:/program files/microchip/xc32/v4.00/bin/bin/../../lib/gcc/pic32mx/8.3.1/../../../../pic32mx/lib/fpu64\libc-musl.a(memmove.o)
 .xc_stack_usage
                0x0000000000000000       0x15 c:/program files/microchip/xc32/v4.00/bin/bin/../../lib/gcc/pic32mx/8.3.1/../../../../pic32mx/lib/fpu64\libc-musl.a(memmove.o)
 .xc_stack_usage.hdr
                0x0000000000000000        0xe c:/program files/microchip/xc32/v4.00/bin/bin/../../lib/gcc/pic32mx/8.3.1/../../../../pic32mx/lib/fpu64\libc-musl.a(memmove.o)
 .note.GNU-stack
                0x0000000000000000        0x0 c:/program files/microchip/xc32/v4.00/bin/bin/../../lib/gcc/pic32mx/8.3.1/../../../../pic32mx/lib/fpu64\libc-musl.a(memmove.o)
 .text          0x0000000000000000        0x0 c:/program files/microchip/xc32/v4.00/bin/bin/../../lib/gcc/pic32mx/8.3.1/../../../../pic32mx/lib/fpu64\libc-musl.a(strncmp.o)
 .data          0x0000000000000000        0x0 c:/program files/microchip/xc32/v4.00/bin/bin/../../lib/gcc/pic32mx/8.3.1/../../../../pic32mx/lib/fpu64\libc-musl.a(strncmp.o)
 .bss           0x0000000000000000        0x0 c:/program files/microchip/xc32/v4.00/bin/bin/../../lib/gcc/pic32mx/8.3.1/../../../../pic32mx/lib/fpu64\libc-musl.a(strncmp.o)
 .reginfo       0x0000000000000000       0x18 c:/program files/microchip/xc32/v4.00/bin/bin/../../lib/gcc/pic32mx/8.3.1/../../../../pic32mx/lib/fpu64\libc-musl.a(strncmp.o)
 .MIPS.abiflags
                0x0000000000000000       0x18 c:/program files/microchip/xc32/v4.00/bin/bin/../../lib/gcc/pic32mx/8.3.1/../../../../pic32mx/lib/fpu64\libc-musl.a(strncmp.o)
 .xc_stack_usage
                0x0000000000000000       0x15 c:/program files/microchip/xc32/v4.00/bin/bin/../../lib/gcc/pic32mx/8.3.1/../../../../pic32mx/lib/fpu64\libc-musl.a(strncmp.o)
 .text.strncmp  0x0000000000000000       0x48 c:/program files/microchip/xc32/v4.00/bin/bin/../../lib/gcc/pic32mx/8.3.1/../../../../pic32mx/lib/fpu64\libc-musl.a(strncmp.o)
 .xc_stack_usage.hdr
                0x0000000000000000        0xe c:/program files/microchip/xc32/v4.00/bin/bin/../../lib/gcc/pic32mx/8.3.1/../../../../pic32mx/lib/fpu64\libc-musl.a(strncmp.o)
 .note.GNU-stack
                0x0000000000000000        0x0 c:/program files/microchip/xc32/v4.00/bin/bin/../../lib/gcc/pic32mx/8.3.1/../../../../pic32mx/lib/fpu64\libc-musl.a(strncmp.o)
 .text          0x0000000000000000        0x0 c:/program files/microchip/xc32/v4.00/bin/bin/../../lib/gcc/pic32mx/8.3.1/../../../../pic32mx/lib/fpu64\libc-musl.a(strncpy.o)
 .data          0x0000000000000000        0x0 c:/program files/microchip/xc32/v4.00/bin/bin/../../lib/gcc/pic32mx/8.3.1/../../../../pic32mx/lib/fpu64\libc-musl.a(strncpy.o)
 .bss           0x0000000000000000        0x0 c:/program files/microchip/xc32/v4.00/bin/bin/../../lib/gcc/pic32mx/8.3.1/../../../../pic32mx/lib/fpu64\libc-musl.a(strncpy.o)
 .reginfo       0x0000000000000000       0x18 c:/program files/microchip/xc32/v4.00/bin/bin/../../lib/gcc/pic32mx/8.3.1/../../../../pic32mx/lib/fpu64\libc-musl.a(strncpy.o)
 .MIPS.abiflags
                0x0000000000000000       0x18 c:/program files/microchip/xc32/v4.00/bin/bin/../../lib/gcc/pic32mx/8.3.1/../../../../pic32mx/lib/fpu64\libc-musl.a(strncpy.o)
 .xc_stack_usage
                0x0000000000000000       0x15 c:/program files/microchip/xc32/v4.00/bin/bin/../../lib/gcc/pic32mx/8.3.1/../../../../pic32mx/lib/fpu64\libc-musl.a(strncpy.o)
 .text.strncpy  0x0000000000000000       0x28 c:/program files/microchip/xc32/v4.00/bin/bin/../../lib/gcc/pic32mx/8.3.1/../../../../pic32mx/lib/fpu64\libc-musl.a(strncpy.o)
 .xc_stack_usage.hdr
                0x0000000000000000        0xe c:/program files/microchip/xc32/v4.00/bin/bin/../../lib/gcc/pic32mx/8.3.1/../../../../pic32mx/lib/fpu64\libc-musl.a(strncpy.o)
 .note.GNU-stack
                0x0000000000000000        0x0 c:/program files/microchip/xc32/v4.00/bin/bin/../../lib/gcc/pic32mx/8.3.1/../../../../pic32mx/lib/fpu64\libc-musl.a(strncpy.o)
 .text          0x0000000000000000        0x0 c:/program files/microchip/xc32/v4.00/bin/bin/../../lib/gcc/pic32mx/8.3.1/../../../../pic32mx/lib/fpu64\libc-musl.a(tolower.o)
 .data          0x0000000000000000        0x0 c:/program files/microchip/xc32/v4.00/bin/bin/../../lib/gcc/pic32mx/8.3.1/../../../../pic32mx/lib/fpu64\libc-musl.a(tolower.o)
 .bss           0x0000000000000000        0x0 c:/program files/microchip/xc32/v4.00/bin/bin/../../lib/gcc/pic32mx/8.3.1/../../../../pic32mx/lib/fpu64\libc-musl.a(tolower.o)
 .reginfo       0x0000000000000000       0x18 c:/program files/microchip/xc32/v4.00/bin/bin/../../lib/gcc/pic32mx/8.3.1/../../../../pic32mx/lib/fpu64\libc-musl.a(tolower.o)
 .MIPS.abiflags
                0x0000000000000000       0x18 c:/program files/microchip/xc32/v4.00/bin/bin/../../lib/gcc/pic32mx/8.3.1/../../../../pic32mx/lib/fpu64\libc-musl.a(tolower.o)
 .xc_stack_usage
                0x0000000000000000       0x2e c:/program files/microchip/xc32/v4.00/bin/bin/../../lib/gcc/pic32mx/8.3.1/../../../../pic32mx/lib/fpu64\libc-musl.a(tolower.o)
 .text.__tolower_l
                0x0000000000000000       0x1c c:/program files/microchip/xc32/v4.00/bin/bin/../../lib/gcc/pic32mx/8.3.1/../../../../pic32mx/lib/fpu64\libc-musl.a(tolower.o)
 .xc_stack_usage.hdr
                0x0000000000000000        0xe c:/program files/microchip/xc32/v4.00/bin/bin/../../lib/gcc/pic32mx/8.3.1/../../../../pic32mx/lib/fpu64\libc-musl.a(tolower.o)
 .note.GNU-stack
                0x0000000000000000        0x0 c:/program files/microchip/xc32/v4.00/bin/bin/../../lib/gcc/pic32mx/8.3.1/../../../../pic32mx/lib/fpu64\libc-musl.a(tolower.o)
 .text          0x0000000000000000        0x0 c:/program files/microchip/xc32/v4.00/bin/bin/../../lib/gcc/pic32mx/8.3.1/../../../../pic32mx/lib/fpu64\libc-musl.a(toupper.o)
 .data          0x0000000000000000        0x0 c:/program files/microchip/xc32/v4.00/bin/bin/../../lib/gcc/pic32mx/8.3.1/../../../../pic32mx/lib/fpu64\libc-musl.a(toupper.o)
 .bss           0x0000000000000000        0x0 c:/program files/microchip/xc32/v4.00/bin/bin/../../lib/gcc/pic32mx/8.3.1/../../../../pic32mx/lib/fpu64\libc-musl.a(toupper.o)
 .reginfo       0x0000000000000000       0x18 c:/program files/microchip/xc32/v4.00/bin/bin/../../lib/gcc/pic32mx/8.3.1/../../../../pic32mx/lib/fpu64\libc-musl.a(toupper.o)
 .MIPS.abiflags
                0x0000000000000000       0x18 c:/program files/microchip/xc32/v4.00/bin/bin/../../lib/gcc/pic32mx/8.3.1/../../../../pic32mx/lib/fpu64\libc-musl.a(toupper.o)
 .xc_stack_usage
                0x0000000000000000       0x2e c:/program files/microchip/xc32/v4.00/bin/bin/../../lib/gcc/pic32mx/8.3.1/../../../../pic32mx/lib/fpu64\libc-musl.a(toupper.o)
 .text.__toupper_l
                0x0000000000000000       0x1c c:/program files/microchip/xc32/v4.00/bin/bin/../../lib/gcc/pic32mx/8.3.1/../../../../pic32mx/lib/fpu64\libc-musl.a(toupper.o)
 .xc_stack_usage.hdr
                0x0000000000000000        0xe c:/program files/microchip/xc32/v4.00/bin/bin/../../lib/gcc/pic32mx/8.3.1/../../../../pic32mx/lib/fpu64\libc-musl.a(toupper.o)
 .note.GNU-stack
                0x0000000000000000        0x0 c:/program files/microchip/xc32/v4.00/bin/bin/../../lib/gcc/pic32mx/8.3.1/../../../../pic32mx/lib/fpu64\libc-musl.a(toupper.o)
 .text          0x0000000000000000        0x0 c:/program files/microchip/xc32/v4.00/bin/bin/../../lib/gcc/pic32mx/8.3.1/../../../../pic32mx/lib/fpu64\libc-musl.a(__int_vsprintf.o)
 .data          0x0000000000000000        0x0 c:/program files/microchip/xc32/v4.00/bin/bin/../../lib/gcc/pic32mx/8.3.1/../../../../pic32mx/lib/fpu64\libc-musl.a(__int_vsprintf.o)
 .bss           0x0000000000000000        0x0 c:/program files/microchip/xc32/v4.00/bin/bin/../../lib/gcc/pic32mx/8.3.1/../../../../pic32mx/lib/fpu64\libc-musl.a(__int_vsprintf.o)
 .reginfo       0x0000000000000000       0x18 c:/program files/microchip/xc32/v4.00/bin/bin/../../lib/gcc/pic32mx/8.3.1/../../../../pic32mx/lib/fpu64\libc-musl.a(__int_vsprintf.o)
 .MIPS.abiflags
                0x0000000000000000       0x18 c:/program files/microchip/xc32/v4.00/bin/bin/../../lib/gcc/pic32mx/8.3.1/../../../../pic32mx/lib/fpu64\libc-musl.a(__int_vsprintf.o)
 .xc_stack_usage
                0x0000000000000000       0x18 c:/program files/microchip/xc32/v4.00/bin/bin/../../lib/gcc/pic32mx/8.3.1/../../../../pic32mx/lib/fpu64\libc-musl.a(__int_vsprintf.o)
 .xc_stack_usage.hdr
                0x0000000000000000        0xe c:/program files/microchip/xc32/v4.00/bin/bin/../../lib/gcc/pic32mx/8.3.1/../../../../pic32mx/lib/fpu64\libc-musl.a(__int_vsprintf.o)
 .note.GNU-stack
                0x0000000000000000        0x0 c:/program files/microchip/xc32/v4.00/bin/bin/../../lib/gcc/pic32mx/8.3.1/../../../../pic32mx/lib/fpu64\libc-musl.a(__int_vsprintf.o)
 .text          0x0000000000000000        0x0 c:/program files/microchip/xc32/v4.00/bin/bin/../../lib/gcc/pic32mx/8.3.1/../../../../pic32mx/lib/fpu64\libc-musl.a(__fopen.o)
 .data          0x0000000000000000        0x0 c:/program files/microchip/xc32/v4.00/bin/bin/../../lib/gcc/pic32mx/8.3.1/../../../../pic32mx/lib/fpu64\libc-musl.a(__fopen.o)
 .bss           0x0000000000000000        0x0 c:/program files/microchip/xc32/v4.00/bin/bin/../../lib/gcc/pic32mx/8.3.1/../../../../pic32mx/lib/fpu64\libc-musl.a(__fopen.o)
 .reginfo       0x0000000000000000       0x18 c:/program files/microchip/xc32/v4.00/bin/bin/../../lib/gcc/pic32mx/8.3.1/../../../../pic32mx/lib/fpu64\libc-musl.a(__fopen.o)
 .MIPS.abiflags
                0x0000000000000000       0x18 c:/program files/microchip/xc32/v4.00/bin/bin/../../lib/gcc/pic32mx/8.3.1/../../../../pic32mx/lib/fpu64\libc-musl.a(__fopen.o)
 .xc_stack_usage
                0x0000000000000000       0x43 c:/program files/microchip/xc32/v4.00/bin/bin/../../lib/gcc/pic32mx/8.3.1/../../../../pic32mx/lib/fpu64\libc-musl.a(__fopen.o)
 .text.__fopen_std
                0x0000000000000000       0x60 c:/program files/microchip/xc32/v4.00/bin/bin/../../lib/gcc/pic32mx/8.3.1/../../../../pic32mx/lib/fpu64\libc-musl.a(__fopen.o)
 .text.__fopen  0x0000000000000000       0x1c c:/program files/microchip/xc32/v4.00/bin/bin/../../lib/gcc/pic32mx/8.3.1/../../../../pic32mx/lib/fpu64\libc-musl.a(__fopen.o)
 .xc_stack_usage.hdr
                0x0000000000000000        0xe c:/program files/microchip/xc32/v4.00/bin/bin/../../lib/gcc/pic32mx/8.3.1/../../../../pic32mx/lib/fpu64\libc-musl.a(__fopen.o)
 .note.GNU-stack
                0x0000000000000000        0x0 c:/program files/microchip/xc32/v4.00/bin/bin/../../lib/gcc/pic32mx/8.3.1/../../../../pic32mx/lib/fpu64\libc-musl.a(__fopen.o)
 .text          0x0000000000000000        0x0 c:/program files/microchip/xc32/v4.00/bin/bin/../../lib/gcc/pic32mx/8.3.1/../../../../pic32mx/lib/fpu64\libc-musl.a(__io_init_needed.o)
 .data          0x0000000000000000        0x0 c:/program files/microchip/xc32/v4.00/bin/bin/../../lib/gcc/pic32mx/8.3.1/../../../../pic32mx/lib/fpu64\libc-musl.a(__io_init_needed.o)
 .bss           0x0000000000000000        0x0 c:/program files/microchip/xc32/v4.00/bin/bin/../../lib/gcc/pic32mx/8.3.1/../../../../pic32mx/lib/fpu64\libc-musl.a(__io_init_needed.o)
 .reginfo       0x0000000000000000       0x18 c:/program files/microchip/xc32/v4.00/bin/bin/../../lib/gcc/pic32mx/8.3.1/../../../../pic32mx/lib/fpu64\libc-musl.a(__io_init_needed.o)
 .MIPS.abiflags
                0x0000000000000000       0x18 c:/program files/microchip/xc32/v4.00/bin/bin/../../lib/gcc/pic32mx/8.3.1/../../../../pic32mx/lib/fpu64\libc-musl.a(__io_init_needed.o)
 .xc_stack_usage
                0x0000000000000000       0x40 c:/program files/microchip/xc32/v4.00/bin/bin/../../lib/gcc/pic32mx/8.3.1/../../../../pic32mx/lib/fpu64\libc-musl.a(__io_init_needed.o)
 __xc_reference_data
                0x0000000000000000       0x48 c:/program files/microchip/xc32/v4.00/bin/bin/../../lib/gcc/pic32mx/8.3.1/../../../../pic32mx/lib/fpu64\libc-musl.a(__io_init_needed.o)
 .xc_stack_usage.hdr
                0x0000000000000000        0xe c:/program files/microchip/xc32/v4.00/bin/bin/../../lib/gcc/pic32mx/8.3.1/../../../../pic32mx/lib/fpu64\libc-musl.a(__io_init_needed.o)
 .note.GNU-stack
                0x0000000000000000        0x0 c:/program files/microchip/xc32/v4.00/bin/bin/../../lib/gcc/pic32mx/8.3.1/../../../../pic32mx/lib/fpu64\libc-musl.a(__io_init_needed.o)
 .text          0x0000000000000000        0x0 c:/program files/microchip/xc32/v4.00/bin/bin/../../lib/gcc/pic32mx/8.3.1/../../../../pic32mx/lib/fpu64\libc-musl.a(__io_rw_needed.o)
 .data          0x0000000000000000        0x0 c:/program files/microchip/xc32/v4.00/bin/bin/../../lib/gcc/pic32mx/8.3.1/../../../../pic32mx/lib/fpu64\libc-musl.a(__io_rw_needed.o)
 .bss           0x0000000000000000        0x0 c:/program files/microchip/xc32/v4.00/bin/bin/../../lib/gcc/pic32mx/8.3.1/../../../../pic32mx/lib/fpu64\libc-musl.a(__io_rw_needed.o)
 .reginfo       0x0000000000000000       0x18 c:/program files/microchip/xc32/v4.00/bin/bin/../../lib/gcc/pic32mx/8.3.1/../../../../pic32mx/lib/fpu64\libc-musl.a(__io_rw_needed.o)
 .MIPS.abiflags
                0x0000000000000000       0x18 c:/program files/microchip/xc32/v4.00/bin/bin/../../lib/gcc/pic32mx/8.3.1/../../../../pic32mx/lib/fpu64\libc-musl.a(__io_rw_needed.o)
 .xc_stack_usage
                0x0000000000000000       0x1c c:/program files/microchip/xc32/v4.00/bin/bin/../../lib/gcc/pic32mx/8.3.1/../../../../pic32mx/lib/fpu64\libc-musl.a(__io_rw_needed.o)
 __xc_reference_data
                0x0000000000000000       0x54 c:/program files/microchip/xc32/v4.00/bin/bin/../../lib/gcc/pic32mx/8.3.1/../../../../pic32mx/lib/fpu64\libc-musl.a(__io_rw_needed.o)
 .xc_stack_usage.hdr
                0x0000000000000000        0xe c:/program files/microchip/xc32/v4.00/bin/bin/../../lib/gcc/pic32mx/8.3.1/../../../../pic32mx/lib/fpu64\libc-musl.a(__io_rw_needed.o)
 .note.GNU-stack
                0x0000000000000000        0x0 c:/program files/microchip/xc32/v4.00/bin/bin/../../lib/gcc/pic32mx/8.3.1/../../../../pic32mx/lib/fpu64\libc-musl.a(__io_rw_needed.o)
 .text          0x0000000000000000        0x0 c:/program files/microchip/xc32/v4.00/bin/bin/../../lib/gcc/pic32mx/8.3.1/../../../../pic32mx/lib/fpu64\libc-musl.a(__out.o)
 .data          0x0000000000000000        0x0 c:/program files/microchip/xc32/v4.00/bin/bin/../../lib/gcc/pic32mx/8.3.1/../../../../pic32mx/lib/fpu64\libc-musl.a(__out.o)
 .bss           0x0000000000000000        0x0 c:/program files/microchip/xc32/v4.00/bin/bin/../../lib/gcc/pic32mx/8.3.1/../../../../pic32mx/lib/fpu64\libc-musl.a(__out.o)
 .reginfo       0x0000000000000000       0x18 c:/program files/microchip/xc32/v4.00/bin/bin/../../lib/gcc/pic32mx/8.3.1/../../../../pic32mx/lib/fpu64\libc-musl.a(__out.o)
 .MIPS.abiflags
                0x0000000000000000       0x18 c:/program files/microchip/xc32/v4.00/bin/bin/../../lib/gcc/pic32mx/8.3.1/../../../../pic32mx/lib/fpu64\libc-musl.a(__out.o)
 .xc_stack_usage
                0x0000000000000000       0x2d c:/program files/microchip/xc32/v4.00/bin/bin/../../lib/gcc/pic32mx/8.3.1/../../../../pic32mx/lib/fpu64\libc-musl.a(__out.o)
 .xc_stack_usage.hdr
                0x0000000000000000        0xe c:/program files/microchip/xc32/v4.00/bin/bin/../../lib/gcc/pic32mx/8.3.1/../../../../pic32mx/lib/fpu64\libc-musl.a(__out.o)
 .note.GNU-stack
                0x0000000000000000        0x0 c:/program files/microchip/xc32/v4.00/bin/bin/../../lib/gcc/pic32mx/8.3.1/../../../../pic32mx/lib/fpu64\libc-musl.a(__out.o)
 .text          0x0000000000000000        0x0 c:/program files/microchip/xc32/v4.00/bin/bin/../../lib/gcc/pic32mx/8.3.1/../../../../pic32mx/lib/fpu64\libc-musl.a(__pop_float.o)
 .data          0x0000000000000000        0x0 c:/program files/microchip/xc32/v4.00/bin/bin/../../lib/gcc/pic32mx/8.3.1/../../../../pic32mx/lib/fpu64\libc-musl.a(__pop_float.o)
 .bss           0x0000000000000000        0x0 c:/program files/microchip/xc32/v4.00/bin/bin/../../lib/gcc/pic32mx/8.3.1/../../../../pic32mx/lib/fpu64\libc-musl.a(__pop_float.o)
 .reginfo       0x0000000000000000       0x18 c:/program files/microchip/xc32/v4.00/bin/bin/../../lib/gcc/pic32mx/8.3.1/../../../../pic32mx/lib/fpu64\libc-musl.a(__pop_float.o)
 .MIPS.abiflags
                0x0000000000000000       0x18 c:/program files/microchip/xc32/v4.00/bin/bin/../../lib/gcc/pic32mx/8.3.1/../../../../pic32mx/lib/fpu64\libc-musl.a(__pop_float.o)
 .xc_stack_usage
                0x0000000000000000       0x19 c:/program files/microchip/xc32/v4.00/bin/bin/../../lib/gcc/pic32mx/8.3.1/../../../../pic32mx/lib/fpu64\libc-musl.a(__pop_float.o)
 .xc_stack_usage.hdr
                0x0000000000000000        0xe c:/program files/microchip/xc32/v4.00/bin/bin/../../lib/gcc/pic32mx/8.3.1/../../../../pic32mx/lib/fpu64\libc-musl.a(__pop_float.o)
 .note.GNU-stack
                0x0000000000000000        0x0 c:/program files/microchip/xc32/v4.00/bin/bin/../../lib/gcc/pic32mx/8.3.1/../../../../pic32mx/lib/fpu64\libc-musl.a(__pop_float.o)
 .text          0x0000000000000000        0x0 c:/program files/microchip/xc32/v4.00/bin/bin/../../lib/gcc/pic32mx/8.3.1/../../../../pic32mx/lib/fpu64\libc-musl.a(__pop_int.o)
 .data          0x0000000000000000        0x0 c:/program files/microchip/xc32/v4.00/bin/bin/../../lib/gcc/pic32mx/8.3.1/../../../../pic32mx/lib/fpu64\libc-musl.a(__pop_int.o)
 .bss           0x0000000000000000        0x0 c:/program files/microchip/xc32/v4.00/bin/bin/../../lib/gcc/pic32mx/8.3.1/../../../../pic32mx/lib/fpu64\libc-musl.a(__pop_int.o)
 .reginfo       0x0000000000000000       0x18 c:/program files/microchip/xc32/v4.00/bin/bin/../../lib/gcc/pic32mx/8.3.1/../../../../pic32mx/lib/fpu64\libc-musl.a(__pop_int.o)
 .MIPS.abiflags
                0x0000000000000000       0x18 c:/program files/microchip/xc32/v4.00/bin/bin/../../lib/gcc/pic32mx/8.3.1/../../../../pic32mx/lib/fpu64\libc-musl.a(__pop_int.o)
 .xc_stack_usage
                0x0000000000000000       0x17 c:/program files/microchip/xc32/v4.00/bin/bin/../../lib/gcc/pic32mx/8.3.1/../../../../pic32mx/lib/fpu64\libc-musl.a(__pop_int.o)
 .xc_stack_usage.hdr
                0x0000000000000000        0xe c:/program files/microchip/xc32/v4.00/bin/bin/../../lib/gcc/pic32mx/8.3.1/../../../../pic32mx/lib/fpu64\libc-musl.a(__pop_int.o)
 .note.GNU-stack
                0x0000000000000000        0x0 c:/program files/microchip/xc32/v4.00/bin/bin/../../lib/gcc/pic32mx/8.3.1/../../../../pic32mx/lib/fpu64\libc-musl.a(__pop_int.o)
 .text          0x0000000000000000        0x0 c:/program files/microchip/xc32/v4.00/bin/bin/../../lib/gcc/pic32mx/8.3.1/../../../../pic32mx/lib/fpu64\libc-musl.a(__pop_ptr.o)
 .data          0x0000000000000000        0x0 c:/program files/microchip/xc32/v4.00/bin/bin/../../lib/gcc/pic32mx/8.3.1/../../../../pic32mx/lib/fpu64\libc-musl.a(__pop_ptr.o)
 .bss           0x0000000000000000        0x0 c:/program files/microchip/xc32/v4.00/bin/bin/../../lib/gcc/pic32mx/8.3.1/../../../../pic32mx/lib/fpu64\libc-musl.a(__pop_ptr.o)
 .reginfo       0x0000000000000000       0x18 c:/program files/microchip/xc32/v4.00/bin/bin/../../lib/gcc/pic32mx/8.3.1/../../../../pic32mx/lib/fpu64\libc-musl.a(__pop_ptr.o)
 .MIPS.abiflags
                0x0000000000000000       0x18 c:/program files/microchip/xc32/v4.00/bin/bin/../../lib/gcc/pic32mx/8.3.1/../../../../pic32mx/lib/fpu64\libc-musl.a(__pop_ptr.o)
 .xc_stack_usage
                0x0000000000000000       0x17 c:/program files/microchip/xc32/v4.00/bin/bin/../../lib/gcc/pic32mx/8.3.1/../../../../pic32mx/lib/fpu64\libc-musl.a(__pop_ptr.o)
 .xc_stack_usage.hdr
                0x0000000000000000        0xe c:/program files/microchip/xc32/v4.00/bin/bin/../../lib/gcc/pic32mx/8.3.1/../../../../pic32mx/lib/fpu64\libc-musl.a(__pop_ptr.o)
 .note.GNU-stack
                0x0000000000000000        0x0 c:/program files/microchip/xc32/v4.00/bin/bin/../../lib/gcc/pic32mx/8.3.1/../../../../pic32mx/lib/fpu64\libc-musl.a(__pop_ptr.o)
 .text          0x0000000000000000        0x0 c:/program files/microchip/xc32/v4.00/bin/bin/../../lib/gcc/pic32mx/8.3.1/../../../../pic32mx/lib/fpu64\libc-musl.a(__stdio_close.o)
 .data          0x0000000000000000        0x0 c:/program files/microchip/xc32/v4.00/bin/bin/../../lib/gcc/pic32mx/8.3.1/../../../../pic32mx/lib/fpu64\libc-musl.a(__stdio_close.o)
 .bss           0x0000000000000000        0x0 c:/program files/microchip/xc32/v4.00/bin/bin/../../lib/gcc/pic32mx/8.3.1/../../../../pic32mx/lib/fpu64\libc-musl.a(__stdio_close.o)
 .reginfo       0x0000000000000000       0x18 c:/program files/microchip/xc32/v4.00/bin/bin/../../lib/gcc/pic32mx/8.3.1/../../../../pic32mx/lib/fpu64\libc-musl.a(__stdio_close.o)
 .MIPS.abiflags
                0x0000000000000000       0x18 c:/program files/microchip/xc32/v4.00/bin/bin/../../lib/gcc/pic32mx/8.3.1/../../../../pic32mx/lib/fpu64\libc-musl.a(__stdio_close.o)
 .xc_stack_usage
                0x0000000000000000       0x39 c:/program files/microchip/xc32/v4.00/bin/bin/../../lib/gcc/pic32mx/8.3.1/../../../../pic32mx/lib/fpu64\libc-musl.a(__stdio_close.o)
 .text.__stdio_close
                0x0000000000000000       0x98 c:/program files/microchip/xc32/v4.00/bin/bin/../../lib/gcc/pic32mx/8.3.1/../../../../pic32mx/lib/fpu64\libc-musl.a(__stdio_close.o)
 .xc_stack_usage.hdr
                0x0000000000000000        0xe c:/program files/microchip/xc32/v4.00/bin/bin/../../lib/gcc/pic32mx/8.3.1/../../../../pic32mx/lib/fpu64\libc-musl.a(__stdio_close.o)
 .note.GNU-stack
                0x0000000000000000        0x0 c:/program files/microchip/xc32/v4.00/bin/bin/../../lib/gcc/pic32mx/8.3.1/../../../../pic32mx/lib/fpu64\libc-musl.a(__stdio_close.o)
 .text          0x0000000000000000        0x0 c:/program files/microchip/xc32/v4.00/bin/bin/../../lib/gcc/pic32mx/8.3.1/../../../../pic32mx/lib/fpu64\libc-musl.a(__stdio_read.o)
 .data          0x0000000000000000        0x0 c:/program files/microchip/xc32/v4.00/bin/bin/../../lib/gcc/pic32mx/8.3.1/../../../../pic32mx/lib/fpu64\libc-musl.a(__stdio_read.o)
 .bss           0x0000000000000000        0x0 c:/program files/microchip/xc32/v4.00/bin/bin/../../lib/gcc/pic32mx/8.3.1/../../../../pic32mx/lib/fpu64\libc-musl.a(__stdio_read.o)
 .reginfo       0x0000000000000000       0x18 c:/program files/microchip/xc32/v4.00/bin/bin/../../lib/gcc/pic32mx/8.3.1/../../../../pic32mx/lib/fpu64\libc-musl.a(__stdio_read.o)
 .MIPS.abiflags
                0x0000000000000000       0x18 c:/program files/microchip/xc32/v4.00/bin/bin/../../lib/gcc/pic32mx/8.3.1/../../../../pic32mx/lib/fpu64\libc-musl.a(__stdio_read.o)
 .xc_stack_usage
                0x0000000000000000       0x1a c:/program files/microchip/xc32/v4.00/bin/bin/../../lib/gcc/pic32mx/8.3.1/../../../../pic32mx/lib/fpu64\libc-musl.a(__stdio_read.o)
 .xc_stack_usage.hdr
                0x0000000000000000        0xe c:/program files/microchip/xc32/v4.00/bin/bin/../../lib/gcc/pic32mx/8.3.1/../../../../pic32mx/lib/fpu64\libc-musl.a(__stdio_read.o)
 .note.GNU-stack
                0x0000000000000000        0x0 c:/program files/microchip/xc32/v4.00/bin/bin/../../lib/gcc/pic32mx/8.3.1/../../../../pic32mx/lib/fpu64\libc-musl.a(__stdio_read.o)
 .text          0x0000000000000000        0x0 c:/program files/microchip/xc32/v4.00/bin/bin/../../lib/gcc/pic32mx/8.3.1/../../../../pic32mx/lib/fpu64\libc-musl.a(__towrite_rw.o)
 .data          0x0000000000000000        0x0 c:/program files/microchip/xc32/v4.00/bin/bin/../../lib/gcc/pic32mx/8.3.1/../../../../pic32mx/lib/fpu64\libc-musl.a(__towrite_rw.o)
 .bss           0x0000000000000000        0x0 c:/program files/microchip/xc32/v4.00/bin/bin/../../lib/gcc/pic32mx/8.3.1/../../../../pic32mx/lib/fpu64\libc-musl.a(__towrite_rw.o)
 .reginfo       0x0000000000000000       0x18 c:/program files/microchip/xc32/v4.00/bin/bin/../../lib/gcc/pic32mx/8.3.1/../../../../pic32mx/lib/fpu64\libc-musl.a(__towrite_rw.o)
 .MIPS.abiflags
                0x0000000000000000       0x18 c:/program files/microchip/xc32/v4.00/bin/bin/../../lib/gcc/pic32mx/8.3.1/../../../../pic32mx/lib/fpu64\libc-musl.a(__towrite_rw.o)
 .xc_stack_usage
                0x0000000000000000       0x1a c:/program files/microchip/xc32/v4.00/bin/bin/../../lib/gcc/pic32mx/8.3.1/../../../../pic32mx/lib/fpu64\libc-musl.a(__towrite_rw.o)
 .xc_stack_usage.hdr
                0x0000000000000000        0xe c:/program files/microchip/xc32/v4.00/bin/bin/../../lib/gcc/pic32mx/8.3.1/../../../../pic32mx/lib/fpu64\libc-musl.a(__towrite_rw.o)
 .note.GNU-stack
                0x0000000000000000        0x0 c:/program files/microchip/xc32/v4.00/bin/bin/../../lib/gcc/pic32mx/8.3.1/../../../../pic32mx/lib/fpu64\libc-musl.a(__towrite_rw.o)
 .text          0x0000000000000000        0x0 c:/program files/microchip/xc32/v4.00/bin/bin/../../lib/gcc/pic32mx/8.3.1/../../../../pic32mx/lib/fpu64\libc-musl.a(setvbuf.o)
 .data          0x0000000000000000        0x0 c:/program files/microchip/xc32/v4.00/bin/bin/../../lib/gcc/pic32mx/8.3.1/../../../../pic32mx/lib/fpu64\libc-musl.a(setvbuf.o)
 .bss           0x0000000000000000        0x0 c:/program files/microchip/xc32/v4.00/bin/bin/../../lib/gcc/pic32mx/8.3.1/../../../../pic32mx/lib/fpu64\libc-musl.a(setvbuf.o)
 .reginfo       0x0000000000000000       0x18 c:/program files/microchip/xc32/v4.00/bin/bin/../../lib/gcc/pic32mx/8.3.1/../../../../pic32mx/lib/fpu64\libc-musl.a(setvbuf.o)
 .MIPS.abiflags
                0x0000000000000000       0x18 c:/program files/microchip/xc32/v4.00/bin/bin/../../lib/gcc/pic32mx/8.3.1/../../../../pic32mx/lib/fpu64\libc-musl.a(setvbuf.o)
 .xc_stack_usage
                0x0000000000000000       0x36 c:/program files/microchip/xc32/v4.00/bin/bin/../../lib/gcc/pic32mx/8.3.1/../../../../pic32mx/lib/fpu64\libc-musl.a(setvbuf.o)
 __xc_reference_data
                0x0000000000000000       0x24 c:/program files/microchip/xc32/v4.00/bin/bin/../../lib/gcc/pic32mx/8.3.1/../../../../pic32mx/lib/fpu64\libc-musl.a(setvbuf.o)
 .xc_stack_usage.hdr
                0x0000000000000000        0xe c:/program files/microchip/xc32/v4.00/bin/bin/../../lib/gcc/pic32mx/8.3.1/../../../../pic32mx/lib/fpu64\libc-musl.a(setvbuf.o)
 .note.GNU-stack
                0x0000000000000000        0x0 c:/program files/microchip/xc32/v4.00/bin/bin/../../lib/gcc/pic32mx/8.3.1/../../../../pic32mx/lib/fpu64\libc-musl.a(setvbuf.o)
 .text          0x0000000000000000        0x0 c:/program files/microchip/xc32/v4.00/bin/bin/../../lib/gcc/pic32mx/8.3.1/../../../../pic32mx/lib/fpu64\libc-musl.a(stpncpy.o)
 .data          0x0000000000000000        0x0 c:/program files/microchip/xc32/v4.00/bin/bin/../../lib/gcc/pic32mx/8.3.1/../../../../pic32mx/lib/fpu64\libc-musl.a(stpncpy.o)
 .bss           0x0000000000000000        0x0 c:/program files/microchip/xc32/v4.00/bin/bin/../../lib/gcc/pic32mx/8.3.1/../../../../pic32mx/lib/fpu64\libc-musl.a(stpncpy.o)
 .reginfo       0x0000000000000000       0x18 c:/program files/microchip/xc32/v4.00/bin/bin/../../lib/gcc/pic32mx/8.3.1/../../../../pic32mx/lib/fpu64\libc-musl.a(stpncpy.o)
 .MIPS.abiflags
                0x0000000000000000       0x18 c:/program files/microchip/xc32/v4.00/bin/bin/../../lib/gcc/pic32mx/8.3.1/../../../../pic32mx/lib/fpu64\libc-musl.a(stpncpy.o)
 .xc_stack_usage
                0x0000000000000000       0x15 c:/program files/microchip/xc32/v4.00/bin/bin/../../lib/gcc/pic32mx/8.3.1/../../../../pic32mx/lib/fpu64\libc-musl.a(stpncpy.o)
 .text.stpncpy  0x0000000000000000       0x4c c:/program files/microchip/xc32/v4.00/bin/bin/../../lib/gcc/pic32mx/8.3.1/../../../../pic32mx/lib/fpu64\libc-musl.a(stpncpy.o)
 .xc_stack_usage.hdr
                0x0000000000000000        0xe c:/program files/microchip/xc32/v4.00/bin/bin/../../lib/gcc/pic32mx/8.3.1/../../../../pic32mx/lib/fpu64\libc-musl.a(stpncpy.o)
 .note.GNU-stack
                0x0000000000000000        0x0 c:/program files/microchip/xc32/v4.00/bin/bin/../../lib/gcc/pic32mx/8.3.1/../../../../pic32mx/lib/fpu64\libc-musl.a(stpncpy.o)
 .text          0x0000000000000000        0x0 c:/program files/microchip/xc32/v4.00/bin/bin/../../lib/gcc/pic32mx/8.3.1/../../../../pic32mx/lib/fpu64\libc-musl.a(readv.o)
 .data          0x0000000000000000        0x0 c:/program files/microchip/xc32/v4.00/bin/bin/../../lib/gcc/pic32mx/8.3.1/../../../../pic32mx/lib/fpu64\libc-musl.a(readv.o)
 .bss           0x0000000000000000        0x0 c:/program files/microchip/xc32/v4.00/bin/bin/../../lib/gcc/pic32mx/8.3.1/../../../../pic32mx/lib/fpu64\libc-musl.a(readv.o)
 .reginfo       0x0000000000000000       0x18 c:/program files/microchip/xc32/v4.00/bin/bin/../../lib/gcc/pic32mx/8.3.1/../../../../pic32mx/lib/fpu64\libc-musl.a(readv.o)
 .MIPS.abiflags
                0x0000000000000000       0x18 c:/program files/microchip/xc32/v4.00/bin/bin/../../lib/gcc/pic32mx/8.3.1/../../../../pic32mx/lib/fpu64\libc-musl.a(readv.o)
 .xc_stack_usage
                0x0000000000000000       0x15 c:/program files/microchip/xc32/v4.00/bin/bin/../../lib/gcc/pic32mx/8.3.1/../../../../pic32mx/lib/fpu64\libc-musl.a(readv.o)
 .xc_stack_usage.hdr
                0x0000000000000000        0xe c:/program files/microchip/xc32/v4.00/bin/bin/../../lib/gcc/pic32mx/8.3.1/../../../../pic32mx/lib/fpu64\libc-musl.a(readv.o)
 .note.GNU-stack
                0x0000000000000000        0x0 c:/program files/microchip/xc32/v4.00/bin/bin/../../lib/gcc/pic32mx/8.3.1/../../../../pic32mx/lib/fpu64\libc-musl.a(readv.o)
 .text          0x0000000000000000        0x0 c:/program files/microchip/xc32/v4.00/bin/bin/../../lib/gcc/pic32mx/8.3.1/../../../../pic32mx/lib/fpu64\libc-musl.a(malloc.o)
 .data          0x0000000000000000        0x0 c:/program files/microchip/xc32/v4.00/bin/bin/../../lib/gcc/pic32mx/8.3.1/../../../../pic32mx/lib/fpu64\libc-musl.a(malloc.o)
 .reginfo       0x0000000000000000       0x18 c:/program files/microchip/xc32/v4.00/bin/bin/../../lib/gcc/pic32mx/8.3.1/../../../../pic32mx/lib/fpu64\libc-musl.a(malloc.o)
 .MIPS.abiflags
                0x0000000000000000       0x18 c:/program files/microchip/xc32/v4.00/bin/bin/../../lib/gcc/pic32mx/8.3.1/../../../../pic32mx/lib/fpu64\libc-musl.a(malloc.o)
 .xc_stack_usage
                0x0000000000000000       0xeb c:/program files/microchip/xc32/v4.00/bin/bin/../../lib/gcc/pic32mx/8.3.1/../../../../pic32mx/lib/fpu64\libc-musl.a(malloc.o)
 .text.__malloc0
                0x0000000000000000       0x50 c:/program files/microchip/xc32/v4.00/bin/bin/../../lib/gcc/pic32mx/8.3.1/../../../../pic32mx/lib/fpu64\libc-musl.a(malloc.o)
 .text.realloc  0x0000000000000000      0x118 c:/program files/microchip/xc32/v4.00/bin/bin/../../lib/gcc/pic32mx/8.3.1/../../../../pic32mx/lib/fpu64\libc-musl.a(malloc.o)
 .xc_stack_usage.hdr
                0x0000000000000000        0xe c:/program files/microchip/xc32/v4.00/bin/bin/../../lib/gcc/pic32mx/8.3.1/../../../../pic32mx/lib/fpu64\libc-musl.a(malloc.o)
 .note.GNU-stack
                0x0000000000000000        0x0 c:/program files/microchip/xc32/v4.00/bin/bin/../../lib/gcc/pic32mx/8.3.1/../../../../pic32mx/lib/fpu64\libc-musl.a(malloc.o)
 .text          0x0000000000000000        0x0 c:/program files/microchip/xc32/v4.00/bin/bin/../../lib/gcc/pic32mx/8.3.1/../../../../pic32mx/lib/fpu64\libc-musl.a(expand_heap.o)
 .data          0x0000000000000000        0x0 c:/program files/microchip/xc32/v4.00/bin/bin/../../lib/gcc/pic32mx/8.3.1/../../../../pic32mx/lib/fpu64\libc-musl.a(expand_heap.o)
 .bss           0x0000000000000000        0x0 c:/program files/microchip/xc32/v4.00/bin/bin/../../lib/gcc/pic32mx/8.3.1/../../../../pic32mx/lib/fpu64\libc-musl.a(expand_heap.o)
 .reginfo       0x0000000000000000       0x18 c:/program files/microchip/xc32/v4.00/bin/bin/../../lib/gcc/pic32mx/8.3.1/../../../../pic32mx/lib/fpu64\libc-musl.a(expand_heap.o)
 .MIPS.abiflags
                0x0000000000000000       0x18 c:/program files/microchip/xc32/v4.00/bin/bin/../../lib/gcc/pic32mx/8.3.1/../../../../pic32mx/lib/fpu64\libc-musl.a(expand_heap.o)
 .xc_stack_usage
                0x0000000000000000       0x1b c:/program files/microchip/xc32/v4.00/bin/bin/../../lib/gcc/pic32mx/8.3.1/../../../../pic32mx/lib/fpu64\libc-musl.a(expand_heap.o)
 .xc_stack_usage.hdr
                0x0000000000000000        0xe c:/program files/microchip/xc32/v4.00/bin/bin/../../lib/gcc/pic32mx/8.3.1/../../../../pic32mx/lib/fpu64\libc-musl.a(expand_heap.o)
 .note.GNU-stack
                0x0000000000000000        0x0 c:/program files/microchip/xc32/v4.00/bin/bin/../../lib/gcc/pic32mx/8.3.1/../../../../pic32mx/lib/fpu64\libc-musl.a(expand_heap.o)
 .text          0x0000000000000000        0x0 c:/program files/microchip/xc32/v4.00/bin/bin/../../lib/gcc/pic32mx/8.3.1/../../../../pic32mx/lib/fpu64\libc-musl.a(__int_vsnprintf.o)
 .data          0x0000000000000000        0x0 c:/program files/microchip/xc32/v4.00/bin/bin/../../lib/gcc/pic32mx/8.3.1/../../../../pic32mx/lib/fpu64\libc-musl.a(__int_vsnprintf.o)
 .bss           0x0000000000000000        0x0 c:/program files/microchip/xc32/v4.00/bin/bin/../../lib/gcc/pic32mx/8.3.1/../../../../pic32mx/lib/fpu64\libc-musl.a(__int_vsnprintf.o)
 .reginfo       0x0000000000000000       0x18 c:/program files/microchip/xc32/v4.00/bin/bin/../../lib/gcc/pic32mx/8.3.1/../../../../pic32mx/lib/fpu64\libc-musl.a(__int_vsnprintf.o)
 .MIPS.abiflags
                0x0000000000000000       0x18 c:/program files/microchip/xc32/v4.00/bin/bin/../../lib/gcc/pic32mx/8.3.1/../../../../pic32mx/lib/fpu64\libc-musl.a(__int_vsnprintf.o)
 .xc_stack_usage
                0x0000000000000000       0x19 c:/program files/microchip/xc32/v4.00/bin/bin/../../lib/gcc/pic32mx/8.3.1/../../../../pic32mx/lib/fpu64\libc-musl.a(__int_vsnprintf.o)
 .xc_stack_usage.hdr
                0x0000000000000000        0xe c:/program files/microchip/xc32/v4.00/bin/bin/../../lib/gcc/pic32mx/8.3.1/../../../../pic32mx/lib/fpu64\libc-musl.a(__int_vsnprintf.o)
 .note.GNU-stack
                0x0000000000000000        0x0 c:/program files/microchip/xc32/v4.00/bin/bin/../../lib/gcc/pic32mx/8.3.1/../../../../pic32mx/lib/fpu64\libc-musl.a(__int_vsnprintf.o)
 .text          0x0000000000000000        0x0 c:/program files/microchip/xc32/v4.00/bin/bin/../../lib/gcc/pic32mx/8.3.1/../../../../pic32mx/lib/fpu64\libc-musl.a(__fopen_rw.o)
 .data          0x0000000000000000        0x0 c:/program files/microchip/xc32/v4.00/bin/bin/../../lib/gcc/pic32mx/8.3.1/../../../../pic32mx/lib/fpu64\libc-musl.a(__fopen_rw.o)
 .bss           0x0000000000000000        0x0 c:/program files/microchip/xc32/v4.00/bin/bin/../../lib/gcc/pic32mx/8.3.1/../../../../pic32mx/lib/fpu64\libc-musl.a(__fopen_rw.o)
 .reginfo       0x0000000000000000       0x18 c:/program files/microchip/xc32/v4.00/bin/bin/../../lib/gcc/pic32mx/8.3.1/../../../../pic32mx/lib/fpu64\libc-musl.a(__fopen_rw.o)
 .MIPS.abiflags
                0x0000000000000000       0x18 c:/program files/microchip/xc32/v4.00/bin/bin/../../lib/gcc/pic32mx/8.3.1/../../../../pic32mx/lib/fpu64\libc-musl.a(__fopen_rw.o)
 .xc_stack_usage
                0x0000000000000000       0x18 c:/program files/microchip/xc32/v4.00/bin/bin/../../lib/gcc/pic32mx/8.3.1/../../../../pic32mx/lib/fpu64\libc-musl.a(__fopen_rw.o)
 .text.__fopen_rw
                0x0000000000000000       0x88 c:/program files/microchip/xc32/v4.00/bin/bin/../../lib/gcc/pic32mx/8.3.1/../../../../pic32mx/lib/fpu64\libc-musl.a(__fopen_rw.o)
 .xc_stack_usage.hdr
                0x0000000000000000        0xe c:/program files/microchip/xc32/v4.00/bin/bin/../../lib/gcc/pic32mx/8.3.1/../../../../pic32mx/lib/fpu64\libc-musl.a(__fopen_rw.o)
 .note.GNU-stack
                0x0000000000000000        0x0 c:/program files/microchip/xc32/v4.00/bin/bin/../../lib/gcc/pic32mx/8.3.1/../../../../pic32mx/lib/fpu64\libc-musl.a(__fopen_rw.o)
 .text          0x0000000000000000        0x0 c:/program files/microchip/xc32/v4.00/bin/bin/../../lib/gcc/pic32mx/8.3.1/../../../../pic32mx/lib/fpu64\libc-musl.a(__ftello_rw.o)
 .data          0x0000000000000000        0x0 c:/program files/microchip/xc32/v4.00/bin/bin/../../lib/gcc/pic32mx/8.3.1/../../../../pic32mx/lib/fpu64\libc-musl.a(__ftello_rw.o)
 .bss           0x0000000000000000        0x0 c:/program files/microchip/xc32/v4.00/bin/bin/../../lib/gcc/pic32mx/8.3.1/../../../../pic32mx/lib/fpu64\libc-musl.a(__ftello_rw.o)
 .reginfo       0x0000000000000000       0x18 c:/program files/microchip/xc32/v4.00/bin/bin/../../lib/gcc/pic32mx/8.3.1/../../../../pic32mx/lib/fpu64\libc-musl.a(__ftello_rw.o)
 .MIPS.abiflags
                0x0000000000000000       0x18 c:/program files/microchip/xc32/v4.00/bin/bin/../../lib/gcc/pic32mx/8.3.1/../../../../pic32mx/lib/fpu64\libc-musl.a(__ftello_rw.o)
 .xc_stack_usage
                0x0000000000000000       0x1d c:/program files/microchip/xc32/v4.00/bin/bin/../../lib/gcc/pic32mx/8.3.1/../../../../pic32mx/lib/fpu64\libc-musl.a(__ftello_rw.o)
 .text.__ftello_adj_rw
                0x0000000000000000       0x50 c:/program files/microchip/xc32/v4.00/bin/bin/../../lib/gcc/pic32mx/8.3.1/../../../../pic32mx/lib/fpu64\libc-musl.a(__ftello_rw.o)
 .xc_stack_usage.hdr
                0x0000000000000000        0xe c:/program files/microchip/xc32/v4.00/bin/bin/../../lib/gcc/pic32mx/8.3.1/../../../../pic32mx/lib/fpu64\libc-musl.a(__ftello_rw.o)
 .note.GNU-stack
                0x0000000000000000        0x0 c:/program files/microchip/xc32/v4.00/bin/bin/../../lib/gcc/pic32mx/8.3.1/../../../../pic32mx/lib/fpu64\libc-musl.a(__ftello_rw.o)
 .text          0x0000000000000000        0x0 c:/program files/microchip/xc32/v4.00/bin/bin/../../lib/gcc/pic32mx/8.3.1/../../../../pic32mx/lib/fpu64\libc-musl.a(__init_stdio.o)
 .data          0x0000000000000000        0x0 c:/program files/microchip/xc32/v4.00/bin/bin/../../lib/gcc/pic32mx/8.3.1/../../../../pic32mx/lib/fpu64\libc-musl.a(__init_stdio.o)
 .bss           0x0000000000000000        0x0 c:/program files/microchip/xc32/v4.00/bin/bin/../../lib/gcc/pic32mx/8.3.1/../../../../pic32mx/lib/fpu64\libc-musl.a(__init_stdio.o)
 .reginfo       0x0000000000000000       0x18 c:/program files/microchip/xc32/v4.00/bin/bin/../../lib/gcc/pic32mx/8.3.1/../../../../pic32mx/lib/fpu64\libc-musl.a(__init_stdio.o)
 .MIPS.abiflags
                0x0000000000000000       0x18 c:/program files/microchip/xc32/v4.00/bin/bin/../../lib/gcc/pic32mx/8.3.1/../../../../pic32mx/lib/fpu64\libc-musl.a(__init_stdio.o)
 .xc_stack_usage
                0x0000000000000000       0x2f c:/program files/microchip/xc32/v4.00/bin/bin/../../lib/gcc/pic32mx/8.3.1/../../../../pic32mx/lib/fpu64\libc-musl.a(__init_stdio.o)
 .text.__dummy  0x0000000000000000        0x8 c:/program files/microchip/xc32/v4.00/bin/bin/../../lib/gcc/pic32mx/8.3.1/../../../../pic32mx/lib/fpu64\libc-musl.a(__init_stdio.o)
 .text.__init_stdio
                0x0000000000000000       0x2c c:/program files/microchip/xc32/v4.00/bin/bin/../../lib/gcc/pic32mx/8.3.1/../../../../pic32mx/lib/fpu64\libc-musl.a(__init_stdio.o)
 .xc_stack_usage.hdr
                0x0000000000000000        0xe c:/program files/microchip/xc32/v4.00/bin/bin/../../lib/gcc/pic32mx/8.3.1/../../../../pic32mx/lib/fpu64\libc-musl.a(__init_stdio.o)
 .note.GNU-stack
                0x0000000000000000        0x0 c:/program files/microchip/xc32/v4.00/bin/bin/../../lib/gcc/pic32mx/8.3.1/../../../../pic32mx/lib/fpu64\libc-musl.a(__init_stdio.o)
 .text          0x0000000000000000        0x0 c:/program files/microchip/xc32/v4.00/bin/bin/../../lib/gcc/pic32mx/8.3.1/../../../../pic32mx/lib/fpu64\libc-musl.a(__io_buf_needed.o)
 .data          0x0000000000000000        0x0 c:/program files/microchip/xc32/v4.00/bin/bin/../../lib/gcc/pic32mx/8.3.1/../../../../pic32mx/lib/fpu64\libc-musl.a(__io_buf_needed.o)
 .bss           0x0000000000000000        0x0 c:/program files/microchip/xc32/v4.00/bin/bin/../../lib/gcc/pic32mx/8.3.1/../../../../pic32mx/lib/fpu64\libc-musl.a(__io_buf_needed.o)
 .reginfo       0x0000000000000000       0x18 c:/program files/microchip/xc32/v4.00/bin/bin/../../lib/gcc/pic32mx/8.3.1/../../../../pic32mx/lib/fpu64\libc-musl.a(__io_buf_needed.o)
 .MIPS.abiflags
                0x0000000000000000       0x18 c:/program files/microchip/xc32/v4.00/bin/bin/../../lib/gcc/pic32mx/8.3.1/../../../../pic32mx/lib/fpu64\libc-musl.a(__io_buf_needed.o)
 .xc_stack_usage
                0x0000000000000000       0x1d c:/program files/microchip/xc32/v4.00/bin/bin/../../lib/gcc/pic32mx/8.3.1/../../../../pic32mx/lib/fpu64\libc-musl.a(__io_buf_needed.o)
 __xc_reference_data
                0x0000000000000000       0x84 c:/program files/microchip/xc32/v4.00/bin/bin/../../lib/gcc/pic32mx/8.3.1/../../../../pic32mx/lib/fpu64\libc-musl.a(__io_buf_needed.o)
 .xc_stack_usage.hdr
                0x0000000000000000        0xe c:/program files/microchip/xc32/v4.00/bin/bin/../../lib/gcc/pic32mx/8.3.1/../../../../pic32mx/lib/fpu64\libc-musl.a(__io_buf_needed.o)
 .note.GNU-stack
                0x0000000000000000        0x0 c:/program files/microchip/xc32/v4.00/bin/bin/../../lib/gcc/pic32mx/8.3.1/../../../../pic32mx/lib/fpu64\libc-musl.a(__io_buf_needed.o)
 .text          0x0000000000000000        0x0 c:/program files/microchip/xc32/v4.00/bin/bin/../../lib/gcc/pic32mx/8.3.1/../../../../pic32mx/lib/fpu64\libc-musl.a(__io_file_needed.o)
 .data          0x0000000000000000        0x0 c:/program files/microchip/xc32/v4.00/bin/bin/../../lib/gcc/pic32mx/8.3.1/../../../../pic32mx/lib/fpu64\libc-musl.a(__io_file_needed.o)
 .bss           0x0000000000000000        0x0 c:/program files/microchip/xc32/v4.00/bin/bin/../../lib/gcc/pic32mx/8.3.1/../../../../pic32mx/lib/fpu64\libc-musl.a(__io_file_needed.o)
 .reginfo       0x0000000000000000       0x18 c:/program files/microchip/xc32/v4.00/bin/bin/../../lib/gcc/pic32mx/8.3.1/../../../../pic32mx/lib/fpu64\libc-musl.a(__io_file_needed.o)
 .MIPS.abiflags
                0x0000000000000000       0x18 c:/program files/microchip/xc32/v4.00/bin/bin/../../lib/gcc/pic32mx/8.3.1/../../../../pic32mx/lib/fpu64\libc-musl.a(__io_file_needed.o)
 .xc_stack_usage
                0x0000000000000000       0x1e c:/program files/microchip/xc32/v4.00/bin/bin/../../lib/gcc/pic32mx/8.3.1/../../../../pic32mx/lib/fpu64\libc-musl.a(__io_file_needed.o)
 __xc_reference_data
                0x0000000000000000       0x24 c:/program files/microchip/xc32/v4.00/bin/bin/../../lib/gcc/pic32mx/8.3.1/../../../../pic32mx/lib/fpu64\libc-musl.a(__io_file_needed.o)
 .xc_stack_usage.hdr
                0x0000000000000000        0xe c:/program files/microchip/xc32/v4.00/bin/bin/../../lib/gcc/pic32mx/8.3.1/../../../../pic32mx/lib/fpu64\libc-musl.a(__io_file_needed.o)
 .note.GNU-stack
                0x0000000000000000        0x0 c:/program files/microchip/xc32/v4.00/bin/bin/../../lib/gcc/pic32mx/8.3.1/../../../../pic32mx/lib/fpu64\libc-musl.a(__io_file_needed.o)
 .text          0x0000000000000000        0x0 c:/program files/microchip/xc32/v4.00/bin/bin/../../lib/gcc/pic32mx/8.3.1/../../../../pic32mx/lib/fpu64\libc-musl.a(__io_std_needed.o)
 .data          0x0000000000000000        0x0 c:/program files/microchip/xc32/v4.00/bin/bin/../../lib/gcc/pic32mx/8.3.1/../../../../pic32mx/lib/fpu64\libc-musl.a(__io_std_needed.o)
 .bss           0x0000000000000000        0x0 c:/program files/microchip/xc32/v4.00/bin/bin/../../lib/gcc/pic32mx/8.3.1/../../../../pic32mx/lib/fpu64\libc-musl.a(__io_std_needed.o)
 .reginfo       0x0000000000000000       0x18 c:/program files/microchip/xc32/v4.00/bin/bin/../../lib/gcc/pic32mx/8.3.1/../../../../pic32mx/lib/fpu64\libc-musl.a(__io_std_needed.o)
 .MIPS.abiflags
                0x0000000000000000       0x18 c:/program files/microchip/xc32/v4.00/bin/bin/../../lib/gcc/pic32mx/8.3.1/../../../../pic32mx/lib/fpu64\libc-musl.a(__io_std_needed.o)
 .xc_stack_usage
                0x0000000000000000       0x1d c:/program files/microchip/xc32/v4.00/bin/bin/../../lib/gcc/pic32mx/8.3.1/../../../../pic32mx/lib/fpu64\libc-musl.a(__io_std_needed.o)
 __xc_reference_data
                0x0000000000000000       0x74 c:/program files/microchip/xc32/v4.00/bin/bin/../../lib/gcc/pic32mx/8.3.1/../../../../pic32mx/lib/fpu64\libc-musl.a(__io_std_needed.o)
 .xc_stack_usage.hdr
                0x0000000000000000        0xe c:/program files/microchip/xc32/v4.00/bin/bin/../../lib/gcc/pic32mx/8.3.1/../../../../pic32mx/lib/fpu64\libc-musl.a(__io_std_needed.o)
 .note.GNU-stack
                0x0000000000000000        0x0 c:/program files/microchip/xc32/v4.00/bin/bin/../../lib/gcc/pic32mx/8.3.1/../../../../pic32mx/lib/fpu64\libc-musl.a(__io_std_needed.o)
 .text          0x0000000000000000        0x0 c:/program files/microchip/xc32/v4.00/bin/bin/../../lib/gcc/pic32mx/8.3.1/../../../../pic32mx/lib/fpu64\libc-musl.a(__putc.o)
 .data          0x0000000000000000        0x0 c:/program files/microchip/xc32/v4.00/bin/bin/../../lib/gcc/pic32mx/8.3.1/../../../../pic32mx/lib/fpu64\libc-musl.a(__putc.o)
 .bss           0x0000000000000000        0x0 c:/program files/microchip/xc32/v4.00/bin/bin/../../lib/gcc/pic32mx/8.3.1/../../../../pic32mx/lib/fpu64\libc-musl.a(__putc.o)
 .reginfo       0x0000000000000000       0x18 c:/program files/microchip/xc32/v4.00/bin/bin/../../lib/gcc/pic32mx/8.3.1/../../../../pic32mx/lib/fpu64\libc-musl.a(__putc.o)
 .MIPS.abiflags
                0x0000000000000000       0x18 c:/program files/microchip/xc32/v4.00/bin/bin/../../lib/gcc/pic32mx/8.3.1/../../../../pic32mx/lib/fpu64\libc-musl.a(__putc.o)
 .xc_stack_usage
                0x0000000000000000       0x14 c:/program files/microchip/xc32/v4.00/bin/bin/../../lib/gcc/pic32mx/8.3.1/../../../../pic32mx/lib/fpu64\libc-musl.a(__putc.o)
 .text.__putc   0x0000000000000000       0x74 c:/program files/microchip/xc32/v4.00/bin/bin/../../lib/gcc/pic32mx/8.3.1/../../../../pic32mx/lib/fpu64\libc-musl.a(__putc.o)
 .xc_stack_usage.hdr
                0x0000000000000000        0xe c:/program files/microchip/xc32/v4.00/bin/bin/../../lib/gcc/pic32mx/8.3.1/../../../../pic32mx/lib/fpu64\libc-musl.a(__putc.o)
 .note.GNU-stack
                0x0000000000000000        0x0 c:/program files/microchip/xc32/v4.00/bin/bin/../../lib/gcc/pic32mx/8.3.1/../../../../pic32mx/lib/fpu64\libc-musl.a(__putc.o)
 .text          0x0000000000000000        0x0 c:/program files/microchip/xc32/v4.00/bin/bin/../../lib/gcc/pic32mx/8.3.1/../../../../pic32mx/lib/fpu64\libc-musl.a(__stderr.o)
 .data          0x0000000000000000       0x68 c:/program files/microchip/xc32/v4.00/bin/bin/../../lib/gcc/pic32mx/8.3.1/../../../../pic32mx/lib/fpu64\libc-musl.a(__stderr.o)
 .bss           0x0000000000000000        0x0 c:/program files/microchip/xc32/v4.00/bin/bin/../../lib/gcc/pic32mx/8.3.1/../../../../pic32mx/lib/fpu64\libc-musl.a(__stderr.o)
 .reginfo       0x0000000000000000       0x18 c:/program files/microchip/xc32/v4.00/bin/bin/../../lib/gcc/pic32mx/8.3.1/../../../../pic32mx/lib/fpu64\libc-musl.a(__stderr.o)
 .MIPS.abiflags
                0x0000000000000000       0x18 c:/program files/microchip/xc32/v4.00/bin/bin/../../lib/gcc/pic32mx/8.3.1/../../../../pic32mx/lib/fpu64\libc-musl.a(__stderr.o)
 .xc_stack_usage
                0x0000000000000000       0x50 c:/program files/microchip/xc32/v4.00/bin/bin/../../lib/gcc/pic32mx/8.3.1/../../../../pic32mx/lib/fpu64\libc-musl.a(__stderr.o)
 .text.__dummy  0x0000000000000000        0x8 c:/program files/microchip/xc32/v4.00/bin/bin/../../lib/gcc/pic32mx/8.3.1/../../../../pic32mx/lib/fpu64\libc-musl.a(__stderr.o)
 .text.__get_stderr
                0x0000000000000000        0xc c:/program files/microchip/xc32/v4.00/bin/bin/../../lib/gcc/pic32mx/8.3.1/../../../../pic32mx/lib/fpu64\libc-musl.a(__stderr.o)
 __xc_reference_data
                0x0000000000000000       0x24 c:/program files/microchip/xc32/v4.00/bin/bin/../../lib/gcc/pic32mx/8.3.1/../../../../pic32mx/lib/fpu64\libc-musl.a(__stderr.o)
 .xc_stack_usage.hdr
                0x0000000000000000        0xe c:/program files/microchip/xc32/v4.00/bin/bin/../../lib/gcc/pic32mx/8.3.1/../../../../pic32mx/lib/fpu64\libc-musl.a(__stderr.o)
 .note.GNU-stack
                0x0000000000000000        0x0 c:/program files/microchip/xc32/v4.00/bin/bin/../../lib/gcc/pic32mx/8.3.1/../../../../pic32mx/lib/fpu64\libc-musl.a(__stderr.o)
 .text          0x0000000000000000        0x0 c:/program files/microchip/xc32/v4.00/bin/bin/../../lib/gcc/pic32mx/8.3.1/../../../../pic32mx/lib/fpu64\libc-musl.a(__stdio_exit.o)
 .data          0x0000000000000000        0x0 c:/program files/microchip/xc32/v4.00/bin/bin/../../lib/gcc/pic32mx/8.3.1/../../../../pic32mx/lib/fpu64\libc-musl.a(__stdio_exit.o)
 .bss           0x0000000000000000        0x4 c:/program files/microchip/xc32/v4.00/bin/bin/../../lib/gcc/pic32mx/8.3.1/../../../../pic32mx/lib/fpu64\libc-musl.a(__stdio_exit.o)
 .reginfo       0x0000000000000000       0x18 c:/program files/microchip/xc32/v4.00/bin/bin/../../lib/gcc/pic32mx/8.3.1/../../../../pic32mx/lib/fpu64\libc-musl.a(__stdio_exit.o)
 .MIPS.abiflags
                0x0000000000000000       0x18 c:/program files/microchip/xc32/v4.00/bin/bin/../../lib/gcc/pic32mx/8.3.1/../../../../pic32mx/lib/fpu64\libc-musl.a(__stdio_exit.o)
 .xc_stack_usage
                0x0000000000000000       0x45 c:/program files/microchip/xc32/v4.00/bin/bin/../../lib/gcc/pic32mx/8.3.1/../../../../pic32mx/lib/fpu64\libc-musl.a(__stdio_exit.o)
 .text.__dummy  0x0000000000000000        0x8 c:/program files/microchip/xc32/v4.00/bin/bin/../../lib/gcc/pic32mx/8.3.1/../../../../pic32mx/lib/fpu64\libc-musl.a(__stdio_exit.o)
 .text.__dummy1
                0x0000000000000000        0x8 c:/program files/microchip/xc32/v4.00/bin/bin/../../lib/gcc/pic32mx/8.3.1/../../../../pic32mx/lib/fpu64\libc-musl.a(__stdio_exit.o)
 .text.__stdio_exit
                0x0000000000000000       0x4c c:/program files/microchip/xc32/v4.00/bin/bin/../../lib/gcc/pic32mx/8.3.1/../../../../pic32mx/lib/fpu64\libc-musl.a(__stdio_exit.o)
 .xc_stack_usage.hdr
                0x0000000000000000        0xe c:/program files/microchip/xc32/v4.00/bin/bin/../../lib/gcc/pic32mx/8.3.1/../../../../pic32mx/lib/fpu64\libc-musl.a(__stdio_exit.o)
 .note.GNU-stack
                0x0000000000000000        0x0 c:/program files/microchip/xc32/v4.00/bin/bin/../../lib/gcc/pic32mx/8.3.1/../../../../pic32mx/lib/fpu64\libc-musl.a(__stdio_exit.o)
 .text          0x0000000000000000        0x0 c:/program files/microchip/xc32/v4.00/bin/bin/../../lib/gcc/pic32mx/8.3.1/../../../../pic32mx/lib/fpu64\libc-musl.a(__stdio_write.o)
 .data          0x0000000000000000        0x0 c:/program files/microchip/xc32/v4.00/bin/bin/../../lib/gcc/pic32mx/8.3.1/../../../../pic32mx/lib/fpu64\libc-musl.a(__stdio_write.o)
 .bss           0x0000000000000000        0x0 c:/program files/microchip/xc32/v4.00/bin/bin/../../lib/gcc/pic32mx/8.3.1/../../../../pic32mx/lib/fpu64\libc-musl.a(__stdio_write.o)
 .reginfo       0x0000000000000000       0x18 c:/program files/microchip/xc32/v4.00/bin/bin/../../lib/gcc/pic32mx/8.3.1/../../../../pic32mx/lib/fpu64\libc-musl.a(__stdio_write.o)
 .MIPS.abiflags
                0x0000000000000000       0x18 c:/program files/microchip/xc32/v4.00/bin/bin/../../lib/gcc/pic32mx/8.3.1/../../../../pic32mx/lib/fpu64\libc-musl.a(__stdio_write.o)
 .xc_stack_usage
                0x0000000000000000       0x42 c:/program files/microchip/xc32/v4.00/bin/bin/../../lib/gcc/pic32mx/8.3.1/../../../../pic32mx/lib/fpu64\libc-musl.a(__stdio_write.o)
 .xc_stack_usage.hdr
                0x0000000000000000        0xe c:/program files/microchip/xc32/v4.00/bin/bin/../../lib/gcc/pic32mx/8.3.1/../../../../pic32mx/lib/fpu64\libc-musl.a(__stdio_write.o)
 .note.GNU-stack
                0x0000000000000000        0x0 c:/program files/microchip/xc32/v4.00/bin/bin/../../lib/gcc/pic32mx/8.3.1/../../../../pic32mx/lib/fpu64\libc-musl.a(__stdio_write.o)
 .text          0x0000000000000000        0x0 c:/program files/microchip/xc32/v4.00/bin/bin/../../lib/gcc/pic32mx/8.3.1/../../../../pic32mx/lib/fpu64\libc-musl.a(__stdout.o)
 .data          0x0000000000000000       0x68 c:/program files/microchip/xc32/v4.00/bin/bin/../../lib/gcc/pic32mx/8.3.1/../../../../pic32mx/lib/fpu64\libc-musl.a(__stdout.o)
 .bss           0x0000000000000000        0x0 c:/program files/microchip/xc32/v4.00/bin/bin/../../lib/gcc/pic32mx/8.3.1/../../../../pic32mx/lib/fpu64\libc-musl.a(__stdout.o)
 .reginfo       0x0000000000000000       0x18 c:/program files/microchip/xc32/v4.00/bin/bin/../../lib/gcc/pic32mx/8.3.1/../../../../pic32mx/lib/fpu64\libc-musl.a(__stdout.o)
 .MIPS.abiflags
                0x0000000000000000       0x18 c:/program files/microchip/xc32/v4.00/bin/bin/../../lib/gcc/pic32mx/8.3.1/../../../../pic32mx/lib/fpu64\libc-musl.a(__stdout.o)
 .xc_stack_usage
                0x0000000000000000       0x50 c:/program files/microchip/xc32/v4.00/bin/bin/../../lib/gcc/pic32mx/8.3.1/../../../../pic32mx/lib/fpu64\libc-musl.a(__stdout.o)
 .text.__dummy  0x0000000000000000        0x8 c:/program files/microchip/xc32/v4.00/bin/bin/../../lib/gcc/pic32mx/8.3.1/../../../../pic32mx/lib/fpu64\libc-musl.a(__stdout.o)
 .text.__get_stdout
                0x0000000000000000        0xc c:/program files/microchip/xc32/v4.00/bin/bin/../../lib/gcc/pic32mx/8.3.1/../../../../pic32mx/lib/fpu64\libc-musl.a(__stdout.o)
 __xc_reference_data
                0x0000000000000000       0x24 c:/program files/microchip/xc32/v4.00/bin/bin/../../lib/gcc/pic32mx/8.3.1/../../../../pic32mx/lib/fpu64\libc-musl.a(__stdout.o)
 .xc_stack_usage.hdr
                0x0000000000000000        0xe c:/program files/microchip/xc32/v4.00/bin/bin/../../lib/gcc/pic32mx/8.3.1/../../../../pic32mx/lib/fpu64\libc-musl.a(__stdout.o)
 .note.GNU-stack
                0x0000000000000000        0x0 c:/program files/microchip/xc32/v4.00/bin/bin/../../lib/gcc/pic32mx/8.3.1/../../../../pic32mx/lib/fpu64\libc-musl.a(__stdout.o)
 .text          0x0000000000000000        0x0 c:/program files/microchip/xc32/v4.00/bin/bin/../../lib/gcc/pic32mx/8.3.1/../../../../pic32mx/lib/fpu64\libc-musl.a(__towrite.o)
 .data          0x0000000000000000        0x0 c:/program files/microchip/xc32/v4.00/bin/bin/../../lib/gcc/pic32mx/8.3.1/../../../../pic32mx/lib/fpu64\libc-musl.a(__towrite.o)
 .bss           0x0000000000000000        0x0 c:/program files/microchip/xc32/v4.00/bin/bin/../../lib/gcc/pic32mx/8.3.1/../../../../pic32mx/lib/fpu64\libc-musl.a(__towrite.o)
 .reginfo       0x0000000000000000       0x18 c:/program files/microchip/xc32/v4.00/bin/bin/../../lib/gcc/pic32mx/8.3.1/../../../../pic32mx/lib/fpu64\libc-musl.a(__towrite.o)
 .MIPS.abiflags
                0x0000000000000000       0x18 c:/program files/microchip/xc32/v4.00/bin/bin/../../lib/gcc/pic32mx/8.3.1/../../../../pic32mx/lib/fpu64\libc-musl.a(__towrite.o)
 .xc_stack_usage
                0x0000000000000000       0x2c c:/program files/microchip/xc32/v4.00/bin/bin/../../lib/gcc/pic32mx/8.3.1/../../../../pic32mx/lib/fpu64\libc-musl.a(__towrite.o)
 .text.__dummy  0x0000000000000000        0x8 c:/program files/microchip/xc32/v4.00/bin/bin/../../lib/gcc/pic32mx/8.3.1/../../../../pic32mx/lib/fpu64\libc-musl.a(__towrite.o)
 .xc_stack_usage.hdr
                0x0000000000000000        0xe c:/program files/microchip/xc32/v4.00/bin/bin/../../lib/gcc/pic32mx/8.3.1/../../../../pic32mx/lib/fpu64\libc-musl.a(__towrite.o)
 .note.GNU-stack
                0x0000000000000000        0x0 c:/program files/microchip/xc32/v4.00/bin/bin/../../lib/gcc/pic32mx/8.3.1/../../../../pic32mx/lib/fpu64\libc-musl.a(__towrite.o)
 .text          0x0000000000000000        0x0 c:/program files/microchip/xc32/v4.00/bin/bin/../../lib/gcc/pic32mx/8.3.1/../../../../pic32mx/lib/fpu64\libc-musl.a(putc.o)
 .data          0x0000000000000000        0x0 c:/program files/microchip/xc32/v4.00/bin/bin/../../lib/gcc/pic32mx/8.3.1/../../../../pic32mx/lib/fpu64\libc-musl.a(putc.o)
 .bss           0x0000000000000000        0x0 c:/program files/microchip/xc32/v4.00/bin/bin/../../lib/gcc/pic32mx/8.3.1/../../../../pic32mx/lib/fpu64\libc-musl.a(putc.o)
 .reginfo       0x0000000000000000       0x18 c:/program files/microchip/xc32/v4.00/bin/bin/../../lib/gcc/pic32mx/8.3.1/../../../../pic32mx/lib/fpu64\libc-musl.a(putc.o)
 .MIPS.abiflags
                0x0000000000000000       0x18 c:/program files/microchip/xc32/v4.00/bin/bin/../../lib/gcc/pic32mx/8.3.1/../../../../pic32mx/lib/fpu64\libc-musl.a(putc.o)
 .xc_stack_usage
                0x0000000000000000       0x4f c:/program files/microchip/xc32/v4.00/bin/bin/../../lib/gcc/pic32mx/8.3.1/../../../../pic32mx/lib/fpu64\libc-musl.a(putc.o)
 .text.__putc_unbuffered
                0x0000000000000000       0x60 c:/program files/microchip/xc32/v4.00/bin/bin/../../lib/gcc/pic32mx/8.3.1/../../../../pic32mx/lib/fpu64\libc-musl.a(putc.o)
 .text.putc     0x0000000000000000       0x1c c:/program files/microchip/xc32/v4.00/bin/bin/../../lib/gcc/pic32mx/8.3.1/../../../../pic32mx/lib/fpu64\libc-musl.a(putc.o)
 __xc_reference_data
                0x0000000000000000       0x24 c:/program files/microchip/xc32/v4.00/bin/bin/../../lib/gcc/pic32mx/8.3.1/../../../../pic32mx/lib/fpu64\libc-musl.a(putc.o)
 .xc_stack_usage.hdr
                0x0000000000000000        0xe c:/program files/microchip/xc32/v4.00/bin/bin/../../lib/gcc/pic32mx/8.3.1/../../../../pic32mx/lib/fpu64\libc-musl.a(putc.o)
 .note.GNU-stack
                0x0000000000000000        0x0 c:/program files/microchip/xc32/v4.00/bin/bin/../../lib/gcc/pic32mx/8.3.1/../../../../pic32mx/lib/fpu64\libc-musl.a(putc.o)
 .text          0x0000000000000000        0x0 c:/program files/microchip/xc32/v4.00/bin/bin/../../lib/gcc/pic32mx/8.3.1/../../../../pic32mx/lib/fpu64\libc-musl.a(read.o)
 .data          0x0000000000000000        0x0 c:/program files/microchip/xc32/v4.00/bin/bin/../../lib/gcc/pic32mx/8.3.1/../../../../pic32mx/lib/fpu64\libc-musl.a(read.o)
 .bss           0x0000000000000000        0x0 c:/program files/microchip/xc32/v4.00/bin/bin/../../lib/gcc/pic32mx/8.3.1/../../../../pic32mx/lib/fpu64\libc-musl.a(read.o)
 .reginfo       0x0000000000000000       0x18 c:/program files/microchip/xc32/v4.00/bin/bin/../../lib/gcc/pic32mx/8.3.1/../../../../pic32mx/lib/fpu64\libc-musl.a(read.o)
 .MIPS.abiflags
                0x0000000000000000       0x18 c:/program files/microchip/xc32/v4.00/bin/bin/../../lib/gcc/pic32mx/8.3.1/../../../../pic32mx/lib/fpu64\libc-musl.a(read.o)
 .xc_stack_usage
                0x0000000000000000       0x14 c:/program files/microchip/xc32/v4.00/bin/bin/../../lib/gcc/pic32mx/8.3.1/../../../../pic32mx/lib/fpu64\libc-musl.a(read.o)
 .gnu.warning.read
                0x0000000000000000        0x0 c:/program files/microchip/xc32/v4.00/bin/bin/../../lib/gcc/pic32mx/8.3.1/../../../../pic32mx/lib/fpu64\libc-musl.a(read.o)
 .xc_stack_usage.hdr
                0x0000000000000000        0xe c:/program files/microchip/xc32/v4.00/bin/bin/../../lib/gcc/pic32mx/8.3.1/../../../../pic32mx/lib/fpu64\libc-musl.a(read.o)
 .note.GNU-stack
                0x0000000000000000        0x0 c:/program files/microchip/xc32/v4.00/bin/bin/../../lib/gcc/pic32mx/8.3.1/../../../../pic32mx/lib/fpu64\libc-musl.a(read.o)
 .text          0x0000000000000000        0x0 c:/program files/microchip/xc32/v4.00/bin/bin/../../lib/gcc/pic32mx/8.3.1/../../../../pic32mx/lib/fpu64\libc-musl.a(writev.o)
 .data          0x0000000000000000        0x0 c:/program files/microchip/xc32/v4.00/bin/bin/../../lib/gcc/pic32mx/8.3.1/../../../../pic32mx/lib/fpu64\libc-musl.a(writev.o)
 .bss           0x0000000000000000        0x0 c:/program files/microchip/xc32/v4.00/bin/bin/../../lib/gcc/pic32mx/8.3.1/../../../../pic32mx/lib/fpu64\libc-musl.a(writev.o)
 .reginfo       0x0000000000000000       0x18 c:/program files/microchip/xc32/v4.00/bin/bin/../../lib/gcc/pic32mx/8.3.1/../../../../pic32mx/lib/fpu64\libc-musl.a(writev.o)
 .MIPS.abiflags
                0x0000000000000000       0x18 c:/program files/microchip/xc32/v4.00/bin/bin/../../lib/gcc/pic32mx/8.3.1/../../../../pic32mx/lib/fpu64\libc-musl.a(writev.o)
 .xc_stack_usage
                0x0000000000000000       0x16 c:/program files/microchip/xc32/v4.00/bin/bin/../../lib/gcc/pic32mx/8.3.1/../../../../pic32mx/lib/fpu64\libc-musl.a(writev.o)
 .xc_stack_usage.hdr
                0x0000000000000000        0xe c:/program files/microchip/xc32/v4.00/bin/bin/../../lib/gcc/pic32mx/8.3.1/../../../../pic32mx/lib/fpu64\libc-musl.a(writev.o)
 .note.GNU-stack
                0x0000000000000000        0x0 c:/program files/microchip/xc32/v4.00/bin/bin/../../lib/gcc/pic32mx/8.3.1/../../../../pic32mx/lib/fpu64\libc-musl.a(writev.o)
 .text          0x0000000000000000        0x0 c:/program files/microchip/xc32/v4.00/bin/bin/../../lib/gcc/pic32mx/8.3.1/../../../../pic32mx/lib/fpu64\libc-musl.a(libc.o)
 .data          0x0000000000000000        0x0 c:/program files/microchip/xc32/v4.00/bin/bin/../../lib/gcc/pic32mx/8.3.1/../../../../pic32mx/lib/fpu64\libc-musl.a(libc.o)
 .reginfo       0x0000000000000000       0x18 c:/program files/microchip/xc32/v4.00/bin/bin/../../lib/gcc/pic32mx/8.3.1/../../../../pic32mx/lib/fpu64\libc-musl.a(libc.o)
 .MIPS.abiflags
                0x0000000000000000       0x18 c:/program files/microchip/xc32/v4.00/bin/bin/../../lib/gcc/pic32mx/8.3.1/../../../../pic32mx/lib/fpu64\libc-musl.a(libc.o)
 .xc_stack_usage.hdr
                0x0000000000000000        0xe c:/program files/microchip/xc32/v4.00/bin/bin/../../lib/gcc/pic32mx/8.3.1/../../../../pic32mx/lib/fpu64\libc-musl.a(libc.o)
 .note.GNU-stack
                0x0000000000000000        0x0 c:/program files/microchip/xc32/v4.00/bin/bin/../../lib/gcc/pic32mx/8.3.1/../../../../pic32mx/lib/fpu64\libc-musl.a(libc.o)
 .text          0x0000000000000000        0x0 c:/program files/microchip/xc32/v4.00/bin/bin/../../lib/gcc/pic32mx/8.3.1/../../../../pic32mx/lib/fpu64\libc-musl.a(syscall_ret.o)
 .data          0x0000000000000000        0x0 c:/program files/microchip/xc32/v4.00/bin/bin/../../lib/gcc/pic32mx/8.3.1/../../../../pic32mx/lib/fpu64\libc-musl.a(syscall_ret.o)
 .bss           0x0000000000000000        0x0 c:/program files/microchip/xc32/v4.00/bin/bin/../../lib/gcc/pic32mx/8.3.1/../../../../pic32mx/lib/fpu64\libc-musl.a(syscall_ret.o)
 .reginfo       0x0000000000000000       0x18 c:/program files/microchip/xc32/v4.00/bin/bin/../../lib/gcc/pic32mx/8.3.1/../../../../pic32mx/lib/fpu64\libc-musl.a(syscall_ret.o)
 .MIPS.abiflags
                0x0000000000000000       0x18 c:/program files/microchip/xc32/v4.00/bin/bin/../../lib/gcc/pic32mx/8.3.1/../../../../pic32mx/lib/fpu64\libc-musl.a(syscall_ret.o)
 .xc_stack_usage
                0x0000000000000000       0x1b c:/program files/microchip/xc32/v4.00/bin/bin/../../lib/gcc/pic32mx/8.3.1/../../../../pic32mx/lib/fpu64\libc-musl.a(syscall_ret.o)
 .xc_stack_usage.hdr
                0x0000000000000000        0xe c:/program files/microchip/xc32/v4.00/bin/bin/../../lib/gcc/pic32mx/8.3.1/../../../../pic32mx/lib/fpu64\libc-musl.a(syscall_ret.o)
 .note.GNU-stack
                0x0000000000000000        0x0 c:/program files/microchip/xc32/v4.00/bin/bin/../../lib/gcc/pic32mx/8.3.1/../../../../pic32mx/lib/fpu64\libc-musl.a(syscall_ret.o)
 .text          0x0000000000000000        0x0 c:/program files/microchip/xc32/v4.00/bin/bin/../../lib/gcc/pic32mx/8.3.1/../../../../pic32mx/lib/fpu64\libc-musl.a(__int_vfprintf.o)
 .data          0x0000000000000000        0x0 c:/program files/microchip/xc32/v4.00/bin/bin/../../lib/gcc/pic32mx/8.3.1/../../../../pic32mx/lib/fpu64\libc-musl.a(__int_vfprintf.o)
 .bss           0x0000000000000000        0x0 c:/program files/microchip/xc32/v4.00/bin/bin/../../lib/gcc/pic32mx/8.3.1/../../../../pic32mx/lib/fpu64\libc-musl.a(__int_vfprintf.o)
 .reginfo       0x0000000000000000       0x18 c:/program files/microchip/xc32/v4.00/bin/bin/../../lib/gcc/pic32mx/8.3.1/../../../../pic32mx/lib/fpu64\libc-musl.a(__int_vfprintf.o)
 .MIPS.abiflags
                0x0000000000000000       0x18 c:/program files/microchip/xc32/v4.00/bin/bin/../../lib/gcc/pic32mx/8.3.1/../../../../pic32mx/lib/fpu64\libc-musl.a(__int_vfprintf.o)
 .xc_stack_usage
                0x0000000000000000       0x18 c:/program files/microchip/xc32/v4.00/bin/bin/../../lib/gcc/pic32mx/8.3.1/../../../../pic32mx/lib/fpu64\libc-musl.a(__int_vfprintf.o)
 .xc_stack_usage.hdr
                0x0000000000000000        0xe c:/program files/microchip/xc32/v4.00/bin/bin/../../lib/gcc/pic32mx/8.3.1/../../../../pic32mx/lib/fpu64\libc-musl.a(__int_vfprintf.o)
 .note.GNU-stack
                0x0000000000000000        0x0 c:/program files/microchip/xc32/v4.00/bin/bin/../../lib/gcc/pic32mx/8.3.1/../../../../pic32mx/lib/fpu64\libc-musl.a(__int_vfprintf.o)
 .text          0x0000000000000000        0x0 c:/program files/microchip/xc32/v4.00/bin/bin/../../lib/gcc/pic32mx/8.3.1/../../../../pic32mx/lib/fpu64\libc-musl.a(__overflow.o)
 .data          0x0000000000000000        0x0 c:/program files/microchip/xc32/v4.00/bin/bin/../../lib/gcc/pic32mx/8.3.1/../../../../pic32mx/lib/fpu64\libc-musl.a(__overflow.o)
 .bss           0x0000000000000000        0x0 c:/program files/microchip/xc32/v4.00/bin/bin/../../lib/gcc/pic32mx/8.3.1/../../../../pic32mx/lib/fpu64\libc-musl.a(__overflow.o)
 .reginfo       0x0000000000000000       0x18 c:/program files/microchip/xc32/v4.00/bin/bin/../../lib/gcc/pic32mx/8.3.1/../../../../pic32mx/lib/fpu64\libc-musl.a(__overflow.o)
 .MIPS.abiflags
                0x0000000000000000       0x18 c:/program files/microchip/xc32/v4.00/bin/bin/../../lib/gcc/pic32mx/8.3.1/../../../../pic32mx/lib/fpu64\libc-musl.a(__overflow.o)
 .xc_stack_usage
                0x0000000000000000       0x18 c:/program files/microchip/xc32/v4.00/bin/bin/../../lib/gcc/pic32mx/8.3.1/../../../../pic32mx/lib/fpu64\libc-musl.a(__overflow.o)
 .text.__overflow
                0x0000000000000000       0x98 c:/program files/microchip/xc32/v4.00/bin/bin/../../lib/gcc/pic32mx/8.3.1/../../../../pic32mx/lib/fpu64\libc-musl.a(__overflow.o)
 .xc_stack_usage.hdr
                0x0000000000000000        0xe c:/program files/microchip/xc32/v4.00/bin/bin/../../lib/gcc/pic32mx/8.3.1/../../../../pic32mx/lib/fpu64\libc-musl.a(__overflow.o)
 .note.GNU-stack
                0x0000000000000000        0x0 c:/program files/microchip/xc32/v4.00/bin/bin/../../lib/gcc/pic32mx/8.3.1/../../../../pic32mx/lib/fpu64\libc-musl.a(__overflow.o)
 .text          0x0000000000000000        0x0 c:/program files/microchip/xc32/v4.00/bin/bin/../../lib/gcc/pic32mx/8.3.1/../../../../pic32mx/lib/fpu64\libc-musl.a(__fclose.o)
 .data          0x0000000000000000        0x0 c:/program files/microchip/xc32/v4.00/bin/bin/../../lib/gcc/pic32mx/8.3.1/../../../../pic32mx/lib/fpu64\libc-musl.a(__fclose.o)
 .bss           0x0000000000000000        0x0 c:/program files/microchip/xc32/v4.00/bin/bin/../../lib/gcc/pic32mx/8.3.1/../../../../pic32mx/lib/fpu64\libc-musl.a(__fclose.o)
 .reginfo       0x0000000000000000       0x18 c:/program files/microchip/xc32/v4.00/bin/bin/../../lib/gcc/pic32mx/8.3.1/../../../../pic32mx/lib/fpu64\libc-musl.a(__fclose.o)
 .MIPS.abiflags
                0x0000000000000000       0x18 c:/program files/microchip/xc32/v4.00/bin/bin/../../lib/gcc/pic32mx/8.3.1/../../../../pic32mx/lib/fpu64\libc-musl.a(__fclose.o)
 .xc_stack_usage
                0x0000000000000000       0x16 c:/program files/microchip/xc32/v4.00/bin/bin/../../lib/gcc/pic32mx/8.3.1/../../../../pic32mx/lib/fpu64\libc-musl.a(__fclose.o)
 .text.__fclose
                0x0000000000000000       0x38 c:/program files/microchip/xc32/v4.00/bin/bin/../../lib/gcc/pic32mx/8.3.1/../../../../pic32mx/lib/fpu64\libc-musl.a(__fclose.o)
 .xc_stack_usage.hdr
                0x0000000000000000        0xe c:/program files/microchip/xc32/v4.00/bin/bin/../../lib/gcc/pic32mx/8.3.1/../../../../pic32mx/lib/fpu64\libc-musl.a(__fclose.o)
 .note.GNU-stack
                0x0000000000000000        0x0 c:/program files/microchip/xc32/v4.00/bin/bin/../../lib/gcc/pic32mx/8.3.1/../../../../pic32mx/lib/fpu64\libc-musl.a(__fclose.o)
 .text          0x0000000000000000        0x0 c:/program files/microchip/xc32/v4.00/bin/bin/../../lib/gcc/pic32mx/8.3.1/../../../../pic32mx/lib/fpu64\libc-musl.a(__fseeko.o)
 .data          0x0000000000000000        0x0 c:/program files/microchip/xc32/v4.00/bin/bin/../../lib/gcc/pic32mx/8.3.1/../../../../pic32mx/lib/fpu64\libc-musl.a(__fseeko.o)
 .bss           0x0000000000000000        0x0 c:/program files/microchip/xc32/v4.00/bin/bin/../../lib/gcc/pic32mx/8.3.1/../../../../pic32mx/lib/fpu64\libc-musl.a(__fseeko.o)
 .reginfo       0x0000000000000000       0x18 c:/program files/microchip/xc32/v4.00/bin/bin/../../lib/gcc/pic32mx/8.3.1/../../../../pic32mx/lib/fpu64\libc-musl.a(__fseeko.o)
 .MIPS.abiflags
                0x0000000000000000       0x18 c:/program files/microchip/xc32/v4.00/bin/bin/../../lib/gcc/pic32mx/8.3.1/../../../../pic32mx/lib/fpu64\libc-musl.a(__fseeko.o)
 .xc_stack_usage
                0x0000000000000000       0x16 c:/program files/microchip/xc32/v4.00/bin/bin/../../lib/gcc/pic32mx/8.3.1/../../../../pic32mx/lib/fpu64\libc-musl.a(__fseeko.o)
 .text.__fseeko
                0x0000000000000000       0x28 c:/program files/microchip/xc32/v4.00/bin/bin/../../lib/gcc/pic32mx/8.3.1/../../../../pic32mx/lib/fpu64\libc-musl.a(__fseeko.o)
 .xc_stack_usage.hdr
                0x0000000000000000        0xe c:/program files/microchip/xc32/v4.00/bin/bin/../../lib/gcc/pic32mx/8.3.1/../../../../pic32mx/lib/fpu64\libc-musl.a(__fseeko.o)
 .note.GNU-stack
                0x0000000000000000        0x0 c:/program files/microchip/xc32/v4.00/bin/bin/../../lib/gcc/pic32mx/8.3.1/../../../../pic32mx/lib/fpu64\libc-musl.a(__fseeko.o)
 .text          0x0000000000000000        0x0 c:/program files/microchip/xc32/v4.00/bin/bin/../../lib/gcc/pic32mx/8.3.1/../../../../pic32mx/lib/fpu64\libc-musl.a(__ftello.o)
 .data          0x0000000000000000        0x0 c:/program files/microchip/xc32/v4.00/bin/bin/../../lib/gcc/pic32mx/8.3.1/../../../../pic32mx/lib/fpu64\libc-musl.a(__ftello.o)
 .bss           0x0000000000000000        0x0 c:/program files/microchip/xc32/v4.00/bin/bin/../../lib/gcc/pic32mx/8.3.1/../../../../pic32mx/lib/fpu64\libc-musl.a(__ftello.o)
 .reginfo       0x0000000000000000       0x18 c:/program files/microchip/xc32/v4.00/bin/bin/../../lib/gcc/pic32mx/8.3.1/../../../../pic32mx/lib/fpu64\libc-musl.a(__ftello.o)
 .MIPS.abiflags
                0x0000000000000000       0x18 c:/program files/microchip/xc32/v4.00/bin/bin/../../lib/gcc/pic32mx/8.3.1/../../../../pic32mx/lib/fpu64\libc-musl.a(__ftello.o)
 .xc_stack_usage
                0x0000000000000000       0x2f c:/program files/microchip/xc32/v4.00/bin/bin/../../lib/gcc/pic32mx/8.3.1/../../../../pic32mx/lib/fpu64\libc-musl.a(__ftello.o)
 .text.__dummy  0x0000000000000000       0x34 c:/program files/microchip/xc32/v4.00/bin/bin/../../lib/gcc/pic32mx/8.3.1/../../../../pic32mx/lib/fpu64\libc-musl.a(__ftello.o)
 .text.__ftello_adj
                0x0000000000000000       0x1c c:/program files/microchip/xc32/v4.00/bin/bin/../../lib/gcc/pic32mx/8.3.1/../../../../pic32mx/lib/fpu64\libc-musl.a(__ftello.o)
 .xc_stack_usage.hdr
                0x0000000000000000        0xe c:/program files/microchip/xc32/v4.00/bin/bin/../../lib/gcc/pic32mx/8.3.1/../../../../pic32mx/lib/fpu64\libc-musl.a(__ftello.o)
 .note.GNU-stack
                0x0000000000000000        0x0 c:/program files/microchip/xc32/v4.00/bin/bin/../../lib/gcc/pic32mx/8.3.1/../../../../pic32mx/lib/fpu64\libc-musl.a(__ftello.o)
 .text          0x0000000000000000        0x0 c:/program files/microchip/xc32/v4.00/bin/bin/../../lib/gcc/pic32mx/8.3.1/../../../../pic32mx/lib/fpu64\libc-musl.a(__fwrite.o)
 .data          0x0000000000000000        0x0 c:/program files/microchip/xc32/v4.00/bin/bin/../../lib/gcc/pic32mx/8.3.1/../../../../pic32mx/lib/fpu64\libc-musl.a(__fwrite.o)
 .bss           0x0000000000000000        0x0 c:/program files/microchip/xc32/v4.00/bin/bin/../../lib/gcc/pic32mx/8.3.1/../../../../pic32mx/lib/fpu64\libc-musl.a(__fwrite.o)
 .reginfo       0x0000000000000000       0x18 c:/program files/microchip/xc32/v4.00/bin/bin/../../lib/gcc/pic32mx/8.3.1/../../../../pic32mx/lib/fpu64\libc-musl.a(__fwrite.o)
 .MIPS.abiflags
                0x0000000000000000       0x18 c:/program files/microchip/xc32/v4.00/bin/bin/../../lib/gcc/pic32mx/8.3.1/../../../../pic32mx/lib/fpu64\libc-musl.a(__fwrite.o)
 .xc_stack_usage
                0x0000000000000000       0x36 c:/program files/microchip/xc32/v4.00/bin/bin/../../lib/gcc/pic32mx/8.3.1/../../../../pic32mx/lib/fpu64\libc-musl.a(__fwrite.o)
 __xc_reference_data
                0x0000000000000000       0x24 c:/program files/microchip/xc32/v4.00/bin/bin/../../lib/gcc/pic32mx/8.3.1/../../../../pic32mx/lib/fpu64\libc-musl.a(__fwrite.o)
 .xc_stack_usage.hdr
                0x0000000000000000        0xe c:/program files/microchip/xc32/v4.00/bin/bin/../../lib/gcc/pic32mx/8.3.1/../../../../pic32mx/lib/fpu64\libc-musl.a(__fwrite.o)
 .note.GNU-stack
                0x0000000000000000        0x0 c:/program files/microchip/xc32/v4.00/bin/bin/../../lib/gcc/pic32mx/8.3.1/../../../../pic32mx/lib/fpu64\libc-musl.a(__fwrite.o)
 .text          0x0000000000000000        0x0 c:/program files/microchip/xc32/v4.00/bin/bin/../../lib/gcc/pic32mx/8.3.1/../../../../pic32mx/lib/fpu64\libpic32.a(sbrk.o)
 .data          0x0000000000000000        0x0 c:/program files/microchip/xc32/v4.00/bin/bin/../../lib/gcc/pic32mx/8.3.1/../../../../pic32mx/lib/fpu64\libpic32.a(sbrk.o)
 .reginfo       0x0000000000000000       0x18 c:/program files/microchip/xc32/v4.00/bin/bin/../../lib/gcc/pic32mx/8.3.1/../../../../pic32mx/lib/fpu64\libpic32.a(sbrk.o)
 .MIPS.abiflags
                0x0000000000000000       0x18 c:/program files/microchip/xc32/v4.00/bin/bin/../../lib/gcc/pic32mx/8.3.1/../../../../pic32mx/lib/fpu64\libpic32.a(sbrk.o)
 .xc_stack_usage
                0x0000000000000000       0x77 c:/program files/microchip/xc32/v4.00/bin/bin/../../lib/gcc/pic32mx/8.3.1/../../../../pic32mx/lib/fpu64\libpic32.a(sbrk.o)
 .text.getpagesize
                0x0000000000000000        0x8 c:/program files/microchip/xc32/v4.00/bin/bin/../../lib/gcc/pic32mx/8.3.1/../../../../pic32mx/lib/fpu64\libpic32.a(sbrk.o)
 .text.sbrk     0x0000000000000000       0x4c c:/program files/microchip/xc32/v4.00/bin/bin/../../lib/gcc/pic32mx/8.3.1/../../../../pic32mx/lib/fpu64\libpic32.a(sbrk.o)
 .xc_stack_usage.hdr
                0x0000000000000000        0xe c:/program files/microchip/xc32/v4.00/bin/bin/../../lib/gcc/pic32mx/8.3.1/../../../../pic32mx/lib/fpu64\libpic32.a(sbrk.o)
 .text          0x0000000000000000        0x0 c:/program files/microchip/xc32/v4.00/bin/bin/../../lib/gcc/pic32mx/8.3.1/../../../../pic32mx/lib/fpu64\libpic32.a(write.o)
 .data          0x0000000000000000        0x0 c:/program files/microchip/xc32/v4.00/bin/bin/../../lib/gcc/pic32mx/8.3.1/../../../../pic32mx/lib/fpu64\libpic32.a(write.o)
 .bss           0x0000000000000000        0x0 c:/program files/microchip/xc32/v4.00/bin/bin/../../lib/gcc/pic32mx/8.3.1/../../../../pic32mx/lib/fpu64\libpic32.a(write.o)
 .reginfo       0x0000000000000000       0x18 c:/program files/microchip/xc32/v4.00/bin/bin/../../lib/gcc/pic32mx/8.3.1/../../../../pic32mx/lib/fpu64\libpic32.a(write.o)
 .MIPS.abiflags
                0x0000000000000000       0x18 c:/program files/microchip/xc32/v4.00/bin/bin/../../lib/gcc/pic32mx/8.3.1/../../../../pic32mx/lib/fpu64\libpic32.a(write.o)
 .xc_stack_usage
                0x0000000000000000       0x13 c:/program files/microchip/xc32/v4.00/bin/bin/../../lib/gcc/pic32mx/8.3.1/../../../../pic32mx/lib/fpu64\libpic32.a(write.o)
 .xc_stack_usage.hdr
                0x0000000000000000        0xe c:/program files/microchip/xc32/v4.00/bin/bin/../../lib/gcc/pic32mx/8.3.1/../../../../pic32mx/lib/fpu64\libpic32.a(write.o)
 .text          0x0000000000000000        0x0 c:/program files/microchip/xc32/v4.00/bin/bin/../../lib/gcc/pic32mx/8.3.1/../../../../pic32mx/lib/fpu64\libpic32.a(lseek.o)
 .data          0x0000000000000000        0x0 c:/program files/microchip/xc32/v4.00/bin/bin/../../lib/gcc/pic32mx/8.3.1/../../../../pic32mx/lib/fpu64\libpic32.a(lseek.o)
 .bss           0x0000000000000000        0x0 c:/program files/microchip/xc32/v4.00/bin/bin/../../lib/gcc/pic32mx/8.3.1/../../../../pic32mx/lib/fpu64\libpic32.a(lseek.o)
 .reginfo       0x0000000000000000       0x18 c:/program files/microchip/xc32/v4.00/bin/bin/../../lib/gcc/pic32mx/8.3.1/../../../../pic32mx/lib/fpu64\libpic32.a(lseek.o)
 .MIPS.abiflags
                0x0000000000000000       0x18 c:/program files/microchip/xc32/v4.00/bin/bin/../../lib/gcc/pic32mx/8.3.1/../../../../pic32mx/lib/fpu64\libpic32.a(lseek.o)
 .xc_stack_usage
                0x0000000000000000       0x13 c:/program files/microchip/xc32/v4.00/bin/bin/../../lib/gcc/pic32mx/8.3.1/../../../../pic32mx/lib/fpu64\libpic32.a(lseek.o)
 .xc_stack_usage.hdr
                0x0000000000000000        0xe c:/program files/microchip/xc32/v4.00/bin/bin/../../lib/gcc/pic32mx/8.3.1/../../../../pic32mx/lib/fpu64\libpic32.a(lseek.o)
 .text          0x0000000000000000        0x0 c:/program files/microchip/xc32/v4.00/bin/bin/../../lib/gcc/pic32mx/8.3.1/../../../../pic32mx/lib/fpu64\libpic32.a(close.o)
 .data          0x0000000000000000        0x0 c:/program files/microchip/xc32/v4.00/bin/bin/../../lib/gcc/pic32mx/8.3.1/../../../../pic32mx/lib/fpu64\libpic32.a(close.o)
 .bss           0x0000000000000000        0x0 c:/program files/microchip/xc32/v4.00/bin/bin/../../lib/gcc/pic32mx/8.3.1/../../../../pic32mx/lib/fpu64\libpic32.a(close.o)
 .reginfo       0x0000000000000000       0x18 c:/program files/microchip/xc32/v4.00/bin/bin/../../lib/gcc/pic32mx/8.3.1/../../../../pic32mx/lib/fpu64\libpic32.a(close.o)
 .MIPS.abiflags
                0x0000000000000000       0x18 c:/program files/microchip/xc32/v4.00/bin/bin/../../lib/gcc/pic32mx/8.3.1/../../../../pic32mx/lib/fpu64\libpic32.a(close.o)
 .xc_stack_usage
                0x0000000000000000       0x13 c:/program files/microchip/xc32/v4.00/bin/bin/../../lib/gcc/pic32mx/8.3.1/../../../../pic32mx/lib/fpu64\libpic32.a(close.o)
 .xc_stack_usage.hdr
                0x0000000000000000        0xe c:/program files/microchip/xc32/v4.00/bin/bin/../../lib/gcc/pic32mx/8.3.1/../../../../pic32mx/lib/fpu64\libpic32.a(close.o)
 .text          0x0000000000000000        0x0 c:/program files/microchip/xc32/v4.00/bin/bin/../../lib/gcc/pic32mx/8.3.1/../../../../pic32mx/lib/fpu64\libpic32.a(errno.o)
 .data          0x0000000000000000        0x0 c:/program files/microchip/xc32/v4.00/bin/bin/../../lib/gcc/pic32mx/8.3.1/../../../../pic32mx/lib/fpu64\libpic32.a(errno.o)
 .bss           0x0000000000000000        0x0 c:/program files/microchip/xc32/v4.00/bin/bin/../../lib/gcc/pic32mx/8.3.1/../../../../pic32mx/lib/fpu64\libpic32.a(errno.o)
 .reginfo       0x0000000000000000       0x18 c:/program files/microchip/xc32/v4.00/bin/bin/../../lib/gcc/pic32mx/8.3.1/../../../../pic32mx/lib/fpu64\libpic32.a(errno.o)
 .MIPS.abiflags
                0x0000000000000000       0x18 c:/program files/microchip/xc32/v4.00/bin/bin/../../lib/gcc/pic32mx/8.3.1/../../../../pic32mx/lib/fpu64\libpic32.a(errno.o)
 .xc_stack_usage.hdr
                0x0000000000000000        0xe c:/program files/microchip/xc32/v4.00/bin/bin/../../lib/gcc/pic32mx/8.3.1/../../../../pic32mx/lib/fpu64\libpic32.a(errno.o)
 .data          0x0000000000000000        0x0 c:/program files/microchip/xc32/v4.00/bin/bin/../../lib/gcc/pic32mx/8.3.1/fpu64\libgcc.a(_lshrdi3.o)
 .bss           0x0000000000000000        0x0 c:/program files/microchip/xc32/v4.00/bin/bin/../../lib/gcc/pic32mx/8.3.1/fpu64\libgcc.a(_lshrdi3.o)
 .reginfo       0x0000000000000000       0x18 c:/program files/microchip/xc32/v4.00/bin/bin/../../lib/gcc/pic32mx/8.3.1/fpu64\libgcc.a(_lshrdi3.o)
 .MIPS.abiflags
                0x0000000000000000       0x18 c:/program files/microchip/xc32/v4.00/bin/bin/../../lib/gcc/pic32mx/8.3.1/fpu64\libgcc.a(_lshrdi3.o)
 .xc_stack_usage
                0x0000000000000000       0x17 c:/program files/microchip/xc32/v4.00/bin/bin/../../lib/gcc/pic32mx/8.3.1/fpu64\libgcc.a(_lshrdi3.o)
 .xc_stack_usage.hdr
                0x0000000000000000        0xe c:/program files/microchip/xc32/v4.00/bin/bin/../../lib/gcc/pic32mx/8.3.1/fpu64\libgcc.a(_lshrdi3.o)
 .data          0x0000000000000000        0x0 c:/program files/microchip/xc32/v4.00/bin/bin/../../lib/gcc/pic32mx/8.3.1/fpu64\libgcc.a(_ashldi3.o)
 .bss           0x0000000000000000        0x0 c:/program files/microchip/xc32/v4.00/bin/bin/../../lib/gcc/pic32mx/8.3.1/fpu64\libgcc.a(_ashldi3.o)
 .reginfo       0x0000000000000000       0x18 c:/program files/microchip/xc32/v4.00/bin/bin/../../lib/gcc/pic32mx/8.3.1/fpu64\libgcc.a(_ashldi3.o)
 .MIPS.abiflags
                0x0000000000000000       0x18 c:/program files/microchip/xc32/v4.00/bin/bin/../../lib/gcc/pic32mx/8.3.1/fpu64\libgcc.a(_ashldi3.o)
 .xc_stack_usage
                0x0000000000000000       0x17 c:/program files/microchip/xc32/v4.00/bin/bin/../../lib/gcc/pic32mx/8.3.1/fpu64\libgcc.a(_ashldi3.o)
 .xc_stack_usage.hdr
                0x0000000000000000        0xe c:/program files/microchip/xc32/v4.00/bin/bin/../../lib/gcc/pic32mx/8.3.1/fpu64\libgcc.a(_ashldi3.o)
 .data          0x0000000000000000        0x0 c:/program files/microchip/xc32/v4.00/bin/bin/../../lib/gcc/pic32mx/8.3.1/fpu64\libgcc.a(_umoddi3.o)
 .bss           0x0000000000000000        0x0 c:/program files/microchip/xc32/v4.00/bin/bin/../../lib/gcc/pic32mx/8.3.1/fpu64\libgcc.a(_umoddi3.o)
 .reginfo       0x0000000000000000       0x18 c:/program files/microchip/xc32/v4.00/bin/bin/../../lib/gcc/pic32mx/8.3.1/fpu64\libgcc.a(_umoddi3.o)
 .MIPS.abiflags
                0x0000000000000000       0x18 c:/program files/microchip/xc32/v4.00/bin/bin/../../lib/gcc/pic32mx/8.3.1/fpu64\libgcc.a(_umoddi3.o)
 .xc_stack_usage
                0x0000000000000000       0x17 c:/program files/microchip/xc32/v4.00/bin/bin/../../lib/gcc/pic32mx/8.3.1/fpu64\libgcc.a(_umoddi3.o)
 .xc_stack_usage.hdr
                0x0000000000000000        0xe c:/program files/microchip/xc32/v4.00/bin/bin/../../lib/gcc/pic32mx/8.3.1/fpu64\libgcc.a(_umoddi3.o)

Memory Configuration

Name             Origin             Length             Attributes
kseg0_program_mem 0x000000009d000000 0x0000000000200000 xr
kseg0_boot_mem   0x000000009fc004b0 0x0000000000000000
kseg1_boot_mem   0x00000000bfc00000 0x0000000000000480
kseg1_boot_mem_4B0 0x00000000bfc004b0 0x000000000000fa50
config_BFC0FF40  0x00000000bfc0ff40 0x0000000000000004
config_BFC0FF44  0x00000000bfc0ff44 0x0000000000000004
config_BFC0FF48  0x00000000bfc0ff48 0x0000000000000004
config_BFC0FF4C  0x00000000bfc0ff4c 0x0000000000000004
config_BFC0FF50  0x00000000bfc0ff50 0x0000000000000004
config_BFC0FF54  0x00000000bfc0ff54 0x0000000000000004
config_BFC0FF58  0x00000000bfc0ff58 0x0000000000000004
config_BFC0FF5C  0x00000000bfc0ff5c 0x0000000000000004
config_BFC0FF60  0x00000000bfc0ff60 0x0000000000000004
config_BFC0FF64  0x00000000bfc0ff64 0x0000000000000004
config_BFC0FF68  0x00000000bfc0ff68 0x0000000000000004
config_BFC0FF6C  0x00000000bfc0ff6c 0x0000000000000004
config_BFC0FF70  0x00000000bfc0ff70 0x0000000000000004
config_BFC0FF74  0x00000000bfc0ff74 0x0000000000000004
config_BFC0FF78  0x00000000bfc0ff78 0x0000000000000004
config_BFC0FF7C  0x00000000bfc0ff7c 0x0000000000000004
config_BFC0FFC0  0x00000000bfc0ffc0 0x0000000000000004
config_BFC0FFC4  0x00000000bfc0ffc4 0x0000000000000004
config_BFC0FFC8  0x00000000bfc0ffc8 0x0000000000000004
config_BFC0FFCC  0x00000000bfc0ffcc 0x0000000000000004
config_BFC0FFD0  0x00000000bfc0ffd0 0x0000000000000004
config_BFC0FFD4  0x00000000bfc0ffd4 0x0000000000000004
config_BFC0FFD8  0x00000000bfc0ffd8 0x0000000000000004
config_BFC0FFDC  0x00000000bfc0ffdc 0x0000000000000004
config_BFC0FFE0  0x00000000bfc0ffe0 0x0000000000000004
config_BFC0FFE4  0x00000000bfc0ffe4 0x0000000000000004
config_BFC0FFE8  0x00000000bfc0ffe8 0x0000000000000004
config_BFC0FFEC  0x00000000bfc0ffec 0x0000000000000004
config_BFC0FFF0  0x00000000bfc0fff0 0x0000000000000004
config_BFC0FFF4  0x00000000bfc0fff4 0x0000000000000004
config_BFC0FFF8  0x00000000bfc0fff8 0x0000000000000004
config_BFC0FFFC  0x00000000bfc0fffc 0x0000000000000004
lowerbootaliaslastpage 0x00000000bfc10000 0x0000000000004000
upperbootalias   0x00000000bfc20000 0x000000000000ff00
config_BFC2FF40  0x00000000bfc2ff40 0x0000000000000004
config_BFC2FF44  0x00000000bfc2ff44 0x0000000000000004
config_BFC2FF48  0x00000000bfc2ff48 0x0000000000000004
config_BFC2FF4C  0x00000000bfc2ff4c 0x0000000000000004
config_BFC2FF50  0x00000000bfc2ff50 0x0000000000000004
config_BFC2FF54  0x00000000bfc2ff54 0x0000000000000004
config_BFC2FF58  0x00000000bfc2ff58 0x0000000000000004
config_BFC2FF5C  0x00000000bfc2ff5c 0x0000000000000004
config_BFC2FF60  0x00000000bfc2ff60 0x0000000000000004
config_BFC2FF64  0x00000000bfc2ff64 0x0000000000000004
config_BFC2FF68  0x00000000bfc2ff68 0x0000000000000004
config_BFC2FF6C  0x00000000bfc2ff6c 0x0000000000000004
config_BFC2FF70  0x00000000bfc2ff70 0x0000000000000004
config_BFC2FF74  0x00000000bfc2ff74 0x0000000000000004
config_BFC2FF78  0x00000000bfc2ff78 0x0000000000000004
config_BFC2FF7C  0x00000000bfc2ff7c 0x0000000000000004
config_BFC2FFC0  0x00000000bfc2ffc0 0x0000000000000004
config_BFC2FFC4  0x00000000bfc2ffc4 0x0000000000000004
config_BFC2FFC8  0x00000000bfc2ffc8 0x0000000000000004
config_BFC2FFCC  0x00000000bfc2ffcc 0x0000000000000004
config_BFC2FFD0  0x00000000bfc2ffd0 0x0000000000000004
config_BFC2FFD4  0x00000000bfc2ffd4 0x0000000000000004
config_BFC2FFD8  0x00000000bfc2ffd8 0x0000000000000004
config_BFC2FFDC  0x00000000bfc2ffdc 0x0000000000000004
config_BFC2FFE0  0x00000000bfc2ffe0 0x0000000000000004
config_BFC2FFE4  0x00000000bfc2ffe4 0x0000000000000004
config_BFC2FFE8  0x00000000bfc2ffe8 0x0000000000000004
config_BFC2FFEC  0x00000000bfc2ffec 0x0000000000000004
config_BFC2FFF0  0x00000000bfc2fff0 0x0000000000000004
config_BFC2FFF4  0x00000000bfc2fff4 0x0000000000000004
config_BFC2FFF8  0x00000000bfc2fff8 0x0000000000000004
config_BFC2FFFC  0x00000000bfc2fffc 0x0000000000000004
upperbootaliaslastpage 0x00000000bfc30000 0x0000000000004000
boot1            0x00000000bfc40000 0x000000000000ff00
config_BFC4FF40  0x00000000bfc4ff40 0x0000000000000004
config_BFC4FF44  0x00000000bfc4ff44 0x0000000000000004
config_BFC4FF48  0x00000000bfc4ff48 0x0000000000000004
config_BFC4FF4C  0x00000000bfc4ff4c 0x0000000000000004
config_BFC4FF50  0x00000000bfc4ff50 0x0000000000000004
config_BFC4FF54  0x00000000bfc4ff54 0x0000000000000004
config_BFC4FF58  0x00000000bfc4ff58 0x0000000000000004
config_BFC4FF5C  0x00000000bfc4ff5c 0x0000000000000004
config_BFC4FF60  0x00000000bfc4ff60 0x0000000000000004
config_BFC4FF64  0x00000000bfc4ff64 0x0000000000000004
config_BFC4FF68  0x00000000bfc4ff68 0x0000000000000004
config_BFC4FF6C  0x00000000bfc4ff6c 0x0000000000000004
config_BFC4FF70  0x00000000bfc4ff70 0x0000000000000004
config_BFC4FF74  0x00000000bfc4ff74 0x0000000000000004
config_BFC4FF78  0x00000000bfc4ff78 0x0000000000000004
config_BFC4FF7C  0x00000000bfc4ff7c 0x0000000000000004
config_BFC4FFC0  0x00000000bfc4ffc0 0x0000000000000004
config_BFC4FFC4  0x00000000bfc4ffc4 0x0000000000000004
config_BFC4FFC8  0x00000000bfc4ffc8 0x0000000000000004
config_BFC4FFCC  0x00000000bfc4ffcc 0x0000000000000004
config_BFC4FFD0  0x00000000bfc4ffd0 0x0000000000000004
config_BFC4FFD4  0x00000000bfc4ffd4 0x0000000000000004
config_BFC4FFD8  0x00000000bfc4ffd8 0x0000000000000004
config_BFC4FFDC  0x00000000bfc4ffdc 0x0000000000000004
config_BFC4FFE0  0x00000000bfc4ffe0 0x0000000000000004
config_BFC4FFE4  0x00000000bfc4ffe4 0x0000000000000004
config_BFC4FFE8  0x00000000bfc4ffe8 0x0000000000000004
config_BFC4FFEC  0x00000000bfc4ffec 0x0000000000000004
config_BFC4FFF0  0x00000000bfc4fff0 0x0000000000000004
config_BFC4FFF4  0x00000000bfc4fff4 0x0000000000000004
config_BFC4FFF8  0x00000000bfc4fff8 0x0000000000000004
config_BFC4FFFC  0x00000000bfc4fffc 0x0000000000000004
boot1lastpage    0x00000000bfc50000 0x0000000000004000
config_BFC54000  0x00000000bfc54000 0x0000000000000004
config_BFC54004  0x00000000bfc54004 0x0000000000000004
config_BFC54008  0x00000000bfc54008 0x0000000000000004
config_BFC5400C  0x00000000bfc5400c 0x0000000000000004
config_BFC54010  0x00000000bfc54010 0x0000000000000004
config_BFC5401C  0x00000000bfc5401c 0x0000000000000004
config_BFC54020  0x00000000bfc54020 0x0000000000000004
config_BFC54024  0x00000000bfc54024 0x0000000000000004
boot2            0x00000000bfc60000 0x000000000000ff00
config_BFC6FF40  0x00000000bfc6ff40 0x0000000000000004
config_BFC6FF44  0x00000000bfc6ff44 0x0000000000000004
config_BFC6FF48  0x00000000bfc6ff48 0x0000000000000004
config_BFC6FF4C  0x00000000bfc6ff4c 0x0000000000000004
config_BFC6FF50  0x00000000bfc6ff50 0x0000000000000004
config_BFC6FF54  0x00000000bfc6ff54 0x0000000000000004
config_BFC6FF58  0x00000000bfc6ff58 0x0000000000000004
config_BFC6FF5C  0x00000000bfc6ff5c 0x0000000000000004
config_BFC6FF60  0x00000000bfc6ff60 0x0000000000000004
config_BFC6FF64  0x00000000bfc6ff64 0x0000000000000004
config_BFC6FF68  0x00000000bfc6ff68 0x0000000000000004
config_BFC6FF6C  0x00000000bfc6ff6c 0x0000000000000004
config_BFC6FF70  0x00000000bfc6ff70 0x0000000000000004
config_BFC6FF74  0x00000000bfc6ff74 0x0000000000000004
config_BFC6FF78  0x00000000bfc6ff78 0x0000000000000004
config_BFC6FF7C  0x00000000bfc6ff7c 0x0000000000000004
config_BFC6FFC0  0x00000000bfc6ffc0 0x0000000000000004
config_BFC6FFC4  0x00000000bfc6ffc4 0x0000000000000004
config_BFC6FFC8  0x00000000bfc6ffc8 0x0000000000000004
config_BFC6FFCC  0x00000000bfc6ffcc 0x0000000000000004
config_BFC6FFD0  0x00000000bfc6ffd0 0x0000000000000004
config_BFC6FFD4  0x00000000bfc6ffd4 0x0000000000000004
config_BFC6FFD8  0x00000000bfc6ffd8 0x0000000000000004
config_BFC6FFDC  0x00000000bfc6ffdc 0x0000000000000004
config_BFC6FFE0  0x00000000bfc6ffe0 0x0000000000000004
config_BFC6FFE4  0x00000000bfc6ffe4 0x0000000000000004
config_BFC6FFE8  0x00000000bfc6ffe8 0x0000000000000004
config_BFC6FFEC  0x00000000bfc6ffec 0x0000000000000004
config_BFC6FFF0  0x00000000bfc6fff0 0x0000000000000004
config_BFC6FFF4  0x00000000bfc6fff4 0x0000000000000004
config_BFC6FFF8  0x00000000bfc6fff8 0x0000000000000004
config_BFC6FFFC  0x00000000bfc6fffc 0x0000000000000004
boot2lastpage    0x00000000bfc70000 0x0000000000004000
kseg0_data_mem   0x0000000080000000 0x0000000000080000 w !x
sfrs             0x00000000bf800000 0x0000000000100000
configsfrs_BFC0FF40 0x00000000bfc0ff40 0x0000000000000040
configsfrs_BFC0FFC0 0x00000000bfc0ffc0 0x0000000000000040
configsfrs_BFC2FF40 0x00000000bfc2ff40 0x0000000000000040
configsfrs_BFC2FFC0 0x00000000bfc2ffc0 0x0000000000000040
configsfrs_BFC4FF40 0x00000000bfc4ff40 0x0000000000000040
configsfrs_BFC4FFC0 0x00000000bfc4ffc0 0x0000000000000040
configsfrs_BFC54000 0x00000000bfc54000 0x0000000000000020
configsfrs_BFC6FF40 0x00000000bfc6ff40 0x0000000000000040
configsfrs_BFC6FFC0 0x00000000bfc6ffc0 0x0000000000000040
kseg2_ebi_data_mem 0x00000000c0000000 0x0000000004000000
kseg2_sqi_data_mem 0x00000000d0000000 0x0000000004000000
kseg3_ebi_data_mem 0x00000000e0000000 0x0000000004000000
kseg3_sqi_data_mem 0x00000000f0000000 0x0000000004000000
*default*        0x0000000000000000 0xffffffffffffffff

Linker script and memory map

LOAD c:/program files/microchip/xc32/v4.00/bin/bin/../../lib/gcc/pic32mx/8.3.1/../../../../pic32mx/lib/fpu64\debug-exception-return.o
LOAD build/pic32mz/production/_ext/757013429/drv_sdspi.o
LOAD build/pic32mz/production/_ext/757013429/drv_sdspi_driver_interface.o
LOAD build/pic32mz/production/_ext/757013429/drv_sdspi_file_system.o
LOAD build/pic32mz/production/_ext/2120450970/drv_spi.o
LOAD build/pic32mz/production/_ext/1783409726/drv_usbhs.o
LOAD build/pic32mz/production/_ext/1783409726/drv_usbhs_device.o
LOAD build/pic32mz/production/_ext/1640642171/plib_cache.o
LOAD build/pic32mz/production/_ext/1640642171/plib_cache_pic32mz.o
LOAD build/pic32mz/production/_ext/10646107/plib_clk.o
LOAD build/pic32mz/production/_ext/809018751/plib_coretimer.o
LOAD build/pic32mz/production/_ext/330098546/plib_evic.o
LOAD build/pic32mz/production/_ext/330152374/plib_gpio.o
LOAD build/pic32mz/production/_ext/249272802/plib_i2c2_master.o
LOAD build/pic32mz/production/_ext/249272802/plib_i2c4_master.o
LOAD build/pic32mz/production/_ext/867254719/plib_spi4_master.o
LOAD build/pic32mz/production/_ext/867254719/plib_spi2_master.o
LOAD build/pic32mz/production/_ext/867254719/plib_spi1_master.o
LOAD build/pic32mz/production/_ext/10662482/plib_tmr2.o
LOAD build/pic32mz/production/_ext/330555317/plib_uart5.o
LOAD build/pic32mz/production/_ext/330555317/plib_uart6.o
LOAD build/pic32mz/production/_ext/330555317/plib_uart3.o
LOAD build/pic32mz/production/_ext/330555317/plib_uart4.o
LOAD build/pic32mz/production/_ext/330555317/plib_uart1.o
LOAD build/pic32mz/production/_ext/330555317/plib_uart2.o
LOAD build/pic32mz/production/_ext/1991269565/xc32_monitor.o
LOAD build/pic32mz/production/_ext/1519118610/sys_cache.o
LOAD build/pic32mz/production/_ext/1373644956/sys_dma.o
LOAD build/pic32mz/production/_ext/1192657380/ff.o
LOAD build/pic32mz/production/_ext/1192657380/ffunicode.o
LOAD build/pic32mz/production/_ext/727274963/diskio.o
LOAD build/pic32mz/production/_ext/252936118/sys_fs.o
LOAD build/pic32mz/production/_ext/252936118/sys_fs_media_manager.o
LOAD build/pic32mz/production/_ext/252936118/sys_fs_fat_interface.o
LOAD build/pic32mz/production/_ext/1832149040/sys_int.o
LOAD build/pic32mz/production/_ext/1636986698/sys_time.o
LOAD build/pic32mz/production/_ext/202551283/usb_device.o
LOAD build/pic32mz/production/_ext/202551283/usb_device_cdc.o
LOAD build/pic32mz/production/_ext/202551283/usb_device_cdc_acm.o
LOAD build/pic32mz/production/_ext/953055421/usb_device_init_data.o
LOAD build/pic32mz/production/_ext/953055421/tasks.o
LOAD build/pic32mz/production/_ext/953055421/initialization.o
LOAD build/pic32mz/production/_ext/953055421/interrupts.o
LOAD build/pic32mz/production/_ext/953055421/exceptions.o
LOAD build/pic32mz/production/_ext/1360937237/app.o
LOAD build/pic32mz/production/_ext/1360937237/main.o
LOAD build/pic32mz/production/_ext/1360937237/communication.o
LOAD build/pic32mz/production/_ext/1360937237/mdot.o
LOAD build/pic32mz/production/_ext/1360937237/stringbuffer.o
                0x0000000000000001                __MPLAB_BUILD = 0x1
                0x0000000000000400                PROVIDE (_min_stack_size = 0x400)
START GROUP
LOAD vector_offset_init.o
END GROUP
                0x0000000000000001                PROVIDE (_vector_spacing = 0x1)
                0x000000009d000000                PROVIDE (_ebase_address = 0x9d000000)
                0x00000000bfc00000                _RESET_ADDR = 0xbfc00000
                0x00000000bfc00380                _BEV_EXCPT_ADDR = 0xbfc00380
                0x00000000bfc00480                _DBG_EXCPT_ADDR = 0xbfc00480
                0x000000009d000000                _SIMPLE_TLB_REFILL_EXCPT_ADDR = (_ebase_address + 0x0)
                0x000000009d000100                _CACHE_ERR_EXCPT_ADDR = (_ebase_address + 0x100)
                0x000000009d000180                _GEN_EXCPT_ADDR = (_ebase_address + 0x180)

.config_BFC0FF40
 *(.config_BFC0FF40)

.config_BFC0FF44
 *(.config_BFC0FF44)

.config_BFC0FF48
 *(.config_BFC0FF48)

.config_BFC0FF4C
 *(.config_BFC0FF4C)

.config_BFC0FF50
 *(.config_BFC0FF50)

.config_BFC0FF54
 *(.config_BFC0FF54)

.config_BFC0FF58
 *(.config_BFC0FF58)

.config_BFC0FF5C
 *(.config_BFC0FF5C)

.config_BFC0FF60
 *(.config_BFC0FF60)

.config_BFC0FF64
 *(.config_BFC0FF64)

.config_BFC0FF68
 *(.config_BFC0FF68)

.config_BFC0FF6C
 *(.config_BFC0FF6C)

.config_BFC0FF70
 *(.config_BFC0FF70)

.config_BFC0FF74
 *(.config_BFC0FF74)

.config_BFC0FF78
 *(.config_BFC0FF78)

.config_BFC0FF7C
 *(.config_BFC0FF7C)

.config_BFC0FFC0
                0x00000000bfc0ffc0        0x4
 *(.config_BFC0FFC0)
 .config_BFC0FFC0
                0x00000000bfc0ffc0        0x4 build/pic32mz/production/_ext/953055421/initialization.o
                0x00000000bfc0ffc0                __config_BFC0FFC0

.config_BFC0FFC4
                0x00000000bfc0ffc4        0x4
 *(.config_BFC0FFC4)
 .config_BFC0FFC4
                0x00000000bfc0ffc4        0x4 build/pic32mz/production/_ext/953055421/initialization.o
                0x00000000bfc0ffc4                __config_BFC0FFC4

.config_BFC0FFC8
                0x00000000bfc0ffc8        0x4
 *(.config_BFC0FFC8)
 .config_BFC0FFC8
                0x00000000bfc0ffc8        0x4 build/pic32mz/production/_ext/953055421/initialization.o
                0x00000000bfc0ffc8                __config_BFC0FFC8

.config_BFC0FFCC
                0x00000000bfc0ffcc        0x4
 *(.config_BFC0FFCC)
 .config_BFC0FFCC
                0x00000000bfc0ffcc        0x4 build/pic32mz/production/_ext/953055421/initialization.o
                0x00000000bfc0ffcc                __config_BFC0FFCC

.config_BFC0FFD0
 *(.config_BFC0FFD0)

.config_BFC0FFD4
 *(.config_BFC0FFD4)

.config_BFC0FFD8
 *(.config_BFC0FFD8)

.config_BFC0FFDC
                0x00000000bfc0ffdc        0x4
 *(.config_BFC0FFDC)
 .config_BFC0FFDC
                0x00000000bfc0ffdc        0x4 build/pic32mz/production/_ext/953055421/initialization.o
                0x00000000bfc0ffdc                __config_BFC0FFDC

.config_BFC0FFE0
 *(.config_BFC0FFE0)

.config_BFC0FFE4
 *(.config_BFC0FFE4)

.config_BFC0FFE8
 *(.config_BFC0FFE8)

.config_BFC0FFEC
 *(.config_BFC0FFEC)

.config_BFC0FFF0
                0x00000000bfc0fff0        0x4
 *(.config_BFC0FFF0)
 .config_BFC0FFF0
                0x00000000bfc0fff0        0x4 build/pic32mz/production/_ext/953055421/initialization.o
                0x00000000bfc0fff0                __config_BFC0FFF0

.config_BFC0FFF4
 *(.config_BFC0FFF4)

.config_BFC0FFF8
 *(.config_BFC0FFF8)

.config_BFC0FFFC
 *(.config_BFC0FFFC)

.config_BFC2FF40
 *(.config_BFC2FF40)

.config_BFC2FF44
 *(.config_BFC2FF44)

.config_BFC2FF48
 *(.config_BFC2FF48)

.config_BFC2FF4C
 *(.config_BFC2FF4C)

.config_BFC2FF50
 *(.config_BFC2FF50)

.config_BFC2FF54
 *(.config_BFC2FF54)

.config_BFC2FF58
 *(.config_BFC2FF58)

.config_BFC2FF5C
 *(.config_BFC2FF5C)

.config_BFC2FF60
 *(.config_BFC2FF60)

.config_BFC2FF64
 *(.config_BFC2FF64)

.config_BFC2FF68
 *(.config_BFC2FF68)

.config_BFC2FF6C
 *(.config_BFC2FF6C)

.config_BFC2FF70
 *(.config_BFC2FF70)

.config_BFC2FF74
 *(.config_BFC2FF74)

.config_BFC2FF78
 *(.config_BFC2FF78)

.config_BFC2FF7C
 *(.config_BFC2FF7C)

.config_BFC2FFC0
 *(.config_BFC2FFC0)

.config_BFC2FFC4
 *(.config_BFC2FFC4)

.config_BFC2FFC8
 *(.config_BFC2FFC8)

.config_BFC2FFCC
 *(.config_BFC2FFCC)

.config_BFC2FFD0
 *(.config_BFC2FFD0)

.config_BFC2FFD4
 *(.config_BFC2FFD4)

.config_BFC2FFD8
 *(.config_BFC2FFD8)

.config_BFC2FFDC
 *(.config_BFC2FFDC)

.config_BFC2FFE0
 *(.config_BFC2FFE0)

.config_BFC2FFE4
 *(.config_BFC2FFE4)

.config_BFC2FFE8
 *(.config_BFC2FFE8)

.config_BFC2FFEC
 *(.config_BFC2FFEC)

.config_BFC2FFF0
 *(.config_BFC2FFF0)

.config_BFC2FFF4
 *(.config_BFC2FFF4)

.config_BFC2FFF8
 *(.config_BFC2FFF8)

.config_BFC2FFFC
 *(.config_BFC2FFFC)

.config_BFC4FF40
 *(.config_BFC4FF40)

.config_BFC4FF44
 *(.config_BFC4FF44)

.config_BFC4FF48
 *(.config_BFC4FF48)

.config_BFC4FF4C
 *(.config_BFC4FF4C)

.config_BFC4FF50
 *(.config_BFC4FF50)

.config_BFC4FF54
 *(.config_BFC4FF54)

.config_BFC4FF58
 *(.config_BFC4FF58)

.config_BFC4FF5C
 *(.config_BFC4FF5C)

.config_BFC4FF60
 *(.config_BFC4FF60)

.config_BFC4FF64
 *(.config_BFC4FF64)

.config_BFC4FF68
 *(.config_BFC4FF68)

.config_BFC4FF6C
 *(.config_BFC4FF6C)

.config_BFC4FF70
 *(.config_BFC4FF70)

.config_BFC4FF74
 *(.config_BFC4FF74)

.config_BFC4FF78
 *(.config_BFC4FF78)

.config_BFC4FF7C
 *(.config_BFC4FF7C)

.config_BFC4FFC0
 *(.config_BFC4FFC0)

.config_BFC4FFC4
 *(.config_BFC4FFC4)

.config_BFC4FFC8
 *(.config_BFC4FFC8)

.config_BFC4FFCC
 *(.config_BFC4FFCC)

.config_BFC4FFD0
 *(.config_BFC4FFD0)

.config_BFC4FFD4
 *(.config_BFC4FFD4)

.config_BFC4FFD8
 *(.config_BFC4FFD8)

.config_BFC4FFDC
 *(.config_BFC4FFDC)

.config_BFC4FFE0
 *(.config_BFC4FFE0)

.config_BFC4FFE4
 *(.config_BFC4FFE4)

.config_BFC4FFE8
 *(.config_BFC4FFE8)

.config_BFC4FFEC
 *(.config_BFC4FFEC)

.config_BFC4FFF0
 *(.config_BFC4FFF0)

.config_BFC4FFF4
 *(.config_BFC4FFF4)

.config_BFC4FFF8
 *(.config_BFC4FFF8)

.config_BFC4FFFC
 *(.config_BFC4FFFC)

.config_BFC54000
 *(.config_BFC54000)

.config_BFC54004
 *(.config_BFC54004)

.config_BFC54008
 *(.config_BFC54008)

.config_BFC5400C
 *(.config_BFC5400C)

.config_BFC54010
 *(.config_BFC54010)

.config_BFC5401C
 *(.config_BFC5401C)

.config_BFC54020
 *(.config_BFC54020)

.config_BFC54024
 *(.config_BFC54024)

.config_BFC6FF40
 *(.config_BFC6FF40)

.config_BFC6FF44
 *(.config_BFC6FF44)

.config_BFC6FF48
 *(.config_BFC6FF48)

.config_BFC6FF4C
 *(.config_BFC6FF4C)

.config_BFC6FF50
 *(.config_BFC6FF50)

.config_BFC6FF54
 *(.config_BFC6FF54)

.config_BFC6FF58
 *(.config_BFC6FF58)

.config_BFC6FF5C
 *(.config_BFC6FF5C)

.config_BFC6FF60
 *(.config_BFC6FF60)

.config_BFC6FF64
 *(.config_BFC6FF64)

.config_BFC6FF68
 *(.config_BFC6FF68)

.config_BFC6FF6C
 *(.config_BFC6FF6C)

.config_BFC6FF70
 *(.config_BFC6FF70)

.config_BFC6FF74
 *(.config_BFC6FF74)

.config_BFC6FF78
 *(.config_BFC6FF78)

.config_BFC6FF7C
 *(.config_BFC6FF7C)

.config_BFC6FFC0
 *(.config_BFC6FFC0)

.config_BFC6FFC4
 *(.config_BFC6FFC4)

.config_BFC6FFC8
 *(.config_BFC6FFC8)

.config_BFC6FFCC
 *(.config_BFC6FFCC)

.config_BFC6FFD0
 *(.config_BFC6FFD0)

.config_BFC6FFD4
 *(.config_BFC6FFD4)

.config_BFC6FFD8
 *(.config_BFC6FFD8)

.config_BFC6FFDC
 *(.config_BFC6FFDC)

.config_BFC6FFE0
 *(.config_BFC6FFE0)

.config_BFC6FFE4
 *(.config_BFC6FFE4)

.config_BFC6FFE8
 *(.config_BFC6FFE8)

.config_BFC6FFEC
 *(.config_BFC6FFEC)

.config_BFC6FFF0
 *(.config_BFC6FFF0)

.config_BFC6FFF4
 *(.config_BFC6FFF4)

.config_BFC6FFF8
 *(.config_BFC6FFF8)

.config_BFC6FFFC
 *(.config_BFC6FFFC)

.reset          0x00000000bfc00000      0x1c4
 *(.reset)
 .reset         0x00000000bfc00000       0x18 C:\Users\rford7\AppData\Local\Temp\cciIy8zr.o
                0x00000000bfc00000                _reset
 *(.reset.startup)
 .reset.startup
                0x00000000bfc00018      0x1ac C:\Users\rford7\AppData\Local\Temp\cciIy8zr.o
                0x00000000bfc00018                _startup

.bev_excpt      0x00000000bfc00380       0x10
 *(.bev_handler)
 .bev_handler   0x00000000bfc00380       0x10 C:\Users\rford7\AppData\Local\Temp\cciIy8zr.o

.cache_init     0x00000000bfc004b0      0x1c0
 *(.cache_init)
 *(.cache_init.*)
 .cache_init.cache
                0x00000000bfc004b0       0xc0 c:/program files/microchip/xc32/v4.00/bin/bin/../../lib/gcc/pic32mx/8.3.1/../../../../pic32mx/lib/fpu64\libpic32.a(pic32_init_cache.o)
 .cache_init.pic32_init_cache
                0x00000000bfc00570      0x100 c:/program files/microchip/xc32/v4.00/bin/bin/../../lib/gcc/pic32mx/8.3.1/../../../../pic32mx/lib/fpu64\libpic32.a(pic32_init_cache.o)
                0x00000000bfc00570                __pic32_init_cache

.simple_tlb_refill_excpt
                0x000000009d000000       0x10
 *(.simple_tlb_refill_vector)
 .simple_tlb_refill_vector
                0x000000009d000000       0x10 C:\Users\rford7\AppData\Local\Temp\cciIy8zr.o

.cache_err_excpt
                0x000000009d000100       0x10
 *(.cache_err_vector)
 .cache_err_vector
                0x000000009d000100       0x10 C:\Users\rford7\AppData\Local\Temp\cciIy8zr.o

.app_excpt      0x000000009d000180       0x10
 *(.gen_handler)
 .gen_handler   0x000000009d000180       0x10 C:\Users\rford7\AppData\Local\Temp\cciIy8zr.o

.vectors        0x000000009d000200      0x138
                0x000000009d000200                . = ALIGN (0x4)
                0x0000000000000200                __vector_offset_0 = DEFINED (__vector_dispatch_0)?(. - _ebase_address):__vector_offset_default
 *(.vector_0)
 .vector_0      0x000000009d000200        0x8 build/pic32mz/production/_ext/953055421/interrupts.o
                0x000000009d000200                __vector_dispatch_0
                0x000000009d000208                . = ALIGN (0x4)
                0x00000000000002f0                __vector_offset_1 = DEFINED (__vector_dispatch_1)?(. - _ebase_address):__vector_offset_default
 *(.vector_1)
                0x000000009d000208                . = ALIGN (0x4)
                0x00000000000002f0                __vector_offset_2 = DEFINED (__vector_dispatch_2)?(. - _ebase_address):__vector_offset_default
 *(.vector_2)
                0x000000009d000208                . = ALIGN (0x4)
                0x00000000000002f0                __vector_offset_3 = DEFINED (__vector_dispatch_3)?(. - _ebase_address):__vector_offset_default
 *(.vector_3)
                0x000000009d000208                . = ALIGN (0x4)
                0x00000000000002f0                __vector_offset_4 = DEFINED (__vector_dispatch_4)?(. - _ebase_address):__vector_offset_default
 *(.vector_4)
                0x000000009d000208                . = ALIGN (0x4)
                0x00000000000002f0                __vector_offset_5 = DEFINED (__vector_dispatch_5)?(. - _ebase_address):__vector_offset_default
 *(.vector_5)
                0x000000009d000208                . = ALIGN (0x4)
                0x00000000000002f0                __vector_offset_6 = DEFINED (__vector_dispatch_6)?(. - _ebase_address):__vector_offset_default
 *(.vector_6)
                0x000000009d000208                . = ALIGN (0x4)
                0x00000000000002f0                __vector_offset_7 = DEFINED (__vector_dispatch_7)?(. - _ebase_address):__vector_offset_default
 *(.vector_7)
                0x000000009d000208                . = ALIGN (0x4)
                0x00000000000002f0                __vector_offset_8 = DEFINED (__vector_dispatch_8)?(. - _ebase_address):__vector_offset_default
 *(.vector_8)
                0x000000009d000208                . = ALIGN (0x4)
                0x0000000000000208                __vector_offset_9 = DEFINED (__vector_dispatch_9)?(. - _ebase_address):__vector_offset_default
 *(.vector_9)
 .vector_9      0x000000009d000208        0x8 build/pic32mz/production/_ext/953055421/interrupts.o
                0x000000009d000208                __vector_dispatch_9
                0x000000009d000210                . = ALIGN (0x4)
                0x00000000000002f0                __vector_offset_10 = DEFINED (__vector_dispatch_10)?(. - _ebase_address):__vector_offset_default
 *(.vector_10)
                0x000000009d000210                . = ALIGN (0x4)
                0x00000000000002f0                __vector_offset_11 = DEFINED (__vector_dispatch_11)?(. - _ebase_address):__vector_offset_default
 *(.vector_11)
                0x000000009d000210                . = ALIGN (0x4)
                0x00000000000002f0                __vector_offset_12 = DEFINED (__vector_dispatch_12)?(. - _ebase_address):__vector_offset_default
 *(.vector_12)
                0x000000009d000210                . = ALIGN (0x4)
                0x00000000000002f0                __vector_offset_13 = DEFINED (__vector_dispatch_13)?(. - _ebase_address):__vector_offset_default
 *(.vector_13)
                0x000000009d000210                . = ALIGN (0x4)
                0x00000000000002f0                __vector_offset_14 = DEFINED (__vector_dispatch_14)?(. - _ebase_address):__vector_offset_default
 *(.vector_14)
                0x000000009d000210                . = ALIGN (0x4)
                0x00000000000002f0                __vector_offset_15 = DEFINED (__vector_dispatch_15)?(. - _ebase_address):__vector_offset_default
 *(.vector_15)
                0x000000009d000210                . = ALIGN (0x4)
                0x00000000000002f0                __vector_offset_16 = DEFINED (__vector_dispatch_16)?(. - _ebase_address):__vector_offset_default
 *(.vector_16)
                0x000000009d000210                . = ALIGN (0x4)
                0x00000000000002f0                __vector_offset_17 = DEFINED (__vector_dispatch_17)?(. - _ebase_address):__vector_offset_default
 *(.vector_17)
                0x000000009d000210                . = ALIGN (0x4)
                0x00000000000002f0                __vector_offset_18 = DEFINED (__vector_dispatch_18)?(. - _ebase_address):__vector_offset_default
 *(.vector_18)
                0x000000009d000210                . = ALIGN (0x4)
                0x00000000000002f0                __vector_offset_19 = DEFINED (__vector_dispatch_19)?(. - _ebase_address):__vector_offset_default
 *(.vector_19)
                0x000000009d000210                . = ALIGN (0x4)
                0x00000000000002f0                __vector_offset_20 = DEFINED (__vector_dispatch_20)?(. - _ebase_address):__vector_offset_default
 *(.vector_20)
                0x000000009d000210                . = ALIGN (0x4)
                0x00000000000002f0                __vector_offset_21 = DEFINED (__vector_dispatch_21)?(. - _ebase_address):__vector_offset_default
 *(.vector_21)
                0x000000009d000210                . = ALIGN (0x4)
                0x00000000000002f0                __vector_offset_22 = DEFINED (__vector_dispatch_22)?(. - _ebase_address):__vector_offset_default
 *(.vector_22)
                0x000000009d000210                . = ALIGN (0x4)
                0x00000000000002f0                __vector_offset_23 = DEFINED (__vector_dispatch_23)?(. - _ebase_address):__vector_offset_default
 *(.vector_23)
                0x000000009d000210                . = ALIGN (0x4)
                0x00000000000002f0                __vector_offset_24 = DEFINED (__vector_dispatch_24)?(. - _ebase_address):__vector_offset_default
 *(.vector_24)
                0x000000009d000210                . = ALIGN (0x4)
                0x00000000000002f0                __vector_offset_25 = DEFINED (__vector_dispatch_25)?(. - _ebase_address):__vector_offset_default
 *(.vector_25)
                0x000000009d000210                . = ALIGN (0x4)
                0x00000000000002f0                __vector_offset_26 = DEFINED (__vector_dispatch_26)?(. - _ebase_address):__vector_offset_default
 *(.vector_26)
                0x000000009d000210                . = ALIGN (0x4)
                0x00000000000002f0                __vector_offset_27 = DEFINED (__vector_dispatch_27)?(. - _ebase_address):__vector_offset_default
 *(.vector_27)
                0x000000009d000210                . = ALIGN (0x4)
                0x00000000000002f0                __vector_offset_28 = DEFINED (__vector_dispatch_28)?(. - _ebase_address):__vector_offset_default
 *(.vector_28)
                0x000000009d000210                . = ALIGN (0x4)
                0x00000000000002f0                __vector_offset_29 = DEFINED (__vector_dispatch_29)?(. - _ebase_address):__vector_offset_default
 *(.vector_29)
                0x000000009d000210                . = ALIGN (0x4)
                0x00000000000002f0                __vector_offset_30 = DEFINED (__vector_dispatch_30)?(. - _ebase_address):__vector_offset_default
 *(.vector_30)
                0x000000009d000210                . = ALIGN (0x4)
                0x00000000000002f0                __vector_offset_31 = DEFINED (__vector_dispatch_31)?(. - _ebase_address):__vector_offset_default
 *(.vector_31)
                0x000000009d000210                . = ALIGN (0x4)
                0x00000000000002f0                __vector_offset_32 = DEFINED (__vector_dispatch_32)?(. - _ebase_address):__vector_offset_default
 *(.vector_32)
                0x000000009d000210                . = ALIGN (0x4)
                0x00000000000002f0                __vector_offset_33 = DEFINED (__vector_dispatch_33)?(. - _ebase_address):__vector_offset_default
 *(.vector_33)
                0x000000009d000210                . = ALIGN (0x4)
                0x00000000000002f0                __vector_offset_34 = DEFINED (__vector_dispatch_34)?(. - _ebase_address):__vector_offset_default
 *(.vector_34)
                0x000000009d000210                . = ALIGN (0x4)
                0x00000000000002f0                __vector_offset_35 = DEFINED (__vector_dispatch_35)?(. - _ebase_address):__vector_offset_default
 *(.vector_35)
                0x000000009d000210                . = ALIGN (0x4)
                0x00000000000002f0                __vector_offset_36 = DEFINED (__vector_dispatch_36)?(. - _ebase_address):__vector_offset_default
 *(.vector_36)
                0x000000009d000210                . = ALIGN (0x4)
                0x00000000000002f0                __vector_offset_37 = DEFINED (__vector_dispatch_37)?(. - _ebase_address):__vector_offset_default
 *(.vector_37)
                0x000000009d000210                . = ALIGN (0x4)
                0x00000000000002f0                __vector_offset_38 = DEFINED (__vector_dispatch_38)?(. - _ebase_address):__vector_offset_default
 *(.vector_38)
                0x000000009d000210                . = ALIGN (0x4)
                0x00000000000002f0                __vector_offset_39 = DEFINED (__vector_dispatch_39)?(. - _ebase_address):__vector_offset_default
 *(.vector_39)
                0x000000009d000210                . = ALIGN (0x4)
                0x00000000000002f0                __vector_offset_40 = DEFINED (__vector_dispatch_40)?(. - _ebase_address):__vector_offset_default
 *(.vector_40)
                0x000000009d000210                . = ALIGN (0x4)
                0x00000000000002f0                __vector_offset_41 = DEFINED (__vector_dispatch_41)?(. - _ebase_address):__vector_offset_default
 *(.vector_41)
                0x000000009d000210                . = ALIGN (0x4)
                0x00000000000002f0                __vector_offset_42 = DEFINED (__vector_dispatch_42)?(. - _ebase_address):__vector_offset_default
 *(.vector_42)
                0x000000009d000210                . = ALIGN (0x4)
                0x00000000000002f0                __vector_offset_43 = DEFINED (__vector_dispatch_43)?(. - _ebase_address):__vector_offset_default
 *(.vector_43)
                0x000000009d000210                . = ALIGN (0x4)
                0x00000000000002f0                __vector_offset_44 = DEFINED (__vector_dispatch_44)?(. - _ebase_address):__vector_offset_default
 *(.vector_44)
                0x000000009d000210                . = ALIGN (0x4)
                0x00000000000002f0                __vector_offset_45 = DEFINED (__vector_dispatch_45)?(. - _ebase_address):__vector_offset_default
 *(.vector_45)
                0x000000009d000210                . = ALIGN (0x4)
                0x00000000000002f0                __vector_offset_46 = DEFINED (__vector_dispatch_46)?(. - _ebase_address):__vector_offset_default
 *(.vector_46)
                0x000000009d000210                . = ALIGN (0x4)
                0x00000000000002f0                __vector_offset_47 = DEFINED (__vector_dispatch_47)?(. - _ebase_address):__vector_offset_default
 *(.vector_47)
                0x000000009d000210                . = ALIGN (0x4)
                0x00000000000002f0                __vector_offset_48 = DEFINED (__vector_dispatch_48)?(. - _ebase_address):__vector_offset_default
 *(.vector_48)
                0x000000009d000210                . = ALIGN (0x4)
                0x00000000000002f0                __vector_offset_49 = DEFINED (__vector_dispatch_49)?(. - _ebase_address):__vector_offset_default
 *(.vector_49)
                0x000000009d000210                . = ALIGN (0x4)
                0x00000000000002f0                __vector_offset_50 = DEFINED (__vector_dispatch_50)?(. - _ebase_address):__vector_offset_default
 *(.vector_50)
                0x000000009d000210                . = ALIGN (0x4)
                0x00000000000002f0                __vector_offset_51 = DEFINED (__vector_dispatch_51)?(. - _ebase_address):__vector_offset_default
 *(.vector_51)
                0x000000009d000210                . = ALIGN (0x4)
                0x00000000000002f0                __vector_offset_52 = DEFINED (__vector_dispatch_52)?(. - _ebase_address):__vector_offset_default
 *(.vector_52)
                0x000000009d000210                . = ALIGN (0x4)
                0x00000000000002f0                __vector_offset_53 = DEFINED (__vector_dispatch_53)?(. - _ebase_address):__vector_offset_default
 *(.vector_53)
                0x000000009d000210                . = ALIGN (0x4)
                0x00000000000002f0                __vector_offset_54 = DEFINED (__vector_dispatch_54)?(. - _ebase_address):__vector_offset_default
 *(.vector_54)
                0x000000009d000210                . = ALIGN (0x4)
                0x00000000000002f0                __vector_offset_55 = DEFINED (__vector_dispatch_55)?(. - _ebase_address):__vector_offset_default
 *(.vector_55)
                0x000000009d000210                . = ALIGN (0x4)
                0x00000000000002f0                __vector_offset_56 = DEFINED (__vector_dispatch_56)?(. - _ebase_address):__vector_offset_default
 *(.vector_56)
                0x000000009d000210                . = ALIGN (0x4)
                0x00000000000002f0                __vector_offset_57 = DEFINED (__vector_dispatch_57)?(. - _ebase_address):__vector_offset_default
 *(.vector_57)
                0x000000009d000210                . = ALIGN (0x4)
                0x00000000000002f0                __vector_offset_58 = DEFINED (__vector_dispatch_58)?(. - _ebase_address):__vector_offset_default
 *(.vector_58)
                0x000000009d000210                . = ALIGN (0x4)
                0x00000000000002f0                __vector_offset_59 = DEFINED (__vector_dispatch_59)?(. - _ebase_address):__vector_offset_default
 *(.vector_59)
                0x000000009d000210                . = ALIGN (0x4)
                0x00000000000002f0                __vector_offset_60 = DEFINED (__vector_dispatch_60)?(. - _ebase_address):__vector_offset_default
 *(.vector_60)
                0x000000009d000210                . = ALIGN (0x4)
                0x00000000000002f0                __vector_offset_61 = DEFINED (__vector_dispatch_61)?(. - _ebase_address):__vector_offset_default
 *(.vector_61)
                0x000000009d000210                . = ALIGN (0x4)
                0x00000000000002f0                __vector_offset_62 = DEFINED (__vector_dispatch_62)?(. - _ebase_address):__vector_offset_default
 *(.vector_62)
                0x000000009d000210                . = ALIGN (0x4)
                0x00000000000002f0                __vector_offset_63 = DEFINED (__vector_dispatch_63)?(. - _ebase_address):__vector_offset_default
 *(.vector_63)
                0x000000009d000210                . = ALIGN (0x4)
                0x00000000000002f0                __vector_offset_64 = DEFINED (__vector_dispatch_64)?(. - _ebase_address):__vector_offset_default
 *(.vector_64)
                0x000000009d000210                . = ALIGN (0x4)
                0x00000000000002f0                __vector_offset_65 = DEFINED (__vector_dispatch_65)?(. - _ebase_address):__vector_offset_default
 *(.vector_65)
                0x000000009d000210                . = ALIGN (0x4)
                0x00000000000002f0                __vector_offset_66 = DEFINED (__vector_dispatch_66)?(. - _ebase_address):__vector_offset_default
 *(.vector_66)
                0x000000009d000210                . = ALIGN (0x4)
                0x00000000000002f0                __vector_offset_67 = DEFINED (__vector_dispatch_67)?(. - _ebase_address):__vector_offset_default
 *(.vector_67)
                0x000000009d000210                . = ALIGN (0x4)
                0x00000000000002f0                __vector_offset_68 = DEFINED (__vector_dispatch_68)?(. - _ebase_address):__vector_offset_default
 *(.vector_68)
                0x000000009d000210                . = ALIGN (0x4)
                0x00000000000002f0                __vector_offset_69 = DEFINED (__vector_dispatch_69)?(. - _ebase_address):__vector_offset_default
 *(.vector_69)
                0x000000009d000210                . = ALIGN (0x4)
                0x00000000000002f0                __vector_offset_70 = DEFINED (__vector_dispatch_70)?(. - _ebase_address):__vector_offset_default
 *(.vector_70)
                0x000000009d000210                . = ALIGN (0x4)
                0x00000000000002f0                __vector_offset_71 = DEFINED (__vector_dispatch_71)?(. - _ebase_address):__vector_offset_default
 *(.vector_71)
                0x000000009d000210                . = ALIGN (0x4)
                0x00000000000002f0                __vector_offset_72 = DEFINED (__vector_dispatch_72)?(. - _ebase_address):__vector_offset_default
 *(.vector_72)
                0x000000009d000210                . = ALIGN (0x4)
                0x00000000000002f0                __vector_offset_73 = DEFINED (__vector_dispatch_73)?(. - _ebase_address):__vector_offset_default
 *(.vector_73)
                0x000000009d000210                . = ALIGN (0x4)
                0x00000000000002f0                __vector_offset_74 = DEFINED (__vector_dispatch_74)?(. - _ebase_address):__vector_offset_default
 *(.vector_74)
                0x000000009d000210                . = ALIGN (0x4)
                0x00000000000002f0                __vector_offset_75 = DEFINED (__vector_dispatch_75)?(. - _ebase_address):__vector_offset_default
 *(.vector_75)
                0x000000009d000210                . = ALIGN (0x4)
                0x00000000000002f0                __vector_offset_76 = DEFINED (__vector_dispatch_76)?(. - _ebase_address):__vector_offset_default
 *(.vector_76)
                0x000000009d000210                . = ALIGN (0x4)
                0x00000000000002f0                __vector_offset_77 = DEFINED (__vector_dispatch_77)?(. - _ebase_address):__vector_offset_default
 *(.vector_77)
                0x000000009d000210                . = ALIGN (0x4)
                0x00000000000002f0                __vector_offset_78 = DEFINED (__vector_dispatch_78)?(. - _ebase_address):__vector_offset_default
 *(.vector_78)
                0x000000009d000210                . = ALIGN (0x4)
                0x00000000000002f0                __vector_offset_79 = DEFINED (__vector_dispatch_79)?(. - _ebase_address):__vector_offset_default
 *(.vector_79)
                0x000000009d000210                . = ALIGN (0x4)
                0x00000000000002f0                __vector_offset_80 = DEFINED (__vector_dispatch_80)?(. - _ebase_address):__vector_offset_default
 *(.vector_80)
                0x000000009d000210                . = ALIGN (0x4)
                0x00000000000002f0                __vector_offset_81 = DEFINED (__vector_dispatch_81)?(. - _ebase_address):__vector_offset_default
 *(.vector_81)
                0x000000009d000210                . = ALIGN (0x4)
                0x00000000000002f0                __vector_offset_82 = DEFINED (__vector_dispatch_82)?(. - _ebase_address):__vector_offset_default
 *(.vector_82)
                0x000000009d000210                . = ALIGN (0x4)
                0x00000000000002f0                __vector_offset_83 = DEFINED (__vector_dispatch_83)?(. - _ebase_address):__vector_offset_default
 *(.vector_83)
                0x000000009d000210                . = ALIGN (0x4)
                0x00000000000002f0                __vector_offset_84 = DEFINED (__vector_dispatch_84)?(. - _ebase_address):__vector_offset_default
 *(.vector_84)
                0x000000009d000210                . = ALIGN (0x4)
                0x00000000000002f0                __vector_offset_85 = DEFINED (__vector_dispatch_85)?(. - _ebase_address):__vector_offset_default
 *(.vector_85)
                0x000000009d000210                . = ALIGN (0x4)
                0x00000000000002f0                __vector_offset_86 = DEFINED (__vector_dispatch_86)?(. - _ebase_address):__vector_offset_default
 *(.vector_86)
                0x000000009d000210                . = ALIGN (0x4)
                0x00000000000002f0                __vector_offset_87 = DEFINED (__vector_dispatch_87)?(. - _ebase_address):__vector_offset_default
 *(.vector_87)
                0x000000009d000210                . = ALIGN (0x4)
                0x00000000000002f0                __vector_offset_88 = DEFINED (__vector_dispatch_88)?(. - _ebase_address):__vector_offset_default
 *(.vector_88)
                0x000000009d000210                . = ALIGN (0x4)
                0x00000000000002f0                __vector_offset_89 = DEFINED (__vector_dispatch_89)?(. - _ebase_address):__vector_offset_default
 *(.vector_89)
                0x000000009d000210                . = ALIGN (0x4)
                0x00000000000002f0                __vector_offset_90 = DEFINED (__vector_dispatch_90)?(. - _ebase_address):__vector_offset_default
 *(.vector_90)
                0x000000009d000210                . = ALIGN (0x4)
                0x00000000000002f0                __vector_offset_91 = DEFINED (__vector_dispatch_91)?(. - _ebase_address):__vector_offset_default
 *(.vector_91)
                0x000000009d000210                . = ALIGN (0x4)
                0x00000000000002f0                __vector_offset_92 = DEFINED (__vector_dispatch_92)?(. - _ebase_address):__vector_offset_default
 *(.vector_92)
                0x000000009d000210                . = ALIGN (0x4)
                0x00000000000002f0                __vector_offset_93 = DEFINED (__vector_dispatch_93)?(. - _ebase_address):__vector_offset_default
 *(.vector_93)
                0x000000009d000210                . = ALIGN (0x4)
                0x00000000000002f0                __vector_offset_94 = DEFINED (__vector_dispatch_94)?(. - _ebase_address):__vector_offset_default
 *(.vector_94)
                0x000000009d000210                . = ALIGN (0x4)
                0x00000000000002f0                __vector_offset_95 = DEFINED (__vector_dispatch_95)?(. - _ebase_address):__vector_offset_default
 *(.vector_95)
                0x000000009d000210                . = ALIGN (0x4)
                0x00000000000002f0                __vector_offset_96 = DEFINED (__vector_dispatch_96)?(. - _ebase_address):__vector_offset_default
 *(.vector_96)
                0x000000009d000210                . = ALIGN (0x4)
                0x00000000000002f0                __vector_offset_97 = DEFINED (__vector_dispatch_97)?(. - _ebase_address):__vector_offset_default
 *(.vector_97)
                0x000000009d000210                . = ALIGN (0x4)
                0x00000000000002f0                __vector_offset_98 = DEFINED (__vector_dispatch_98)?(. - _ebase_address):__vector_offset_default
 *(.vector_98)
                0x000000009d000210                . = ALIGN (0x4)
                0x00000000000002f0                __vector_offset_99 = DEFINED (__vector_dispatch_99)?(. - _ebase_address):__vector_offset_default
 *(.vector_99)
                0x000000009d000210                . = ALIGN (0x4)
                0x00000000000002f0                __vector_offset_100 = DEFINED (__vector_dispatch_100)?(. - _ebase_address):__vector_offset_default
 *(.vector_100)
                0x000000009d000210                . = ALIGN (0x4)
                0x00000000000002f0                __vector_offset_101 = DEFINED (__vector_dispatch_101)?(. - _ebase_address):__vector_offset_default
 *(.vector_101)
                0x000000009d000210                . = ALIGN (0x4)
                0x00000000000002f0                __vector_offset_102 = DEFINED (__vector_dispatch_102)?(. - _ebase_address):__vector_offset_default
 *(.vector_102)
                0x000000009d000210                . = ALIGN (0x4)
                0x00000000000002f0                __vector_offset_103 = DEFINED (__vector_dispatch_103)?(. - _ebase_address):__vector_offset_default
 *(.vector_103)
                0x000000009d000210                . = ALIGN (0x4)
                0x00000000000002f0                __vector_offset_104 = DEFINED (__vector_dispatch_104)?(. - _ebase_address):__vector_offset_default
 *(.vector_104)
                0x000000009d000210                . = ALIGN (0x4)
                0x00000000000002f0                __vector_offset_105 = DEFINED (__vector_dispatch_105)?(. - _ebase_address):__vector_offset_default
 *(.vector_105)
                0x000000009d000210                . = ALIGN (0x4)
                0x00000000000002f0                __vector_offset_106 = DEFINED (__vector_dispatch_106)?(. - _ebase_address):__vector_offset_default
 *(.vector_106)
                0x000000009d000210                . = ALIGN (0x4)
                0x00000000000002f0                __vector_offset_107 = DEFINED (__vector_dispatch_107)?(. - _ebase_address):__vector_offset_default
 *(.vector_107)
                0x000000009d000210                . = ALIGN (0x4)
                0x00000000000002f0                __vector_offset_108 = DEFINED (__vector_dispatch_108)?(. - _ebase_address):__vector_offset_default
 *(.vector_108)
                0x000000009d000210                . = ALIGN (0x4)
                0x00000000000002f0                __vector_offset_109 = DEFINED (__vector_dispatch_109)?(. - _ebase_address):__vector_offset_default
 *(.vector_109)
                0x000000009d000210                . = ALIGN (0x4)
                0x0000000000000210                __vector_offset_110 = DEFINED (__vector_dispatch_110)?(. - _ebase_address):__vector_offset_default
 *(.vector_110)
 .vector_110    0x000000009d000210        0x8 build/pic32mz/production/_ext/953055421/interrupts.o
                0x000000009d000210                __vector_dispatch_110
                0x000000009d000218                . = ALIGN (0x4)
                0x0000000000000218                __vector_offset_111 = DEFINED (__vector_dispatch_111)?(. - _ebase_address):__vector_offset_default
 *(.vector_111)
 .vector_111    0x000000009d000218        0x8 build/pic32mz/production/_ext/953055421/interrupts.o
                0x000000009d000218                __vector_dispatch_111
                0x000000009d000220                . = ALIGN (0x4)
                0x0000000000000220                __vector_offset_112 = DEFINED (__vector_dispatch_112)?(. - _ebase_address):__vector_offset_default
 *(.vector_112)
 .vector_112    0x000000009d000220        0x8 build/pic32mz/production/_ext/953055421/interrupts.o
                0x000000009d000220                __vector_dispatch_112
                0x000000009d000228                . = ALIGN (0x4)
                0x0000000000000228                __vector_offset_113 = DEFINED (__vector_dispatch_113)?(. - _ebase_address):__vector_offset_default
 *(.vector_113)
 .vector_113    0x000000009d000228        0x8 build/pic32mz/production/_ext/953055421/interrupts.o
                0x000000009d000228                __vector_dispatch_113
                0x000000009d000230                . = ALIGN (0x4)
                0x0000000000000230                __vector_offset_114 = DEFINED (__vector_dispatch_114)?(. - _ebase_address):__vector_offset_default
 *(.vector_114)
 .vector_114    0x000000009d000230        0x8 build/pic32mz/production/_ext/953055421/interrupts.o
                0x000000009d000230                __vector_dispatch_114
                0x000000009d000238                . = ALIGN (0x4)
                0x00000000000002f0                __vector_offset_115 = DEFINED (__vector_dispatch_115)?(. - _ebase_address):__vector_offset_default
 *(.vector_115)
                0x000000009d000238                . = ALIGN (0x4)
                0x00000000000002f0                __vector_offset_116 = DEFINED (__vector_dispatch_116)?(. - _ebase_address):__vector_offset_default
 *(.vector_116)
                0x000000009d000238                . = ALIGN (0x4)
                0x00000000000002f0                __vector_offset_117 = DEFINED (__vector_dispatch_117)?(. - _ebase_address):__vector_offset_default
 *(.vector_117)
                0x000000009d000238                . = ALIGN (0x4)
                0x00000000000002f0                __vector_offset_118 = DEFINED (__vector_dispatch_118)?(. - _ebase_address):__vector_offset_default
 *(.vector_118)
                0x000000009d000238                . = ALIGN (0x4)
                0x00000000000002f0                __vector_offset_119 = DEFINED (__vector_dispatch_119)?(. - _ebase_address):__vector_offset_default
 *(.vector_119)
                0x000000009d000238                . = ALIGN (0x4)
                0x00000000000002f0                __vector_offset_120 = DEFINED (__vector_dispatch_120)?(. - _ebase_address):__vector_offset_default
 *(.vector_120)
                0x000000009d000238                . = ALIGN (0x4)
                0x00000000000002f0                __vector_offset_121 = DEFINED (__vector_dispatch_121)?(. - _ebase_address):__vector_offset_default
 *(.vector_121)
                0x000000009d000238                . = ALIGN (0x4)
                0x00000000000002f0                __vector_offset_122 = DEFINED (__vector_dispatch_122)?(. - _ebase_address):__vector_offset_default
 *(.vector_122)
                0x000000009d000238                . = ALIGN (0x4)
                0x00000000000002f0                __vector_offset_123 = DEFINED (__vector_dispatch_123)?(. - _ebase_address):__vector_offset_default
 *(.vector_123)
                0x000000009d000238                . = ALIGN (0x4)
                0x00000000000002f0                __vector_offset_124 = DEFINED (__vector_dispatch_124)?(. - _ebase_address):__vector_offset_default
 *(.vector_124)
                0x000000009d000238                . = ALIGN (0x4)
                0x00000000000002f0                __vector_offset_125 = DEFINED (__vector_dispatch_125)?(. - _ebase_address):__vector_offset_default
 *(.vector_125)
                0x000000009d000238                . = ALIGN (0x4)
                0x0000000000000238                __vector_offset_126 = DEFINED (__vector_dispatch_126)?(. - _ebase_address):__vector_offset_default
 *(.vector_126)
 .vector_126    0x000000009d000238        0x8 build/pic32mz/production/_ext/953055421/interrupts.o
                0x000000009d000238                __vector_dispatch_126
                0x000000009d000240                . = ALIGN (0x4)
                0x00000000000002f0                __vector_offset_127 = DEFINED (__vector_dispatch_127)?(. - _ebase_address):__vector_offset_default
 *(.vector_127)
                0x000000009d000240                . = ALIGN (0x4)
                0x00000000000002f0                __vector_offset_128 = DEFINED (__vector_dispatch_128)?(. - _ebase_address):__vector_offset_default
 *(.vector_128)
                0x000000009d000240                . = ALIGN (0x4)
                0x00000000000002f0                __vector_offset_129 = DEFINED (__vector_dispatch_129)?(. - _ebase_address):__vector_offset_default
 *(.vector_129)
                0x000000009d000240                . = ALIGN (0x4)
                0x00000000000002f0                __vector_offset_130 = DEFINED (__vector_dispatch_130)?(. - _ebase_address):__vector_offset_default
 *(.vector_130)
                0x000000009d000240                . = ALIGN (0x4)
                0x00000000000002f0                __vector_offset_131 = DEFINED (__vector_dispatch_131)?(. - _ebase_address):__vector_offset_default
 *(.vector_131)
                0x000000009d000240                . = ALIGN (0x4)
                0x0000000000000240                __vector_offset_132 = DEFINED (__vector_dispatch_132)?(. - _ebase_address):__vector_offset_default
 *(.vector_132)
 .vector_132    0x000000009d000240        0x8 build/pic32mz/production/_ext/953055421/interrupts.o
                0x000000009d000240                __vector_dispatch_132
                0x000000009d000248                . = ALIGN (0x4)
                0x0000000000000248                __vector_offset_133 = DEFINED (__vector_dispatch_133)?(. - _ebase_address):__vector_offset_default
 *(.vector_133)
 .vector_133    0x000000009d000248        0x8 build/pic32mz/production/_ext/953055421/interrupts.o
                0x000000009d000248                __vector_dispatch_133
                0x000000009d000250                . = ALIGN (0x4)
                0x00000000000002f0                __vector_offset_134 = DEFINED (__vector_dispatch_134)?(. - _ebase_address):__vector_offset_default
 *(.vector_134)
                0x000000009d000250                . = ALIGN (0x4)
                0x00000000000002f0                __vector_offset_135 = DEFINED (__vector_dispatch_135)?(. - _ebase_address):__vector_offset_default
 *(.vector_135)
                0x000000009d000250                . = ALIGN (0x4)
                0x00000000000002f0                __vector_offset_136 = DEFINED (__vector_dispatch_136)?(. - _ebase_address):__vector_offset_default
 *(.vector_136)
                0x000000009d000250                . = ALIGN (0x4)
                0x00000000000002f0                __vector_offset_137 = DEFINED (__vector_dispatch_137)?(. - _ebase_address):__vector_offset_default
 *(.vector_137)
                0x000000009d000250                . = ALIGN (0x4)
                0x00000000000002f0                __vector_offset_138 = DEFINED (__vector_dispatch_138)?(. - _ebase_address):__vector_offset_default
 *(.vector_138)
                0x000000009d000250                . = ALIGN (0x4)
                0x00000000000002f0                __vector_offset_139 = DEFINED (__vector_dispatch_139)?(. - _ebase_address):__vector_offset_default
 *(.vector_139)
                0x000000009d000250                . = ALIGN (0x4)
                0x00000000000002f0                __vector_offset_140 = DEFINED (__vector_dispatch_140)?(. - _ebase_address):__vector_offset_default
 *(.vector_140)
                0x000000009d000250                . = ALIGN (0x4)
                0x00000000000002f0                __vector_offset_141 = DEFINED (__vector_dispatch_141)?(. - _ebase_address):__vector_offset_default
 *(.vector_141)
                0x000000009d000250                . = ALIGN (0x4)
                0x00000000000002f0                __vector_offset_142 = DEFINED (__vector_dispatch_142)?(. - _ebase_address):__vector_offset_default
 *(.vector_142)
                0x000000009d000250                . = ALIGN (0x4)
                0x0000000000000250                __vector_offset_143 = DEFINED (__vector_dispatch_143)?(. - _ebase_address):__vector_offset_default
 *(.vector_143)
 .vector_143    0x000000009d000250        0x8 build/pic32mz/production/_ext/953055421/interrupts.o
                0x000000009d000250                __vector_dispatch_143
                0x000000009d000258                . = ALIGN (0x4)
                0x0000000000000258                __vector_offset_144 = DEFINED (__vector_dispatch_144)?(. - _ebase_address):__vector_offset_default
 *(.vector_144)
 .vector_144    0x000000009d000258        0x8 build/pic32mz/production/_ext/953055421/interrupts.o
                0x000000009d000258                __vector_dispatch_144
                0x000000009d000260                . = ALIGN (0x4)
                0x0000000000000260                __vector_offset_145 = DEFINED (__vector_dispatch_145)?(. - _ebase_address):__vector_offset_default
 *(.vector_145)
 .vector_145    0x000000009d000260        0x8 build/pic32mz/production/_ext/953055421/interrupts.o
                0x000000009d000260                __vector_dispatch_145
                0x000000009d000268                . = ALIGN (0x4)
                0x0000000000000268                __vector_offset_146 = DEFINED (__vector_dispatch_146)?(. - _ebase_address):__vector_offset_default
 *(.vector_146)
 .vector_146    0x000000009d000268        0x8 build/pic32mz/production/_ext/953055421/interrupts.o
                0x000000009d000268                __vector_dispatch_146
                0x000000009d000270                . = ALIGN (0x4)
                0x0000000000000270                __vector_offset_147 = DEFINED (__vector_dispatch_147)?(. - _ebase_address):__vector_offset_default
 *(.vector_147)
 .vector_147    0x000000009d000270        0x8 build/pic32mz/production/_ext/953055421/interrupts.o
                0x000000009d000270                __vector_dispatch_147
                0x000000009d000278                . = ALIGN (0x4)
                0x0000000000000278                __vector_offset_148 = DEFINED (__vector_dispatch_148)?(. - _ebase_address):__vector_offset_default
 *(.vector_148)
 .vector_148    0x000000009d000278        0x8 build/pic32mz/production/_ext/953055421/interrupts.o
                0x000000009d000278                __vector_dispatch_148
                0x000000009d000280                . = ALIGN (0x4)
                0x00000000000002f0                __vector_offset_149 = DEFINED (__vector_dispatch_149)?(. - _ebase_address):__vector_offset_default
 *(.vector_149)
                0x000000009d000280                . = ALIGN (0x4)
                0x0000000000000280                __vector_offset_150 = DEFINED (__vector_dispatch_150)?(. - _ebase_address):__vector_offset_default
 *(.vector_150)
 .vector_150    0x000000009d000280        0x8 build/pic32mz/production/_ext/953055421/interrupts.o
                0x000000009d000280                __vector_dispatch_150
                0x000000009d000288                . = ALIGN (0x4)
                0x00000000000002f0                __vector_offset_151 = DEFINED (__vector_dispatch_151)?(. - _ebase_address):__vector_offset_default
 *(.vector_151)
                0x000000009d000288                . = ALIGN (0x4)
                0x00000000000002f0                __vector_offset_152 = DEFINED (__vector_dispatch_152)?(. - _ebase_address):__vector_offset_default
 *(.vector_152)
                0x000000009d000288                . = ALIGN (0x4)
                0x00000000000002f0                __vector_offset_153 = DEFINED (__vector_dispatch_153)?(. - _ebase_address):__vector_offset_default
 *(.vector_153)
                0x000000009d000288                . = ALIGN (0x4)
                0x00000000000002f0                __vector_offset_154 = DEFINED (__vector_dispatch_154)?(. - _ebase_address):__vector_offset_default
 *(.vector_154)
                0x000000009d000288                . = ALIGN (0x4)
                0x00000000000002f0                __vector_offset_155 = DEFINED (__vector_dispatch_155)?(. - _ebase_address):__vector_offset_default
 *(.vector_155)
                0x000000009d000288                . = ALIGN (0x4)
                0x00000000000002f0                __vector_offset_156 = DEFINED (__vector_dispatch_156)?(. - _ebase_address):__vector_offset_default
 *(.vector_156)
                0x000000009d000288                . = ALIGN (0x4)
                0x0000000000000288                __vector_offset_157 = DEFINED (__vector_dispatch_157)?(. - _ebase_address):__vector_offset_default
 *(.vector_157)
 .vector_157    0x000000009d000288        0x8 build/pic32mz/production/_ext/953055421/interrupts.o
                0x000000009d000288                __vector_dispatch_157
                0x000000009d000290                . = ALIGN (0x4)
                0x0000000000000290                __vector_offset_158 = DEFINED (__vector_dispatch_158)?(. - _ebase_address):__vector_offset_default
 *(.vector_158)
 .vector_158    0x000000009d000290        0x8 build/pic32mz/production/_ext/953055421/interrupts.o
                0x000000009d000290                __vector_dispatch_158
                0x000000009d000298                . = ALIGN (0x4)
                0x0000000000000298                __vector_offset_159 = DEFINED (__vector_dispatch_159)?(. - _ebase_address):__vector_offset_default
 *(.vector_159)
 .vector_159    0x000000009d000298        0x8 build/pic32mz/production/_ext/953055421/interrupts.o
                0x000000009d000298                __vector_dispatch_159
                0x000000009d0002a0                . = ALIGN (0x4)
                0x00000000000002f0                __vector_offset_160 = DEFINED (__vector_dispatch_160)?(. - _ebase_address):__vector_offset_default
 *(.vector_160)
                0x000000009d0002a0                . = ALIGN (0x4)
                0x00000000000002f0                __vector_offset_161 = DEFINED (__vector_dispatch_161)?(. - _ebase_address):__vector_offset_default
 *(.vector_161)
                0x000000009d0002a0                . = ALIGN (0x4)
                0x00000000000002f0                __vector_offset_162 = DEFINED (__vector_dispatch_162)?(. - _ebase_address):__vector_offset_default
 *(.vector_162)
                0x000000009d0002a0                . = ALIGN (0x4)
                0x00000000000002f0                __vector_offset_163 = DEFINED (__vector_dispatch_163)?(. - _ebase_address):__vector_offset_default
 *(.vector_163)
                0x000000009d0002a0                . = ALIGN (0x4)
                0x00000000000002a0                __vector_offset_164 = DEFINED (__vector_dispatch_164)?(. - _ebase_address):__vector_offset_default
 *(.vector_164)
 .vector_164    0x000000009d0002a0        0x8 build/pic32mz/production/_ext/953055421/interrupts.o
                0x000000009d0002a0                __vector_dispatch_164
                0x000000009d0002a8                . = ALIGN (0x4)
                0x00000000000002a8                __vector_offset_165 = DEFINED (__vector_dispatch_165)?(. - _ebase_address):__vector_offset_default
 *(.vector_165)
 .vector_165    0x000000009d0002a8        0x8 build/pic32mz/production/_ext/953055421/interrupts.o
                0x000000009d0002a8                __vector_dispatch_165
                0x000000009d0002b0                . = ALIGN (0x4)
                0x00000000000002f0                __vector_offset_166 = DEFINED (__vector_dispatch_166)?(. - _ebase_address):__vector_offset_default
 *(.vector_166)
                0x000000009d0002b0                . = ALIGN (0x4)
                0x00000000000002f0                __vector_offset_167 = DEFINED (__vector_dispatch_167)?(. - _ebase_address):__vector_offset_default
 *(.vector_167)
                0x000000009d0002b0                . = ALIGN (0x4)
                0x00000000000002f0                __vector_offset_168 = DEFINED (__vector_dispatch_168)?(. - _ebase_address):__vector_offset_default
 *(.vector_168)
                0x000000009d0002b0                . = ALIGN (0x4)
                0x00000000000002f0                __vector_offset_169 = DEFINED (__vector_dispatch_169)?(. - _ebase_address):__vector_offset_default
 *(.vector_169)
                0x000000009d0002b0                . = ALIGN (0x4)
                0x00000000000002b0                __vector_offset_170 = DEFINED (__vector_dispatch_170)?(. - _ebase_address):__vector_offset_default
 *(.vector_170)
 .vector_170    0x000000009d0002b0        0x8 build/pic32mz/production/_ext/953055421/interrupts.o
                0x000000009d0002b0                __vector_dispatch_170
                0x000000009d0002b8                . = ALIGN (0x4)
                0x00000000000002b8                __vector_offset_171 = DEFINED (__vector_dispatch_171)?(. - _ebase_address):__vector_offset_default
 *(.vector_171)
 .vector_171    0x000000009d0002b8        0x8 build/pic32mz/production/_ext/953055421/interrupts.o
                0x000000009d0002b8                __vector_dispatch_171
                0x000000009d0002c0                . = ALIGN (0x4)
                0x00000000000002c0                __vector_offset_172 = DEFINED (__vector_dispatch_172)?(. - _ebase_address):__vector_offset_default
 *(.vector_172)
 .vector_172    0x000000009d0002c0        0x8 build/pic32mz/production/_ext/953055421/interrupts.o
                0x000000009d0002c0                __vector_dispatch_172
                0x000000009d0002c8                . = ALIGN (0x4)
                0x00000000000002c8                __vector_offset_173 = DEFINED (__vector_dispatch_173)?(. - _ebase_address):__vector_offset_default
 *(.vector_173)
 .vector_173    0x000000009d0002c8        0x8 build/pic32mz/production/_ext/953055421/interrupts.o
                0x000000009d0002c8                __vector_dispatch_173
                0x000000009d0002d0                . = ALIGN (0x4)
                0x00000000000002f0                __vector_offset_174 = DEFINED (__vector_dispatch_174)?(. - _ebase_address):__vector_offset_default
 *(.vector_174)
                0x000000009d0002d0                . = ALIGN (0x4)
                0x00000000000002d0                __vector_offset_175 = DEFINED (__vector_dispatch_175)?(. - _ebase_address):__vector_offset_default
 *(.vector_175)
 .vector_175    0x000000009d0002d0        0x8 build/pic32mz/production/_ext/953055421/interrupts.o
                0x000000009d0002d0                __vector_dispatch_175
                0x000000009d0002d8                . = ALIGN (0x4)
                0x00000000000002f0                __vector_offset_176 = DEFINED (__vector_dispatch_176)?(. - _ebase_address):__vector_offset_default
 *(.vector_176)
                0x000000009d0002d8                . = ALIGN (0x4)
                0x00000000000002f0                __vector_offset_177 = DEFINED (__vector_dispatch_177)?(. - _ebase_address):__vector_offset_default
 *(.vector_177)
                0x000000009d0002d8                . = ALIGN (0x4)
                0x00000000000002f0                __vector_offset_178 = DEFINED (__vector_dispatch_178)?(. - _ebase_address):__vector_offset_default
 *(.vector_178)
                0x000000009d0002d8                . = ALIGN (0x4)
                0x00000000000002f0                __vector_offset_179 = DEFINED (__vector_dispatch_179)?(. - _ebase_address):__vector_offset_default
 *(.vector_179)
                0x000000009d0002d8                . = ALIGN (0x4)
                0x00000000000002f0                __vector_offset_180 = DEFINED (__vector_dispatch_180)?(. - _ebase_address):__vector_offset_default
 *(.vector_180)
                0x000000009d0002d8                . = ALIGN (0x4)
                0x00000000000002f0                __vector_offset_181 = DEFINED (__vector_dispatch_181)?(. - _ebase_address):__vector_offset_default
 *(.vector_181)
                0x000000009d0002d8                . = ALIGN (0x4)
                0x00000000000002f0                __vector_offset_182 = DEFINED (__vector_dispatch_182)?(. - _ebase_address):__vector_offset_default
 *(.vector_182)
                0x000000009d0002d8                . = ALIGN (0x4)
                0x00000000000002f0                __vector_offset_183 = DEFINED (__vector_dispatch_183)?(. - _ebase_address):__vector_offset_default
 *(.vector_183)
                0x000000009d0002d8                . = ALIGN (0x4)
                0x00000000000002f0                __vector_offset_184 = DEFINED (__vector_dispatch_184)?(. - _ebase_address):__vector_offset_default
 *(.vector_184)
                0x000000009d0002d8                . = ALIGN (0x4)
                0x00000000000002f0                __vector_offset_185 = DEFINED (__vector_dispatch_185)?(. - _ebase_address):__vector_offset_default
 *(.vector_185)
                0x000000009d0002d8                . = ALIGN (0x4)
                0x00000000000002f0                __vector_offset_186 = DEFINED (__vector_dispatch_186)?(. - _ebase_address):__vector_offset_default
 *(.vector_186)
                0x000000009d0002d8                . = ALIGN (0x4)
                0x00000000000002f0                __vector_offset_187 = DEFINED (__vector_dispatch_187)?(. - _ebase_address):__vector_offset_default
 *(.vector_187)
                0x000000009d0002d8                . = ALIGN (0x4)
                0x00000000000002d8                __vector_offset_188 = DEFINED (__vector_dispatch_188)?(. - _ebase_address):__vector_offset_default
 *(.vector_188)
 .vector_188    0x000000009d0002d8        0x8 build/pic32mz/production/_ext/953055421/interrupts.o
                0x000000009d0002d8                __vector_dispatch_188
                0x000000009d0002e0                . = ALIGN (0x4)
                0x00000000000002e0                __vector_offset_189 = DEFINED (__vector_dispatch_189)?(. - _ebase_address):__vector_offset_default
 *(.vector_189)
 .vector_189    0x000000009d0002e0        0x8 build/pic32mz/production/_ext/953055421/interrupts.o
                0x000000009d0002e0                __vector_dispatch_189
                0x000000009d0002e8                . = ALIGN (0x4)
                0x00000000000002e8                __vector_offset_190 = DEFINED (__vector_dispatch_190)?(. - _ebase_address):__vector_offset_default
 *(.vector_190)
 .vector_190    0x000000009d0002e8        0x8 build/pic32mz/production/_ext/953055421/interrupts.o
                0x000000009d0002e8                __vector_dispatch_190
                0x000000009d0002f0                . = ALIGN (0x4)
                0x00000000000002f0                __vector_offset_191 = DEFINED (__vector_dispatch_191)?(. - _ebase_address):__vector_offset_default
 *(.vector_191)
                0x000000009d0002f0                . = ALIGN (0x4)
                0x00000000000002f0                __vector_offset_192 = DEFINED (__vector_dispatch_192)?(. - _ebase_address):__vector_offset_default
 *(.vector_192)
                0x000000009d0002f0                . = ALIGN (0x4)
                0x00000000000002f0                __vector_offset_193 = DEFINED (__vector_dispatch_193)?(. - _ebase_address):__vector_offset_default
 *(.vector_193)
                0x000000009d0002f0                . = ALIGN (0x4)
                0x00000000000002f0                __vector_offset_194 = DEFINED (__vector_dispatch_194)?(. - _ebase_address):__vector_offset_default
 *(.vector_194)
                0x000000009d0002f0                . = ALIGN (0x4)
                0x00000000000002f0                __vector_offset_195 = DEFINED (__vector_dispatch_195)?(. - _ebase_address):__vector_offset_default
 *(.vector_195)
                0x000000009d0002f0                . = ALIGN (0x4)
                0x00000000000002f0                __vector_offset_196 = DEFINED (__vector_dispatch_196)?(. - _ebase_address):__vector_offset_default
 *(.vector_196)
                0x000000009d0002f0                . = ALIGN (0x4)
                0x00000000000002f0                __vector_offset_197 = DEFINED (__vector_dispatch_197)?(. - _ebase_address):__vector_offset_default
 *(.vector_197)
                0x000000009d0002f0                . = ALIGN (0x4)
                0x00000000000002f0                __vector_offset_198 = DEFINED (__vector_dispatch_198)?(. - _ebase_address):__vector_offset_default
 *(.vector_198)
                0x000000009d0002f0                . = ALIGN (0x4)
                0x00000000000002f0                __vector_offset_199 = DEFINED (__vector_dispatch_199)?(. - _ebase_address):__vector_offset_default
 *(.vector_199)
                0x000000009d0002f0                . = ALIGN (0x4)
                0x00000000000002f0                __vector_offset_200 = DEFINED (__vector_dispatch_200)?(. - _ebase_address):__vector_offset_default
 *(.vector_200)
                0x000000009d0002f0                . = ALIGN (0x4)
                0x00000000000002f0                __vector_offset_201 = DEFINED (__vector_dispatch_201)?(. - _ebase_address):__vector_offset_default
 *(.vector_201)
                0x000000009d0002f0                . = ALIGN (0x4)
                0x00000000000002f0                __vector_offset_202 = DEFINED (__vector_dispatch_202)?(. - _ebase_address):__vector_offset_default
 *(.vector_202)
                0x000000009d0002f0                . = ALIGN (0x4)
                0x00000000000002f0                __vector_offset_203 = DEFINED (__vector_dispatch_203)?(. - _ebase_address):__vector_offset_default
 *(.vector_203)
                0x000000009d0002f0                . = ALIGN (0x4)
                0x00000000000002f0                __vector_offset_204 = DEFINED (__vector_dispatch_204)?(. - _ebase_address):__vector_offset_default
 *(.vector_204)
                0x000000009d0002f0                . = ALIGN (0x4)
                0x00000000000002f0                __vector_offset_205 = DEFINED (__vector_dispatch_205)?(. - _ebase_address):__vector_offset_default
 *(.vector_205)
                0x000000009d0002f0                . = ALIGN (0x4)
                0x00000000000002f0                __vector_offset_206 = DEFINED (__vector_dispatch_206)?(. - _ebase_address):__vector_offset_default
 *(.vector_206)
                0x000000009d0002f0                . = ALIGN (0x4)
                0x00000000000002f0                __vector_offset_207 = DEFINED (__vector_dispatch_207)?(. - _ebase_address):__vector_offset_default
 *(.vector_207)
                0x000000009d0002f0                . = ALIGN (0x4)
                0x00000000000002f0                __vector_offset_208 = DEFINED (__vector_dispatch_208)?(. - _ebase_address):__vector_offset_default
 *(.vector_208)
                0x000000009d0002f0                . = ALIGN (0x4)
                0x00000000000002f0                __vector_offset_209 = DEFINED (__vector_dispatch_209)?(. - _ebase_address):__vector_offset_default
 *(.vector_209)
                0x000000009d0002f0                . = ALIGN (0x4)
                0x00000000000002f0                __vector_offset_210 = DEFINED (__vector_dispatch_210)?(. - _ebase_address):__vector_offset_default
 *(.vector_210)
                0x000000009d0002f0                . = ALIGN (0x4)
                0x00000000000002f0                __vector_offset_211 = DEFINED (__vector_dispatch_211)?(. - _ebase_address):__vector_offset_default
 *(.vector_211)
                0x000000009d0002f0                . = ALIGN (0x4)
                0x00000000000002f0                __vector_offset_212 = DEFINED (__vector_dispatch_212)?(. - _ebase_address):__vector_offset_default
 *(.vector_212)
                0x000000009d0002f0                . = ALIGN (0x4)
                0x00000000000002f0                __vector_offset_213 = DEFINED (__vector_dispatch_213)?(. - _ebase_address):__vector_offset_default
 *(.vector_213)
                0x000000009d0002f0                . = ALIGN (0x4)
                0x00000000000002f0                __vector_offset_214 = DEFINED (__vector_dispatch_214)?(. - _ebase_address):__vector_offset_default
 *(.vector_214)
                0x000000009d0002f0                . = ALIGN (0x4)
                0x00000000000002f0                __vector_offset_215 = DEFINED (__vector_dispatch_215)?(. - _ebase_address):__vector_offset_default
 *(.vector_215)
                0x000000009d0002f0                . = ALIGN (0x4)
                0x00000000000002f0                __vector_offset_216 = DEFINED (__vector_dispatch_216)?(. - _ebase_address):__vector_offset_default
 *(.vector_216)
                0x000000009d0002f0                . = ALIGN (0x4)
                0x00000000000002f0                __vector_offset_217 = DEFINED (__vector_dispatch_217)?(. - _ebase_address):__vector_offset_default
 *(.vector_217)
                0x000000009d0002f0                . = ALIGN (0x4)
                0x00000000000002f0                __vector_offset_218 = DEFINED (__vector_dispatch_218)?(. - _ebase_address):__vector_offset_default
 *(.vector_218)
                0x000000009d0002f0                . = ALIGN (0x4)
                0x00000000000002f0                __vector_offset_219 = DEFINED (__vector_dispatch_219)?(. - _ebase_address):__vector_offset_default
 *(.vector_219)
                0x000000009d0002f0                . = ALIGN (0x4)
                0x00000000000002f0                __vector_offset_220 = DEFINED (__vector_dispatch_220)?(. - _ebase_address):__vector_offset_default
 *(.vector_220)
                0x000000009d0002f0                . = ALIGN (0x4)
                0x00000000000002f0                __vector_offset_221 = DEFINED (__vector_dispatch_221)?(. - _ebase_address):__vector_offset_default
 *(.vector_221)
                0x000000009d0002f0                . = ALIGN (0x4)
                0x00000000000002f0                __vector_offset_222 = DEFINED (__vector_dispatch_222)?(. - _ebase_address):__vector_offset_default
 *(.vector_222)
                0x000000009d0002f0                . = ALIGN (0x4)
                0x00000000000002f0                __vector_offset_223 = DEFINED (__vector_dispatch_223)?(. - _ebase_address):__vector_offset_default
 *(.vector_223)
                0x000000009d0002f0                . = ALIGN (0x4)
                0x00000000000002f0                __vector_offset_224 = DEFINED (__vector_dispatch_224)?(. - _ebase_address):__vector_offset_default
 *(.vector_224)
                0x000000009d0002f0                . = ALIGN (0x4)
                0x00000000000002f0                __vector_offset_225 = DEFINED (__vector_dispatch_225)?(. - _ebase_address):__vector_offset_default
 *(.vector_225)
                0x000000009d0002f0                . = ALIGN (0x4)
                0x00000000000002f0                __vector_offset_226 = DEFINED (__vector_dispatch_226)?(. - _ebase_address):__vector_offset_default
 *(.vector_226)
                0x000000009d0002f0                . = ALIGN (0x4)
                0x00000000000002f0                __vector_offset_227 = DEFINED (__vector_dispatch_227)?(. - _ebase_address):__vector_offset_default
 *(.vector_227)
                0x000000009d0002f0                . = ALIGN (0x4)
                0x00000000000002f0                __vector_offset_228 = DEFINED (__vector_dispatch_228)?(. - _ebase_address):__vector_offset_default
 *(.vector_228)
                0x000000009d0002f0                . = ALIGN (0x4)
                0x00000000000002f0                __vector_offset_229 = DEFINED (__vector_dispatch_229)?(. - _ebase_address):__vector_offset_default
 *(.vector_229)
                0x000000009d0002f0                . = ALIGN (0x4)
                0x00000000000002f0                __vector_offset_230 = DEFINED (__vector_dispatch_230)?(. - _ebase_address):__vector_offset_default
 *(.vector_230)
                0x000000009d0002f0                . = ALIGN (0x4)
                0x00000000000002f0                __vector_offset_231 = DEFINED (__vector_dispatch_231)?(. - _ebase_address):__vector_offset_default
 *(.vector_231)
                0x000000009d0002f0                . = ALIGN (0x4)
                0x00000000000002f0                __vector_offset_232 = DEFINED (__vector_dispatch_232)?(. - _ebase_address):__vector_offset_default
 *(.vector_232)
                0x000000009d0002f0                . = ALIGN (0x4)
                0x00000000000002f0                __vector_offset_233 = DEFINED (__vector_dispatch_233)?(. - _ebase_address):__vector_offset_default
 *(.vector_233)
                0x000000009d0002f0                . = ALIGN (0x4)
                0x00000000000002f0                __vector_offset_234 = DEFINED (__vector_dispatch_234)?(. - _ebase_address):__vector_offset_default
 *(.vector_234)
                0x000000009d0002f0                . = ALIGN (0x4)
                0x00000000000002f0                __vector_offset_235 = DEFINED (__vector_dispatch_235)?(. - _ebase_address):__vector_offset_default
 *(.vector_235)
                0x000000009d0002f0                . = ALIGN (0x4)
                0x00000000000002f0                __vector_offset_236 = DEFINED (__vector_dispatch_236)?(. - _ebase_address):__vector_offset_default
 *(.vector_236)
                0x000000009d0002f0                . = ALIGN (0x4)
                0x00000000000002f0                __vector_offset_237 = DEFINED (__vector_dispatch_237)?(. - _ebase_address):__vector_offset_default
 *(.vector_237)
                0x000000009d0002f0                . = ALIGN (0x4)
                0x00000000000002f0                __vector_offset_238 = DEFINED (__vector_dispatch_238)?(. - _ebase_address):__vector_offset_default
 *(.vector_238)
                0x000000009d0002f0                . = ALIGN (0x4)
                0x00000000000002f0                __vector_offset_239 = DEFINED (__vector_dispatch_239)?(. - _ebase_address):__vector_offset_default
 *(.vector_239)
                0x000000009d0002f0                . = ALIGN (0x4)
                0x00000000000002f0                __vector_offset_240 = DEFINED (__vector_dispatch_240)?(. - _ebase_address):__vector_offset_default
 *(.vector_240)
                0x000000009d0002f0                . = ALIGN (0x4)
                0x00000000000002f0                __vector_offset_241 = DEFINED (__vector_dispatch_241)?(. - _ebase_address):__vector_offset_default
 *(.vector_241)
                0x000000009d0002f0                . = ALIGN (0x4)
                0x00000000000002f0                __vector_offset_242 = DEFINED (__vector_dispatch_242)?(. - _ebase_address):__vector_offset_default
 *(.vector_242)
                0x000000009d0002f0                . = ALIGN (0x4)
                0x00000000000002f0                __vector_offset_243 = DEFINED (__vector_dispatch_243)?(. - _ebase_address):__vector_offset_default
 *(.vector_243)
                0x000000009d0002f0                . = ALIGN (0x4)
                0x00000000000002f0                __vector_offset_244 = DEFINED (__vector_dispatch_244)?(. - _ebase_address):__vector_offset_default
 *(.vector_244)
                0x000000009d0002f0                . = ALIGN (0x4)
                0x00000000000002f0                __vector_offset_245 = DEFINED (__vector_dispatch_245)?(. - _ebase_address):__vector_offset_default
 *(.vector_245)
                0x000000009d0002f0                . = ALIGN (0x4)
                0x00000000000002f0                __vector_offset_246 = DEFINED (__vector_dispatch_246)?(. - _ebase_address):__vector_offset_default
 *(.vector_246)
                0x000000009d0002f0                . = ALIGN (0x4)
                0x00000000000002f0                __vector_offset_247 = DEFINED (__vector_dispatch_247)?(. - _ebase_address):__vector_offset_default
 *(.vector_247)
                0x000000009d0002f0                . = ALIGN (0x4)
                0x00000000000002f0                __vector_offset_248 = DEFINED (__vector_dispatch_248)?(. - _ebase_address):__vector_offset_default
 *(.vector_248)
                0x000000009d0002f0                . = ALIGN (0x4)
                0x00000000000002f0                __vector_offset_249 = DEFINED (__vector_dispatch_249)?(. - _ebase_address):__vector_offset_default
 *(.vector_249)
                0x000000009d0002f0                . = ALIGN (0x4)
                0x00000000000002f0                __vector_offset_250 = DEFINED (__vector_dispatch_250)?(. - _ebase_address):__vector_offset_default
 *(.vector_250)
                0x000000009d0002f0                . = ALIGN (0x4)
                0x00000000000002f0                __vector_offset_251 = DEFINED (__vector_dispatch_251)?(. - _ebase_address):__vector_offset_default
 *(.vector_251)
                0x000000009d0002f0                . = ALIGN (0x4)
                0x00000000000002f0                __vector_offset_252 = DEFINED (__vector_dispatch_252)?(. - _ebase_address):__vector_offset_default
 *(.vector_252)
                0x000000009d0002f0                . = ALIGN (0x4)
                0x00000000000002f0                __vector_offset_253 = DEFINED (__vector_dispatch_253)?(. - _ebase_address):__vector_offset_default
 *(.vector_253)
                0x000000009d0002f0                . = ALIGN (0x4)
                0x00000000000002f0                __vector_offset_254 = DEFINED (__vector_dispatch_254)?(. - _ebase_address):__vector_offset_default
 *(.vector_254)
                0x000000009d0002f0                . = ALIGN (0x4)
                0x00000000000002f0                __vector_offset_255 = DEFINED (__vector_dispatch_255)?(. - _ebase_address):__vector_offset_default
 *(.vector_255)
                0x000000009d0002f0                . = ALIGN (0x4)
                0x00000000000002f0                __vector_offset_default = (. - _ebase_address)
 *(.vector_default)
 .vector_default
                0x000000009d0002f0       0x48 c:/program files/microchip/xc32/v4.00/bin/bin/../../lib/gcc/pic32mx/8.3.1/../../../../pic32mx/lib/fpu64\libpic32.a(defaultinterrupt.o)
                0x000000009d0002f0                _DefaultInterrupt

.startup
 *(.startup)

.text           0x000000009d000338        0x0
 *(.stub .gnu.linkonce.t.*)
 *(.text.*personality*)
 *(.mips16.fn.*)
 *(.mips16.call.*)
 *(.gnu.warning)
                0x000000009d000338                . = ALIGN (0x4)

.init           0x000000009d000338        0x0
 *crti.o(.init)
 *crtbegin.o(.init)
 *(EXCLUDE_FILE(*crtn.o *crtend?.o *crtend.o) .init)
 *crtend.o(.init)
 *crtn.o(.init)
                0x000000009d000338                . = ALIGN (0x4)

.fini           0x000000009d000338        0x0
 *(.fini)
                0x000000009d000338                . = ALIGN (0x4)

.preinit_array  0x000000009d000338        0x0
                [!provide]                        PROVIDE (__preinit_array_start = .)
 *(.preinit_array)
                [!provide]                        PROVIDE (__preinit_array_end = .)
                0x000000009d000338                . = ALIGN (0x4)

.init_array     0x000000009d000338        0x0
                [!provide]                        PROVIDE (__init_array_start = .)
 *(SORT_BY_NAME(.init_array.*))
 *(.init_array)
                [!provide]                        PROVIDE (__init_array_end = .)
                0x000000009d000338                . = ALIGN (0x4)

.fini_array     0x000000009d000338        0x0
                [!provide]                        PROVIDE (__fini_array_start = .)
 *(SORT_BY_NAME(.fini_array.*))
 *(.fini_array)
                [!provide]                        PROVIDE (__fini_array_end = .)
                0x000000009d000338                . = ALIGN (0x4)

.ctors          0x000000009d000338        0x0
 *crtbegin.o(.ctors)
 *crtbegin?.o(.ctors)
 *(EXCLUDE_FILE(*crtend?.o *crtend.o) .ctors)
 *(SORT_BY_NAME(.ctors.*))
 *(.ctors)
                0x000000009d000338                . = ALIGN (0x4)

.dtors          0x000000009d000338        0x0
 *crtbegin.o(.dtors)
 *crtbegin?.o(.dtors)
 *(EXCLUDE_FILE(*crtend?.o *crtend.o) .dtors)
 *(SORT_BY_NAME(.dtors.*))
 *(.dtors)
                0x000000009d000338                . = ALIGN (0x4)

.rodata         0x000000009d000338        0x0
 *(.gnu.linkonce.r.*)
 *(.rodata1)
                0x000000009d000338                . = ALIGN (0x4)

.sdata2         0x000000009d000338        0x0
 *(.sdata2 .sdata2.* .gnu.linkonce.s2.*)
                0x000000009d000338                . = ALIGN (0x4)

.sbss2          0x000000009d000338        0x0
 *(.sbss2 .sbss2.* .gnu.linkonce.sb2.*)
                0x000000009d000338                . = ALIGN (0x4)

.eh_frame_hdr
 *(.eh_frame_hdr)
                0x000000009d000338                . = ALIGN (0x4)

.eh_frame
 *(.eh_frame)
                0x000000009d000338                . = ALIGN (0x4)

.gcc_except_table
 *(.gcc_except_table .gcc_except_table.*)
                0x000000009d000338                . = ALIGN (0x4)

.dbg_data       0x0000000080000000        0x0
                0x0000000080000000                . = (. + DEFINED (_DEBUGGER)?0x200:0x0)
                0x0000000080000000                . = (. + DEFINED (_DEBUGGER)?0x80:0x0)
                0x0000000080000000                . = (. + DEFINED (_DEBUGGER)?0x100:0x0)

.jcr            0x0000000080000000        0x0
 *(.jcr)
                0x0000000080000000                . = ALIGN (0x4)

.eh_frame
 *(.eh_frame)
                0x0000000080000000                . = ALIGN (0x4)

.gcc_except_table
 *(.gcc_except_table .gcc_except_table.*)
                0x0000000080000000                . = ALIGN (0x4)

.persist        0x0000000080000000        0x0
                0x0000000080000000                _persist_begin = .
 *(.persist .persist.*)
                0x0000000080000000                . = ALIGN (0x4)
                0x0000000080000000                _persist_end = .

.data           0x0000000080000000        0x0
 *(.gnu.linkonce.d.*)
 *(.data1)
                0x0000000080000000                . = ALIGN (0x4)
                0x0000000080000000                . = .
                0x0000000080007ff0                _gp = (ALIGN (0x10) + 0x7ff0)

.got            0x0000000080000000        0x0
 *(.got.plt)
 *(.got)
                0x0000000080000000                . = ALIGN (0x4)

.sdata          0x0000000080000000       0x2c
                0x0000000080000000                _sdata_begin = .
 *(.sdata .sdata.* .gnu.linkonce.s.*)
 .sdata         0x0000000080000000        0x2 build/pic32mz/production/_ext/1636986698/sys_time.o
 *fill*         0x0000000080000002        0x2 
 .sdata         0x0000000080000004        0x4 build/pic32mz/production/_ext/1360937237/mdot.o
                0x0000000080000004                testMD
 .sdata         0x0000000080000008       0x24 c:/program files/microchip/xc32/v4.00/bin/bin/../../lib/gcc/pic32mx/8.3.1/../../../../pic32mx/lib/fpu64\libpic32.a(pic32_init_cache.o)
                0x0000000080000008                __pic32_icache_size
                0x000000008000000c                __pic32_icache_linesize
                0x0000000080000010                __pic32_icache_ways
                0x0000000080000014                __pic32_dcache_size
                0x0000000080000018                __pic32_dcache_linesize
                0x000000008000001c                __pic32_dcache_ways
                0x0000000080000020                __pic32_scache_size
                0x0000000080000024                __pic32_scache_linesize
                0x0000000080000028                __pic32_scache_ways
                0x000000008000002c                . = ALIGN (0x4)
                0x000000008000002c                _sdata_end = .

.lit8
 *(.lit8)

.lit4
 *(.lit4)
                0x000000008000002c                . = ALIGN (0x4)
                0x000000008000002c                _data_end = .
                0x000000008000002c                _bss_begin = .

.sbss           0x000000008000002c       0x70
                0x000000008000002c                _sbss_begin = .
 *(.dynsbss)
 *(.sbss .sbss.* .gnu.linkonce.sb.*)
 .sbss          0x000000008000002c        0x8 build/pic32mz/production/_ext/809018751/plib_coretimer.o
                0x000000008000002c                coreTmr
 .sbss          0x0000000080000034        0x8 build/pic32mz/production/_ext/10662482/plib_tmr2.o
 .sbss          0x000000008000003c        0x8 build/pic32mz/production/_ext/1192657380/ff.o
 .sbss          0x0000000080000044       0x18 build/pic32mz/production/_ext/252936118/sys_fs.o
                0x0000000080000044                errorValue
                0x0000000080000048                gSysFsMutex
                0x000000008000004c                gSYSFSCurrentMountPoint
                0x0000000080000054                gSYSFSObj
 .sbss          0x000000008000005c        0x2 build/pic32mz/production/_ext/252936118/sys_fs_media_manager.o
                0x000000008000005c                VolToPart
 .sbss          0x000000008000005e        0x1 build/pic32mz/production/_ext/252936118/sys_fs_fat_interface.o
 *fill*         0x000000008000005f        0x1 
 .sbss          0x0000000080000060        0x2 build/pic32mz/production/_ext/202551283/usb_device_cdc.o
                0x0000000080000060                gUSBDeviceCdcCommonDataObj
 *fill*         0x0000000080000062        0x2 
 .sbss          0x0000000080000064       0x1c build/pic32mz/production/_ext/1360937237/app.o
                0x0000000080000064                flag10ms
                0x0000000080000068                count10ms
                0x000000008000006c                flag100ms
                0x0000000080000070                count100ms
                0x0000000080000074                latch
                0x0000000080000078                divider
                0x000000008000007c                clkFreq
 .sbss          0x0000000080000080        0xf build/pic32mz/production/_ext/1360937237/communication.o
                0x0000000080000080                testreq
                0x0000000080000084                testsend
                0x0000000080000088                uart6_eofFlag
                0x0000000080000089                uart6_timeoutFlag
                0x000000008000008a                uart6_eof
                0x000000008000008c                uart6_timeout
                0x000000008000008e                rxByte
 *fill*         0x000000008000008f        0x1 
 .sbss          0x0000000080000090        0xc build/pic32mz/production/_ext/1360937237/mdot.o
                0x0000000080000090                resTest
                0x0000000080000094                mDotErrorCount
                0x0000000080000096                mDotSentCount
                0x0000000080000098                mDotTimoutCount
                0x000000008000009a                timeout
 *(.scommon)
                0x000000008000009c                _sbss_end = .
                0x000000008000009c                . = ALIGN (0x4)

.bss            0x000000008000009c        0x0
 *(.dynbss)
 *(COMMON)
                0x000000008000009c                . = ALIGN ((. != 0x0)?0x4:0x1)
                0x000000008000009c                . = ALIGN (0x4)
                0x000000008000009c                _end = .
                0x000000008000009c                _bss_end = .
                0x0000000000080000                _bmxdudba_address = LENGTH (kseg0_data_mem)
                0x0000000000080000                _bmxdupba_address = LENGTH (kseg0_data_mem)

/DISCARD/
 *(.pdr)
 *(.rel.dyn)
 *(.note.GNU-stack)
 *(.note.GNU-stack)
 *(.gnu_debuglink)
 *(.gnu.lto_*)
 *(.discard)

.gptab.sdata
 *(.gptab.data)
 *(.gptab.sdata)

.gptab.sbss
 *(.gptab.bss)
 *(.gptab.sbss)

.mdebug.abi32   0x0000000000000000        0x0
 *(.mdebug.abi32)
 .mdebug.abi32  0x0000000000000000        0x0 build/pic32mz/production/_ext/757013429/drv_sdspi.o
 .mdebug.abi32  0x0000000000000000        0x0 build/pic32mz/production/_ext/757013429/drv_sdspi_driver_interface.o
 .mdebug.abi32  0x0000000000000000        0x0 build/pic32mz/production/_ext/757013429/drv_sdspi_file_system.o
 .mdebug.abi32  0x0000000000000000        0x0 build/pic32mz/production/_ext/2120450970/drv_spi.o
 .mdebug.abi32  0x0000000000000000        0x0 build/pic32mz/production/_ext/1783409726/drv_usbhs.o
 .mdebug.abi32  0x0000000000000000        0x0 build/pic32mz/production/_ext/1783409726/drv_usbhs_device.o
 .mdebug.abi32  0x0000000000000000        0x0 build/pic32mz/production/_ext/1640642171/plib_cache.o
 .mdebug.abi32  0x0000000000000000        0x0 build/pic32mz/production/_ext/10646107/plib_clk.o
 .mdebug.abi32  0x0000000000000000        0x0 build/pic32mz/production/_ext/809018751/plib_coretimer.o
 .mdebug.abi32  0x0000000000000000        0x0 build/pic32mz/production/_ext/330098546/plib_evic.o
 .mdebug.abi32  0x0000000000000000        0x0 build/pic32mz/production/_ext/330152374/plib_gpio.o
 .mdebug.abi32  0x0000000000000000        0x0 build/pic32mz/production/_ext/249272802/plib_i2c2_master.o
 .mdebug.abi32  0x0000000000000000        0x0 build/pic32mz/production/_ext/249272802/plib_i2c4_master.o
 .mdebug.abi32  0x0000000000000000        0x0 build/pic32mz/production/_ext/867254719/plib_spi4_master.o
 .mdebug.abi32  0x0000000000000000        0x0 build/pic32mz/production/_ext/867254719/plib_spi2_master.o
 .mdebug.abi32  0x0000000000000000        0x0 build/pic32mz/production/_ext/867254719/plib_spi1_master.o
 .mdebug.abi32  0x0000000000000000        0x0 build/pic32mz/production/_ext/10662482/plib_tmr2.o
 .mdebug.abi32  0x0000000000000000        0x0 build/pic32mz/production/_ext/330555317/plib_uart5.o
 .mdebug.abi32  0x0000000000000000        0x0 build/pic32mz/production/_ext/330555317/plib_uart6.o
 .mdebug.abi32  0x0000000000000000        0x0 build/pic32mz/production/_ext/330555317/plib_uart3.o
 .mdebug.abi32  0x0000000000000000        0x0 build/pic32mz/production/_ext/330555317/plib_uart4.o
 .mdebug.abi32  0x0000000000000000        0x0 build/pic32mz/production/_ext/330555317/plib_uart1.o
 .mdebug.abi32  0x0000000000000000        0x0 build/pic32mz/production/_ext/330555317/plib_uart2.o
 .mdebug.abi32  0x0000000000000000        0x0 build/pic32mz/production/_ext/1991269565/xc32_monitor.o
 .mdebug.abi32  0x0000000000000000        0x0 build/pic32mz/production/_ext/1519118610/sys_cache.o
 .mdebug.abi32  0x0000000000000000        0x0 build/pic32mz/production/_ext/1373644956/sys_dma.o
 .mdebug.abi32  0x0000000000000000        0x0 build/pic32mz/production/_ext/1192657380/ff.o
 .mdebug.abi32  0x0000000000000000        0x0 build/pic32mz/production/_ext/1192657380/ffunicode.o
 .mdebug.abi32  0x0000000000000000        0x0 build/pic32mz/production/_ext/727274963/diskio.o
 .mdebug.abi32  0x0000000000000000        0x0 build/pic32mz/production/_ext/252936118/sys_fs.o
 .mdebug.abi32  0x0000000000000000        0x0 build/pic32mz/production/_ext/252936118/sys_fs_media_manager.o
 .mdebug.abi32  0x0000000000000000        0x0 build/pic32mz/production/_ext/252936118/sys_fs_fat_interface.o
 .mdebug.abi32  0x0000000000000000        0x0 build/pic32mz/production/_ext/1832149040/sys_int.o
 .mdebug.abi32  0x0000000000000000        0x0 build/pic32mz/production/_ext/1636986698/sys_time.o
 .mdebug.abi32  0x0000000000000000        0x0 build/pic32mz/production/_ext/202551283/usb_device.o
 .mdebug.abi32  0x0000000000000000        0x0 build/pic32mz/production/_ext/202551283/usb_device_cdc.o
 .mdebug.abi32  0x0000000000000000        0x0 build/pic32mz/production/_ext/202551283/usb_device_cdc_acm.o
 .mdebug.abi32  0x0000000000000000        0x0 build/pic32mz/production/_ext/953055421/usb_device_init_data.o
 .mdebug.abi32  0x0000000000000000        0x0 build/pic32mz/production/_ext/953055421/tasks.o
 .mdebug.abi32  0x0000000000000000        0x0 build/pic32mz/production/_ext/953055421/initialization.o
 .mdebug.abi32  0x0000000000000000        0x0 build/pic32mz/production/_ext/953055421/interrupts.o
 .mdebug.abi32  0x0000000000000000        0x0 build/pic32mz/production/_ext/953055421/exceptions.o
 .mdebug.abi32  0x0000000000000000        0x0 build/pic32mz/production/_ext/1360937237/app.o
 .mdebug.abi32  0x0000000000000000        0x0 build/pic32mz/production/_ext/1360937237/main.o
 .mdebug.abi32  0x0000000000000000        0x0 build/pic32mz/production/_ext/1360937237/communication.o
 .mdebug.abi32  0x0000000000000000        0x0 build/pic32mz/production/_ext/1360937237/mdot.o
 .mdebug.abi32  0x0000000000000000        0x0 build/pic32mz/production/_ext/1360937237/stringbuffer.o
 .mdebug.abi32  0x0000000000000000        0x0 c:/program files/microchip/xc32/v4.00/bin/bin/../../lib/gcc/pic32mx/8.3.1/fpu64\libgcc.a(_udivdi3.o)
 .mdebug.abi32  0x0000000000000000        0x0 c:/program files/microchip/xc32/v4.00/bin/bin/../../lib/gcc/pic32mx/8.3.1/../../../../pic32mx/lib/fpu64\libpic32.a(default-on-reset.o)
 .mdebug.abi32  0x0000000000000000        0x0 c:/program files/microchip/xc32/v4.00/bin/bin/../../lib/gcc/pic32mx/8.3.1/../../../../pic32mx/lib/fpu64\libpic32.a(default-on-bootstrap.o)
 .mdebug.abi32  0x0000000000000000        0x0 c:/program files/microchip/xc32/v4.00/bin/bin/../../lib/gcc/pic32mx/8.3.1/../../../../pic32mx/lib/fpu64\libpic32.a(defaultinterrupt.o)
 .mdebug.abi32  0x0000000000000000        0x0 c:/program files/microchip/xc32/v4.00/bin/bin/../../lib/gcc/pic32mx/8.3.1/../../../../pic32mx/lib/fpu64\libc-musl.a(__sio_sprintf_dosux.o)
 .mdebug.abi32  0x0000000000000000        0x0 c:/program files/microchip/xc32/v4.00/bin/bin/../../lib/gcc/pic32mx/8.3.1/../../../../pic32mx/lib/fpu64\libc-musl.a(__fmt_d.o)
 .mdebug.abi32  0x0000000000000000        0x0 c:/program files/microchip/xc32/v4.00/bin/bin/../../lib/gcc/pic32mx/8.3.1/../../../../pic32mx/lib/fpu64\libc-musl.a(__fmt_o.o)
 .mdebug.abi32  0x0000000000000000        0x0 c:/program files/microchip/xc32/v4.00/bin/bin/../../lib/gcc/pic32mx/8.3.1/../../../../pic32mx/lib/fpu64\libc-musl.a(__fmt_s.o)
 .mdebug.abi32  0x0000000000000000        0x0 c:/program files/microchip/xc32/v4.00/bin/bin/../../lib/gcc/pic32mx/8.3.1/../../../../pic32mx/lib/fpu64\libc-musl.a(__fmt_u.o)
 .mdebug.abi32  0x0000000000000000        0x0 c:/program files/microchip/xc32/v4.00/bin/bin/../../lib/gcc/pic32mx/8.3.1/../../../../pic32mx/lib/fpu64\libc-musl.a(__fmt_x.o)
 .mdebug.abi32  0x0000000000000000        0x0 c:/program files/microchip/xc32/v4.00/bin/bin/../../lib/gcc/pic32mx/8.3.1/../../../../pic32mx/lib/fpu64\libc-musl.a(__printf_core.o)
 .mdebug.abi32  0x0000000000000000        0x0 c:/program files/microchip/xc32/v4.00/bin/bin/../../lib/gcc/pic32mx/8.3.1/../../../../pic32mx/lib/fpu64\libc-musl.a(stdin.o)
 .mdebug.abi32  0x0000000000000000        0x0 c:/program files/microchip/xc32/v4.00/bin/bin/../../lib/gcc/pic32mx/8.3.1/../../../../pic32mx/lib/fpu64\libc-musl.a(stdout.o)
 .mdebug.abi32  0x0000000000000000        0x0 c:/program files/microchip/xc32/v4.00/bin/bin/../../lib/gcc/pic32mx/8.3.1/../../../../pic32mx/lib/fpu64\libc-musl.a(setbuf.o)
 .mdebug.abi32  0x0000000000000000        0x0 c:/program files/microchip/xc32/v4.00/bin/bin/../../lib/gcc/pic32mx/8.3.1/../../../../pic32mx/lib/fpu64\libc-musl.a(atoi.o)
 .mdebug.abi32  0x0000000000000000        0x0 c:/program files/microchip/xc32/v4.00/bin/bin/../../lib/gcc/pic32mx/8.3.1/../../../../pic32mx/lib/fpu64\libc-musl.a(memmove.o)
 .mdebug.abi32  0x0000000000000000        0x0 c:/program files/microchip/xc32/v4.00/bin/bin/../../lib/gcc/pic32mx/8.3.1/../../../../pic32mx/lib/fpu64\libc-musl.a(strncmp.o)
 .mdebug.abi32  0x0000000000000000        0x0 c:/program files/microchip/xc32/v4.00/bin/bin/../../lib/gcc/pic32mx/8.3.1/../../../../pic32mx/lib/fpu64\libc-musl.a(strncpy.o)
 .mdebug.abi32  0x0000000000000000        0x0 c:/program files/microchip/xc32/v4.00/bin/bin/../../lib/gcc/pic32mx/8.3.1/../../../../pic32mx/lib/fpu64\libc-musl.a(tolower.o)
 .mdebug.abi32  0x0000000000000000        0x0 c:/program files/microchip/xc32/v4.00/bin/bin/../../lib/gcc/pic32mx/8.3.1/../../../../pic32mx/lib/fpu64\libc-musl.a(toupper.o)
 .mdebug.abi32  0x0000000000000000        0x0 c:/program files/microchip/xc32/v4.00/bin/bin/../../lib/gcc/pic32mx/8.3.1/../../../../pic32mx/lib/fpu64\libc-musl.a(__int_vsprintf.o)
 .mdebug.abi32  0x0000000000000000        0x0 c:/program files/microchip/xc32/v4.00/bin/bin/../../lib/gcc/pic32mx/8.3.1/../../../../pic32mx/lib/fpu64\libc-musl.a(__fopen.o)
 .mdebug.abi32  0x0000000000000000        0x0 c:/program files/microchip/xc32/v4.00/bin/bin/../../lib/gcc/pic32mx/8.3.1/../../../../pic32mx/lib/fpu64\libc-musl.a(__io_init_needed.o)
 .mdebug.abi32  0x0000000000000000        0x0 c:/program files/microchip/xc32/v4.00/bin/bin/../../lib/gcc/pic32mx/8.3.1/../../../../pic32mx/lib/fpu64\libc-musl.a(__io_rw_needed.o)
 .mdebug.abi32  0x0000000000000000        0x0 c:/program files/microchip/xc32/v4.00/bin/bin/../../lib/gcc/pic32mx/8.3.1/../../../../pic32mx/lib/fpu64\libc-musl.a(__out.o)
 .mdebug.abi32  0x0000000000000000        0x0 c:/program files/microchip/xc32/v4.00/bin/bin/../../lib/gcc/pic32mx/8.3.1/../../../../pic32mx/lib/fpu64\libc-musl.a(__pop_float.o)
 .mdebug.abi32  0x0000000000000000        0x0 c:/program files/microchip/xc32/v4.00/bin/bin/../../lib/gcc/pic32mx/8.3.1/../../../../pic32mx/lib/fpu64\libc-musl.a(__pop_int.o)
 .mdebug.abi32  0x0000000000000000        0x0 c:/program files/microchip/xc32/v4.00/bin/bin/../../lib/gcc/pic32mx/8.3.1/../../../../pic32mx/lib/fpu64\libc-musl.a(__pop_ptr.o)
 .mdebug.abi32  0x0000000000000000        0x0 c:/program files/microchip/xc32/v4.00/bin/bin/../../lib/gcc/pic32mx/8.3.1/../../../../pic32mx/lib/fpu64\libc-musl.a(__stdio_close.o)
 .mdebug.abi32  0x0000000000000000        0x0 c:/program files/microchip/xc32/v4.00/bin/bin/../../lib/gcc/pic32mx/8.3.1/../../../../pic32mx/lib/fpu64\libc-musl.a(__stdio_read.o)
 .mdebug.abi32  0x0000000000000000        0x0 c:/program files/microchip/xc32/v4.00/bin/bin/../../lib/gcc/pic32mx/8.3.1/../../../../pic32mx/lib/fpu64\libc-musl.a(__towrite_rw.o)
 .mdebug.abi32  0x0000000000000000        0x0 c:/program files/microchip/xc32/v4.00/bin/bin/../../lib/gcc/pic32mx/8.3.1/../../../../pic32mx/lib/fpu64\libc-musl.a(setvbuf.o)
 .mdebug.abi32  0x0000000000000000        0x0 c:/program files/microchip/xc32/v4.00/bin/bin/../../lib/gcc/pic32mx/8.3.1/../../../../pic32mx/lib/fpu64\libc-musl.a(stpncpy.o)
 .mdebug.abi32  0x0000000000000000        0x0 c:/program files/microchip/xc32/v4.00/bin/bin/../../lib/gcc/pic32mx/8.3.1/../../../../pic32mx/lib/fpu64\libc-musl.a(readv.o)
 .mdebug.abi32  0x0000000000000000        0x0 c:/program files/microchip/xc32/v4.00/bin/bin/../../lib/gcc/pic32mx/8.3.1/../../../../pic32mx/lib/fpu64\libc-musl.a(malloc.o)
 .mdebug.abi32  0x0000000000000000        0x0 c:/program files/microchip/xc32/v4.00/bin/bin/../../lib/gcc/pic32mx/8.3.1/../../../../pic32mx/lib/fpu64\libc-musl.a(expand_heap.o)
 .mdebug.abi32  0x0000000000000000        0x0 c:/program files/microchip/xc32/v4.00/bin/bin/../../lib/gcc/pic32mx/8.3.1/../../../../pic32mx/lib/fpu64\libc-musl.a(__int_vsnprintf.o)
 .mdebug.abi32  0x0000000000000000        0x0 c:/program files/microchip/xc32/v4.00/bin/bin/../../lib/gcc/pic32mx/8.3.1/../../../../pic32mx/lib/fpu64\libc-musl.a(__fopen_rw.o)
 .mdebug.abi32  0x0000000000000000        0x0 c:/program files/microchip/xc32/v4.00/bin/bin/../../lib/gcc/pic32mx/8.3.1/../../../../pic32mx/lib/fpu64\libc-musl.a(__ftello_rw.o)
 .mdebug.abi32  0x0000000000000000        0x0 c:/program files/microchip/xc32/v4.00/bin/bin/../../lib/gcc/pic32mx/8.3.1/../../../../pic32mx/lib/fpu64\libc-musl.a(__init_stdio.o)
 .mdebug.abi32  0x0000000000000000        0x0 c:/program files/microchip/xc32/v4.00/bin/bin/../../lib/gcc/pic32mx/8.3.1/../../../../pic32mx/lib/fpu64\libc-musl.a(__io_buf_needed.o)
 .mdebug.abi32  0x0000000000000000        0x0 c:/program files/microchip/xc32/v4.00/bin/bin/../../lib/gcc/pic32mx/8.3.1/../../../../pic32mx/lib/fpu64\libc-musl.a(__io_file_needed.o)
 .mdebug.abi32  0x0000000000000000        0x0 c:/program files/microchip/xc32/v4.00/bin/bin/../../lib/gcc/pic32mx/8.3.1/../../../../pic32mx/lib/fpu64\libc-musl.a(__io_std_needed.o)
 .mdebug.abi32  0x0000000000000000        0x0 c:/program files/microchip/xc32/v4.00/bin/bin/../../lib/gcc/pic32mx/8.3.1/../../../../pic32mx/lib/fpu64\libc-musl.a(__putc.o)
 .mdebug.abi32  0x0000000000000000        0x0 c:/program files/microchip/xc32/v4.00/bin/bin/../../lib/gcc/pic32mx/8.3.1/../../../../pic32mx/lib/fpu64\libc-musl.a(__stderr.o)
 .mdebug.abi32  0x0000000000000000        0x0 c:/program files/microchip/xc32/v4.00/bin/bin/../../lib/gcc/pic32mx/8.3.1/../../../../pic32mx/lib/fpu64\libc-musl.a(__stdio_exit.o)
 .mdebug.abi32  0x0000000000000000        0x0 c:/program files/microchip/xc32/v4.00/bin/bin/../../lib/gcc/pic32mx/8.3.1/../../../../pic32mx/lib/fpu64\libc-musl.a(__stdio_write.o)
 .mdebug.abi32  0x0000000000000000        0x0 c:/program files/microchip/xc32/v4.00/bin/bin/../../lib/gcc/pic32mx/8.3.1/../../../../pic32mx/lib/fpu64\libc-musl.a(__stdout.o)
 .mdebug.abi32  0x0000000000000000        0x0 c:/program files/microchip/xc32/v4.00/bin/bin/../../lib/gcc/pic32mx/8.3.1/../../../../pic32mx/lib/fpu64\libc-musl.a(__towrite.o)
 .mdebug.abi32  0x0000000000000000        0x0 c:/program files/microchip/xc32/v4.00/bin/bin/../../lib/gcc/pic32mx/8.3.1/../../../../pic32mx/lib/fpu64\libc-musl.a(putc.o)
 .mdebug.abi32  0x0000000000000000        0x0 c:/program files/microchip/xc32/v4.00/bin/bin/../../lib/gcc/pic32mx/8.3.1/../../../../pic32mx/lib/fpu64\libc-musl.a(read.o)
 .mdebug.abi32  0x0000000000000000        0x0 c:/program files/microchip/xc32/v4.00/bin/bin/../../lib/gcc/pic32mx/8.3.1/../../../../pic32mx/lib/fpu64\libc-musl.a(writev.o)
 .mdebug.abi32  0x0000000000000000        0x0 c:/program files/microchip/xc32/v4.00/bin/bin/../../lib/gcc/pic32mx/8.3.1/../../../../pic32mx/lib/fpu64\libc-musl.a(libc.o)
 .mdebug.abi32  0x0000000000000000        0x0 c:/program files/microchip/xc32/v4.00/bin/bin/../../lib/gcc/pic32mx/8.3.1/../../../../pic32mx/lib/fpu64\libc-musl.a(syscall_ret.o)
 .mdebug.abi32  0x0000000000000000        0x0 c:/program files/microchip/xc32/v4.00/bin/bin/../../lib/gcc/pic32mx/8.3.1/../../../../pic32mx/lib/fpu64\libc-musl.a(__int_vfprintf.o)
 .mdebug.abi32  0x0000000000000000        0x0 c:/program files/microchip/xc32/v4.00/bin/bin/../../lib/gcc/pic32mx/8.3.1/../../../../pic32mx/lib/fpu64\libc-musl.a(__overflow.o)
 .mdebug.abi32  0x0000000000000000        0x0 c:/program files/microchip/xc32/v4.00/bin/bin/../../lib/gcc/pic32mx/8.3.1/../../../../pic32mx/lib/fpu64\libc-musl.a(__fclose.o)
 .mdebug.abi32  0x0000000000000000        0x0 c:/program files/microchip/xc32/v4.00/bin/bin/../../lib/gcc/pic32mx/8.3.1/../../../../pic32mx/lib/fpu64\libc-musl.a(__fseeko.o)
 .mdebug.abi32  0x0000000000000000        0x0 c:/program files/microchip/xc32/v4.00/bin/bin/../../lib/gcc/pic32mx/8.3.1/../../../../pic32mx/lib/fpu64\libc-musl.a(__ftello.o)
 .mdebug.abi32  0x0000000000000000        0x0 c:/program files/microchip/xc32/v4.00/bin/bin/../../lib/gcc/pic32mx/8.3.1/../../../../pic32mx/lib/fpu64\libc-musl.a(__fwrite.o)
 .mdebug.abi32  0x0000000000000000        0x0 c:/program files/microchip/xc32/v4.00/bin/bin/../../lib/gcc/pic32mx/8.3.1/../../../../pic32mx/lib/fpu64\libpic32.a(sbrk.o)
 .mdebug.abi32  0x0000000000000000        0x0 c:/program files/microchip/xc32/v4.00/bin/bin/../../lib/gcc/pic32mx/8.3.1/../../../../pic32mx/lib/fpu64\libpic32.a(write.o)
 .mdebug.abi32  0x0000000000000000        0x0 c:/program files/microchip/xc32/v4.00/bin/bin/../../lib/gcc/pic32mx/8.3.1/../../../../pic32mx/lib/fpu64\libpic32.a(lseek.o)
 .mdebug.abi32  0x0000000000000000        0x0 c:/program files/microchip/xc32/v4.00/bin/bin/../../lib/gcc/pic32mx/8.3.1/../../../../pic32mx/lib/fpu64\libpic32.a(close.o)
 .mdebug.abi32  0x0000000000000000        0x0 c:/program files/microchip/xc32/v4.00/bin/bin/../../lib/gcc/pic32mx/8.3.1/../../../../pic32mx/lib/fpu64\libpic32.a(errno.o)
 .mdebug.abi32  0x0000000000000000        0x0 c:/program files/microchip/xc32/v4.00/bin/bin/../../lib/gcc/pic32mx/8.3.1/fpu64\libgcc.a(_lshrdi3.o)
 .mdebug.abi32  0x0000000000000000        0x0 c:/program files/microchip/xc32/v4.00/bin/bin/../../lib/gcc/pic32mx/8.3.1/fpu64\libgcc.a(_ashldi3.o)
 .mdebug.abi32  0x0000000000000000        0x0 c:/program files/microchip/xc32/v4.00/bin/bin/../../lib/gcc/pic32mx/8.3.1/fpu64\libgcc.a(_umoddi3.o)

.mdebug.abiN32
 *(.mdebug.abiN32)

.mdebug.abi64
 *(.mdebug.abi64)

.mdebug.abiO64
 *(.mdebug.abiO64)

.mdebug.eabi32
 *(.mdebug.eabi32)

.mdebug.eabi64
 *(.mdebug.eabi64)

.gcc_compiled_long32
 *(.gcc_compiled_long32)

.gcc_compiled_long64
 *(.gcc_compiled_long64)

.stab
 *(.stab)

.stabstr
 *(.stabstr)

.stab.excl
 *(.stab.excl)

.stab.exclstr
 *(.stab.exclstr)

.stab.index
 *(.stab.index)

.stab.indexstr
 *(.stab.indexstr)

.comment        0x0000000000000000      0x100
 *(.comment)
 .comment       0x0000000000000000       0x53 build/pic32mz/production/_ext/757013429/drv_sdspi.o
                                         0x54 (size before relaxing)
 .comment       0x0000000000000053       0x54 build/pic32mz/production/_ext/757013429/drv_sdspi_driver_interface.o
 .comment       0x0000000000000053       0x54 build/pic32mz/production/_ext/757013429/drv_sdspi_file_system.o
 .comment       0x0000000000000053       0x54 build/pic32mz/production/_ext/2120450970/drv_spi.o
 .comment       0x0000000000000053       0x54 build/pic32mz/production/_ext/1783409726/drv_usbhs.o
 .comment       0x0000000000000053       0x54 build/pic32mz/production/_ext/1783409726/drv_usbhs_device.o
 .comment       0x0000000000000053       0x54 build/pic32mz/production/_ext/1640642171/plib_cache.o
 .comment       0x0000000000000053       0x54 build/pic32mz/production/_ext/10646107/plib_clk.o
 .comment       0x0000000000000053       0x54 build/pic32mz/production/_ext/809018751/plib_coretimer.o
 .comment       0x0000000000000053       0x54 build/pic32mz/production/_ext/330098546/plib_evic.o
 .comment       0x0000000000000053       0x54 build/pic32mz/production/_ext/330152374/plib_gpio.o
 .comment       0x0000000000000053       0x54 build/pic32mz/production/_ext/249272802/plib_i2c2_master.o
 .comment       0x0000000000000053       0x54 build/pic32mz/production/_ext/249272802/plib_i2c4_master.o
 .comment       0x0000000000000053       0x54 build/pic32mz/production/_ext/867254719/plib_spi4_master.o
 .comment       0x0000000000000053       0x54 build/pic32mz/production/_ext/867254719/plib_spi2_master.o
 .comment       0x0000000000000053       0x54 build/pic32mz/production/_ext/867254719/plib_spi1_master.o
 .comment       0x0000000000000053       0x54 build/pic32mz/production/_ext/10662482/plib_tmr2.o
 .comment       0x0000000000000053       0x54 build/pic32mz/production/_ext/330555317/plib_uart5.o
 .comment       0x0000000000000053       0x54 build/pic32mz/production/_ext/330555317/plib_uart6.o
 .comment       0x0000000000000053       0x54 build/pic32mz/production/_ext/330555317/plib_uart3.o
 .comment       0x0000000000000053       0x54 build/pic32mz/production/_ext/330555317/plib_uart4.o
 .comment       0x0000000000000053       0x54 build/pic32mz/production/_ext/330555317/plib_uart1.o
 .comment       0x0000000000000053       0x54 build/pic32mz/production/_ext/330555317/plib_uart2.o
 .comment       0x0000000000000053       0x54 build/pic32mz/production/_ext/1991269565/xc32_monitor.o
 .comment       0x0000000000000053       0x54 build/pic32mz/production/_ext/1519118610/sys_cache.o
 .comment       0x0000000000000053       0x54 build/pic32mz/production/_ext/1373644956/sys_dma.o
 .comment       0x0000000000000053       0x54 build/pic32mz/production/_ext/1192657380/ff.o
 .comment       0x0000000000000053       0x54 build/pic32mz/production/_ext/1192657380/ffunicode.o
 .comment       0x0000000000000053       0x54 build/pic32mz/production/_ext/727274963/diskio.o
 .comment       0x0000000000000053       0x54 build/pic32mz/production/_ext/252936118/sys_fs.o
 .comment       0x0000000000000053       0x54 build/pic32mz/production/_ext/252936118/sys_fs_media_manager.o
 .comment       0x0000000000000053       0x54 build/pic32mz/production/_ext/252936118/sys_fs_fat_interface.o
 .comment       0x0000000000000053       0x54 build/pic32mz/production/_ext/1832149040/sys_int.o
 .comment       0x0000000000000053       0x54 build/pic32mz/production/_ext/1636986698/sys_time.o
 .comment       0x0000000000000053       0x54 build/pic32mz/production/_ext/202551283/usb_device.o
 .comment       0x0000000000000053       0x54 build/pic32mz/production/_ext/202551283/usb_device_cdc.o
 .comment       0x0000000000000053       0x54 build/pic32mz/production/_ext/202551283/usb_device_cdc_acm.o
 .comment       0x0000000000000053       0x54 build/pic32mz/production/_ext/953055421/usb_device_init_data.o
 .comment       0x0000000000000053       0x54 build/pic32mz/production/_ext/953055421/tasks.o
 .comment       0x0000000000000053       0x54 build/pic32mz/production/_ext/953055421/initialization.o
 .comment       0x0000000000000053       0x54 build/pic32mz/production/_ext/953055421/interrupts.o
 .comment       0x0000000000000053       0x54 build/pic32mz/production/_ext/953055421/exceptions.o
 .comment       0x0000000000000053       0x54 build/pic32mz/production/_ext/1360937237/app.o
 .comment       0x0000000000000053       0x54 build/pic32mz/production/_ext/1360937237/main.o
 .comment       0x0000000000000053       0x54 build/pic32mz/production/_ext/1360937237/communication.o
 .comment       0x0000000000000053       0x54 build/pic32mz/production/_ext/1360937237/mdot.o
 .comment       0x0000000000000053       0x54 build/pic32mz/production/_ext/1360937237/stringbuffer.o
 .comment       0x0000000000000053       0x54 c:/program files/microchip/xc32/v4.00/bin/bin/../../lib/gcc/pic32mx/8.3.1/fpu64\libgcc.a(_udivdi3.o)
 .comment       0x0000000000000053       0x18 c:/program files/microchip/xc32/v4.00/bin/bin/../../lib/gcc/pic32mx/8.3.1/../../../../pic32mx/lib/fpu64\libpic32.a(memcmp.o)
                                         0x19 (size before relaxing)
 .comment       0x000000000000006b       0x18 c:/program files/microchip/xc32/v4.00/bin/bin/../../lib/gcc/pic32mx/8.3.1/../../../../pic32mx/lib/fpu64\libpic32.a(memset.o)
                                         0x19 (size before relaxing)
 .comment       0x0000000000000083       0x19 c:/program files/microchip/xc32/v4.00/bin/bin/../../lib/gcc/pic32mx/8.3.1/../../../../pic32mx/lib/fpu64\libpic32.a(strcpy.o)
                                         0x1a (size before relaxing)
 .comment       0x000000000000009c       0x19 c:/program files/microchip/xc32/v4.00/bin/bin/../../lib/gcc/pic32mx/8.3.1/../../../../pic32mx/lib/fpu64\libpic32.a(strlen.o)
                                         0x1a (size before relaxing)
 .comment       0x00000000000000b5       0x54 c:/program files/microchip/xc32/v4.00/bin/bin/../../lib/gcc/pic32mx/8.3.1/../../../../pic32mx/lib/fpu64\libpic32.a(default-on-reset.o)
 .comment       0x00000000000000b5       0x54 c:/program files/microchip/xc32/v4.00/bin/bin/../../lib/gcc/pic32mx/8.3.1/../../../../pic32mx/lib/fpu64\libpic32.a(default-on-bootstrap.o)
 .comment       0x00000000000000b5       0x54 c:/program files/microchip/xc32/v4.00/bin/bin/../../lib/gcc/pic32mx/8.3.1/../../../../pic32mx/lib/fpu64\libpic32.a(defaultinterrupt.o)
 .comment       0x00000000000000b5       0x54 c:/program files/microchip/xc32/v4.00/bin/bin/../../lib/gcc/pic32mx/8.3.1/../../../../pic32mx/lib/fpu64\libc-musl.a(__sio_sprintf_dosux.o)
 .comment       0x00000000000000b5       0x54 c:/program files/microchip/xc32/v4.00/bin/bin/../../lib/gcc/pic32mx/8.3.1/../../../../pic32mx/lib/fpu64\libc-musl.a(__fmt_d.o)
 .comment       0x00000000000000b5       0x54 c:/program files/microchip/xc32/v4.00/bin/bin/../../lib/gcc/pic32mx/8.3.1/../../../../pic32mx/lib/fpu64\libc-musl.a(__fmt_o.o)
 .comment       0x00000000000000b5       0x54 c:/program files/microchip/xc32/v4.00/bin/bin/../../lib/gcc/pic32mx/8.3.1/../../../../pic32mx/lib/fpu64\libc-musl.a(__fmt_s.o)
 .comment       0x00000000000000b5       0x54 c:/program files/microchip/xc32/v4.00/bin/bin/../../lib/gcc/pic32mx/8.3.1/../../../../pic32mx/lib/fpu64\libc-musl.a(__fmt_u.o)
 .comment       0x00000000000000b5       0x54 c:/program files/microchip/xc32/v4.00/bin/bin/../../lib/gcc/pic32mx/8.3.1/../../../../pic32mx/lib/fpu64\libc-musl.a(__fmt_x.o)
 .comment       0x00000000000000b5       0x54 c:/program files/microchip/xc32/v4.00/bin/bin/../../lib/gcc/pic32mx/8.3.1/../../../../pic32mx/lib/fpu64\libc-musl.a(__printf_core.o)
 .comment       0x00000000000000b5       0x54 c:/program files/microchip/xc32/v4.00/bin/bin/../../lib/gcc/pic32mx/8.3.1/../../../../pic32mx/lib/fpu64\libc-musl.a(stdin.o)
 .comment       0x00000000000000b5       0x54 c:/program files/microchip/xc32/v4.00/bin/bin/../../lib/gcc/pic32mx/8.3.1/../../../../pic32mx/lib/fpu64\libc-musl.a(stdout.o)
 .comment       0x00000000000000b5       0x54 c:/program files/microchip/xc32/v4.00/bin/bin/../../lib/gcc/pic32mx/8.3.1/../../../../pic32mx/lib/fpu64\libc-musl.a(setbuf.o)
 .comment       0x00000000000000b5       0x54 c:/program files/microchip/xc32/v4.00/bin/bin/../../lib/gcc/pic32mx/8.3.1/../../../../pic32mx/lib/fpu64\libc-musl.a(atoi.o)
 .comment       0x00000000000000b5       0x54 c:/program files/microchip/xc32/v4.00/bin/bin/../../lib/gcc/pic32mx/8.3.1/../../../../pic32mx/lib/fpu64\libc-musl.a(memmove.o)
 .comment       0x00000000000000b5       0x54 c:/program files/microchip/xc32/v4.00/bin/bin/../../lib/gcc/pic32mx/8.3.1/../../../../pic32mx/lib/fpu64\libc-musl.a(strncmp.o)
 .comment       0x00000000000000b5       0x54 c:/program files/microchip/xc32/v4.00/bin/bin/../../lib/gcc/pic32mx/8.3.1/../../../../pic32mx/lib/fpu64\libc-musl.a(strncpy.o)
 .comment       0x00000000000000b5       0x54 c:/program files/microchip/xc32/v4.00/bin/bin/../../lib/gcc/pic32mx/8.3.1/../../../../pic32mx/lib/fpu64\libc-musl.a(tolower.o)
 .comment       0x00000000000000b5       0x54 c:/program files/microchip/xc32/v4.00/bin/bin/../../lib/gcc/pic32mx/8.3.1/../../../../pic32mx/lib/fpu64\libc-musl.a(toupper.o)
 .comment       0x00000000000000b5       0x54 c:/program files/microchip/xc32/v4.00/bin/bin/../../lib/gcc/pic32mx/8.3.1/../../../../pic32mx/lib/fpu64\libc-musl.a(__int_vsprintf.o)
 .comment       0x00000000000000b5       0x54 c:/program files/microchip/xc32/v4.00/bin/bin/../../lib/gcc/pic32mx/8.3.1/../../../../pic32mx/lib/fpu64\libc-musl.a(__fopen.o)
 .comment       0x00000000000000b5       0x54 c:/program files/microchip/xc32/v4.00/bin/bin/../../lib/gcc/pic32mx/8.3.1/../../../../pic32mx/lib/fpu64\libc-musl.a(__io_init_needed.o)
 .comment       0x00000000000000b5       0x54 c:/program files/microchip/xc32/v4.00/bin/bin/../../lib/gcc/pic32mx/8.3.1/../../../../pic32mx/lib/fpu64\libc-musl.a(__io_rw_needed.o)
 .comment       0x00000000000000b5       0x54 c:/program files/microchip/xc32/v4.00/bin/bin/../../lib/gcc/pic32mx/8.3.1/../../../../pic32mx/lib/fpu64\libc-musl.a(__out.o)
 .comment       0x00000000000000b5       0x54 c:/program files/microchip/xc32/v4.00/bin/bin/../../lib/gcc/pic32mx/8.3.1/../../../../pic32mx/lib/fpu64\libc-musl.a(__pop_float.o)
 .comment       0x00000000000000b5       0x54 c:/program files/microchip/xc32/v4.00/bin/bin/../../lib/gcc/pic32mx/8.3.1/../../../../pic32mx/lib/fpu64\libc-musl.a(__pop_int.o)
 .comment       0x00000000000000b5       0x54 c:/program files/microchip/xc32/v4.00/bin/bin/../../lib/gcc/pic32mx/8.3.1/../../../../pic32mx/lib/fpu64\libc-musl.a(__pop_ptr.o)
 .comment       0x00000000000000b5       0x54 c:/program files/microchip/xc32/v4.00/bin/bin/../../lib/gcc/pic32mx/8.3.1/../../../../pic32mx/lib/fpu64\libc-musl.a(__stdio_close.o)
 .comment       0x00000000000000b5       0x54 c:/program files/microchip/xc32/v4.00/bin/bin/../../lib/gcc/pic32mx/8.3.1/../../../../pic32mx/lib/fpu64\libc-musl.a(__stdio_read.o)
 .comment       0x00000000000000b5       0x54 c:/program files/microchip/xc32/v4.00/bin/bin/../../lib/gcc/pic32mx/8.3.1/../../../../pic32mx/lib/fpu64\libc-musl.a(__towrite_rw.o)
 .comment       0x00000000000000b5       0x54 c:/program files/microchip/xc32/v4.00/bin/bin/../../lib/gcc/pic32mx/8.3.1/../../../../pic32mx/lib/fpu64\libc-musl.a(setvbuf.o)
 .comment       0x00000000000000b5       0x54 c:/program files/microchip/xc32/v4.00/bin/bin/../../lib/gcc/pic32mx/8.3.1/../../../../pic32mx/lib/fpu64\libc-musl.a(stpncpy.o)
 .comment       0x00000000000000b5       0x54 c:/program files/microchip/xc32/v4.00/bin/bin/../../lib/gcc/pic32mx/8.3.1/../../../../pic32mx/lib/fpu64\libc-musl.a(readv.o)
 .comment       0x00000000000000b5       0x54 c:/program files/microchip/xc32/v4.00/bin/bin/../../lib/gcc/pic32mx/8.3.1/../../../../pic32mx/lib/fpu64\libc-musl.a(malloc.o)
 .comment       0x00000000000000b5       0x54 c:/program files/microchip/xc32/v4.00/bin/bin/../../lib/gcc/pic32mx/8.3.1/../../../../pic32mx/lib/fpu64\libc-musl.a(expand_heap.o)
 .comment       0x00000000000000b5       0x54 c:/program files/microchip/xc32/v4.00/bin/bin/../../lib/gcc/pic32mx/8.3.1/../../../../pic32mx/lib/fpu64\libc-musl.a(__int_vsnprintf.o)
 .comment       0x00000000000000b5       0x54 c:/program files/microchip/xc32/v4.00/bin/bin/../../lib/gcc/pic32mx/8.3.1/../../../../pic32mx/lib/fpu64\libc-musl.a(__fopen_rw.o)
 .comment       0x00000000000000b5       0x54 c:/program files/microchip/xc32/v4.00/bin/bin/../../lib/gcc/pic32mx/8.3.1/../../../../pic32mx/lib/fpu64\libc-musl.a(__ftello_rw.o)
 .comment       0x00000000000000b5       0x54 c:/program files/microchip/xc32/v4.00/bin/bin/../../lib/gcc/pic32mx/8.3.1/../../../../pic32mx/lib/fpu64\libc-musl.a(__init_stdio.o)
 .comment       0x00000000000000b5       0x54 c:/program files/microchip/xc32/v4.00/bin/bin/../../lib/gcc/pic32mx/8.3.1/../../../../pic32mx/lib/fpu64\libc-musl.a(__io_buf_needed.o)
 .comment       0x00000000000000b5       0x54 c:/program files/microchip/xc32/v4.00/bin/bin/../../lib/gcc/pic32mx/8.3.1/../../../../pic32mx/lib/fpu64\libc-musl.a(__io_file_needed.o)
 .comment       0x00000000000000b5       0x54 c:/program files/microchip/xc32/v4.00/bin/bin/../../lib/gcc/pic32mx/8.3.1/../../../../pic32mx/lib/fpu64\libc-musl.a(__io_std_needed.o)
 .comment       0x00000000000000b5       0x54 c:/program files/microchip/xc32/v4.00/bin/bin/../../lib/gcc/pic32mx/8.3.1/../../../../pic32mx/lib/fpu64\libc-musl.a(__putc.o)
 .comment       0x00000000000000b5       0x54 c:/program files/microchip/xc32/v4.00/bin/bin/../../lib/gcc/pic32mx/8.3.1/../../../../pic32mx/lib/fpu64\libc-musl.a(__stderr.o)
 .comment       0x00000000000000b5       0x54 c:/program files/microchip/xc32/v4.00/bin/bin/../../lib/gcc/pic32mx/8.3.1/../../../../pic32mx/lib/fpu64\libc-musl.a(__stdio_exit.o)
 .comment       0x00000000000000b5       0x54 c:/program files/microchip/xc32/v4.00/bin/bin/../../lib/gcc/pic32mx/8.3.1/../../../../pic32mx/lib/fpu64\libc-musl.a(__stdio_write.o)
 .comment       0x00000000000000b5       0x54 c:/program files/microchip/xc32/v4.00/bin/bin/../../lib/gcc/pic32mx/8.3.1/../../../../pic32mx/lib/fpu64\libc-musl.a(__stdout.o)
 .comment       0x00000000000000b5       0x54 c:/program files/microchip/xc32/v4.00/bin/bin/../../lib/gcc/pic32mx/8.3.1/../../../../pic32mx/lib/fpu64\libc-musl.a(__towrite.o)
 .comment       0x00000000000000b5       0x54 c:/program files/microchip/xc32/v4.00/bin/bin/../../lib/gcc/pic32mx/8.3.1/../../../../pic32mx/lib/fpu64\libc-musl.a(putc.o)
 .comment       0x00000000000000b5       0x54 c:/program files/microchip/xc32/v4.00/bin/bin/../../lib/gcc/pic32mx/8.3.1/../../../../pic32mx/lib/fpu64\libc-musl.a(read.o)
 .comment       0x00000000000000b5       0x54 c:/program files/microchip/xc32/v4.00/bin/bin/../../lib/gcc/pic32mx/8.3.1/../../../../pic32mx/lib/fpu64\libc-musl.a(writev.o)
 .comment       0x00000000000000b5       0x54 c:/program files/microchip/xc32/v4.00/bin/bin/../../lib/gcc/pic32mx/8.3.1/../../../../pic32mx/lib/fpu64\libc-musl.a(libc.o)
 .comment       0x00000000000000b5       0x54 c:/program files/microchip/xc32/v4.00/bin/bin/../../lib/gcc/pic32mx/8.3.1/../../../../pic32mx/lib/fpu64\libc-musl.a(syscall_ret.o)
 .comment       0x00000000000000b5       0x54 c:/program files/microchip/xc32/v4.00/bin/bin/../../lib/gcc/pic32mx/8.3.1/../../../../pic32mx/lib/fpu64\libc-musl.a(__int_vfprintf.o)
 .comment       0x00000000000000b5       0x54 c:/program files/microchip/xc32/v4.00/bin/bin/../../lib/gcc/pic32mx/8.3.1/../../../../pic32mx/lib/fpu64\libc-musl.a(__overflow.o)
 .comment       0x00000000000000b5       0x54 c:/program files/microchip/xc32/v4.00/bin/bin/../../lib/gcc/pic32mx/8.3.1/../../../../pic32mx/lib/fpu64\libc-musl.a(__fclose.o)
 .comment       0x00000000000000b5       0x54 c:/program files/microchip/xc32/v4.00/bin/bin/../../lib/gcc/pic32mx/8.3.1/../../../../pic32mx/lib/fpu64\libc-musl.a(__fseeko.o)
 .comment       0x00000000000000b5       0x54 c:/program files/microchip/xc32/v4.00/bin/bin/../../lib/gcc/pic32mx/8.3.1/../../../../pic32mx/lib/fpu64\libc-musl.a(__ftello.o)
 .comment       0x00000000000000b5       0x54 c:/program files/microchip/xc32/v4.00/bin/bin/../../lib/gcc/pic32mx/8.3.1/../../../../pic32mx/lib/fpu64\libc-musl.a(__fwrite.o)
 .comment       0x00000000000000b5       0x4b c:/program files/microchip/xc32/v4.00/bin/bin/../../lib/gcc/pic32mx/8.3.1/../../../../pic32mx/lib/fpu64\libpic32.a(sbrk.o)
                                         0x9f (size before relaxing)
 .comment       0x0000000000000100       0x54 c:/program files/microchip/xc32/v4.00/bin/bin/../../lib/gcc/pic32mx/8.3.1/../../../../pic32mx/lib/fpu64\libpic32.a(write.o)
 .comment       0x0000000000000100       0x54 c:/program files/microchip/xc32/v4.00/bin/bin/../../lib/gcc/pic32mx/8.3.1/../../../../pic32mx/lib/fpu64\libpic32.a(lseek.o)
 .comment       0x0000000000000100       0x54 c:/program files/microchip/xc32/v4.00/bin/bin/../../lib/gcc/pic32mx/8.3.1/../../../../pic32mx/lib/fpu64\libpic32.a(close.o)
 .comment       0x0000000000000100       0x54 c:/program files/microchip/xc32/v4.00/bin/bin/../../lib/gcc/pic32mx/8.3.1/../../../../pic32mx/lib/fpu64\libpic32.a(errno.o)
 .comment       0x0000000000000100       0x54 c:/program files/microchip/xc32/v4.00/bin/bin/../../lib/gcc/pic32mx/8.3.1/fpu64\libgcc.a(_lshrdi3.o)
 .comment       0x0000000000000100       0x54 c:/program files/microchip/xc32/v4.00/bin/bin/../../lib/gcc/pic32mx/8.3.1/fpu64\libgcc.a(_ashldi3.o)
 .comment       0x0000000000000100       0x54 c:/program files/microchip/xc32/v4.00/bin/bin/../../lib/gcc/pic32mx/8.3.1/fpu64\libgcc.a(_umoddi3.o)

.debug
 *.elf(.debug)
 *(.debug)

.line
 *.elf(.line)
 *(.line)

.debug_srcinfo
 *.elf(.debug_srcinfo)
 *(.debug_srcinfo)

.debug_sfnames
 *.elf(.debug_sfnames)
 *(.debug_sfnames)

.debug_aranges  0x0000000000000000     0x2308
 *.elf(.debug_aranges)
 *(.debug_aranges)
 .debug_aranges
                0x0000000000000000       0x98 build/pic32mz/production/_ext/757013429/drv_sdspi.o
 .debug_aranges
                0x0000000000000098       0x78 build/pic32mz/production/_ext/757013429/drv_sdspi_driver_interface.o
 .debug_aranges
                0x0000000000000110       0x20 build/pic32mz/production/_ext/757013429/drv_sdspi_file_system.o
 .debug_aranges
                0x0000000000000130       0x98 build/pic32mz/production/_ext/2120450970/drv_spi.o
 .debug_aranges
                0x00000000000001c8       0x70 build/pic32mz/production/_ext/1783409726/drv_usbhs.o
 .debug_aranges
                0x0000000000000238      0x100 build/pic32mz/production/_ext/1783409726/drv_usbhs_device.o
 .debug_aranges
                0x0000000000000338       0xc0 build/pic32mz/production/_ext/1640642171/plib_cache.o
 .debug_aranges
                0x00000000000003f8       0x20 build/pic32mz/production/_ext/1640642171/plib_cache_pic32mz.o
 .debug_aranges
                0x0000000000000418       0x20 build/pic32mz/production/_ext/10646107/plib_clk.o
 .debug_aranges
                0x0000000000000438       0x68 build/pic32mz/production/_ext/809018751/plib_coretimer.o
 .debug_aranges
                0x00000000000004a0       0x68 build/pic32mz/production/_ext/330098546/plib_evic.o
 .debug_aranges
                0x0000000000000508       0x90 build/pic32mz/production/_ext/330152374/plib_gpio.o
 .debug_aranges
                0x0000000000000598       0x68 build/pic32mz/production/_ext/249272802/plib_i2c2_master.o
 .debug_aranges
                0x0000000000000600       0x68 build/pic32mz/production/_ext/249272802/plib_i2c4_master.o
 .debug_aranges
                0x0000000000000668       0x68 build/pic32mz/production/_ext/867254719/plib_spi4_master.o
 .debug_aranges
                0x00000000000006d0       0x68 build/pic32mz/production/_ext/867254719/plib_spi2_master.o
 .debug_aranges
                0x0000000000000738       0x68 build/pic32mz/production/_ext/867254719/plib_spi1_master.o
 .debug_aranges
                0x00000000000007a0       0x70 build/pic32mz/production/_ext/10662482/plib_tmr2.o
 .debug_aranges
                0x0000000000000810       0x80 build/pic32mz/production/_ext/330555317/plib_uart5.o
 .debug_aranges
                0x0000000000000890       0xa8 build/pic32mz/production/_ext/330555317/plib_uart6.o
 .debug_aranges
                0x0000000000000938       0xa8 build/pic32mz/production/_ext/330555317/plib_uart3.o
 .debug_aranges
                0x00000000000009e0       0xa8 build/pic32mz/production/_ext/330555317/plib_uart4.o
 .debug_aranges
                0x0000000000000a88       0xa8 build/pic32mz/production/_ext/330555317/plib_uart1.o
 .debug_aranges
                0x0000000000000b30       0xa8 build/pic32mz/production/_ext/330555317/plib_uart2.o
 .debug_aranges
                0x0000000000000bd8       0x28 build/pic32mz/production/_ext/1991269565/xc32_monitor.o
 .debug_aranges
                0x0000000000000c00       0x80 build/pic32mz/production/_ext/1519118610/sys_cache.o
 .debug_aranges
                0x0000000000000c80       0x30 build/pic32mz/production/_ext/1373644956/sys_dma.o
 .debug_aranges
                0x0000000000000cb0      0x220 build/pic32mz/production/_ext/1192657380/ff.o
 .debug_aranges
                0x0000000000000ed0       0x30 build/pic32mz/production/_ext/1192657380/ffunicode.o
 .debug_aranges
                0x0000000000000f00       0x60 build/pic32mz/production/_ext/727274963/diskio.o
 .debug_aranges
                0x0000000000000f60      0x170 build/pic32mz/production/_ext/252936118/sys_fs.o
 .debug_aranges
                0x00000000000010d0       0x98 build/pic32mz/production/_ext/252936118/sys_fs_media_manager.o
 .debug_aranges
                0x0000000000001168      0x130 build/pic32mz/production/_ext/252936118/sys_fs_fat_interface.o
 .debug_aranges
                0x0000000000001298       0x40 build/pic32mz/production/_ext/1832149040/sys_int.o
 .debug_aranges
                0x00000000000012d8      0x130 build/pic32mz/production/_ext/1636986698/sys_time.o
 .debug_aranges
                0x0000000000001408      0x1a0 build/pic32mz/production/_ext/202551283/usb_device.o
 .debug_aranges
                0x00000000000015a8       0x88 build/pic32mz/production/_ext/202551283/usb_device_cdc.o
 .debug_aranges
                0x0000000000001630       0x20 build/pic32mz/production/_ext/202551283/usb_device_cdc_acm.o
 .debug_aranges
                0x0000000000001650       0x18 build/pic32mz/production/_ext/953055421/usb_device_init_data.o
 .debug_aranges
                0x0000000000001668       0x20 build/pic32mz/production/_ext/953055421/tasks.o
 .debug_aranges
                0x0000000000001688       0x20 build/pic32mz/production/_ext/953055421/initialization.o
 .debug_aranges
                0x00000000000016a8      0x108 build/pic32mz/production/_ext/953055421/interrupts.o
 .debug_aranges
                0x00000000000017b0       0x38 build/pic32mz/production/_ext/953055421/exceptions.o
 .debug_aranges
                0x00000000000017e8       0x38 build/pic32mz/production/_ext/1360937237/app.o
 .debug_aranges
                0x0000000000001820       0x20 build/pic32mz/production/_ext/1360937237/main.o
 .debug_aranges
                0x0000000000001840       0x70 build/pic32mz/production/_ext/1360937237/communication.o
 .debug_aranges
                0x00000000000018b0       0x60 build/pic32mz/production/_ext/1360937237/mdot.o
 .debug_aranges
                0x0000000000001910       0x38 build/pic32mz/production/_ext/1360937237/stringbuffer.o
 .debug_aranges
                0x0000000000001948       0x20 c:/program files/microchip/xc32/v4.00/bin/bin/../../lib/gcc/pic32mx/8.3.1/fpu64\libgcc.a(_udivdi3.o)
 .debug_aranges
                0x0000000000001968       0x20 c:/program files/microchip/xc32/v4.00/bin/bin/../../lib/gcc/pic32mx/8.3.1/../../../../pic32mx/lib/fpu64\libpic32.a(default-on-reset.o)
 .debug_aranges
                0x0000000000001988       0x20 c:/program files/microchip/xc32/v4.00/bin/bin/../../lib/gcc/pic32mx/8.3.1/../../../../pic32mx/lib/fpu64\libpic32.a(default-on-bootstrap.o)
 .debug_aranges
                0x00000000000019a8       0x20 c:/program files/microchip/xc32/v4.00/bin/bin/../../lib/gcc/pic32mx/8.3.1/../../../../pic32mx/lib/fpu64\libpic32.a(defaultinterrupt.o)
 .debug_aranges
                0x00000000000019c8       0x28 c:/program files/microchip/xc32/v4.00/bin/bin/../../lib/gcc/pic32mx/8.3.1/../../../../pic32mx/lib/fpu64\libc-musl.a(__sio_sprintf_dosux.o)
 .debug_aranges
                0x00000000000019f0       0x20 c:/program files/microchip/xc32/v4.00/bin/bin/../../lib/gcc/pic32mx/8.3.1/../../../../pic32mx/lib/fpu64\libc-musl.a(__fmt_d.o)
 .debug_aranges
                0x0000000000001a10       0x20 c:/program files/microchip/xc32/v4.00/bin/bin/../../lib/gcc/pic32mx/8.3.1/../../../../pic32mx/lib/fpu64\libc-musl.a(__fmt_o.o)
 .debug_aranges
                0x0000000000001a30       0x20 c:/program files/microchip/xc32/v4.00/bin/bin/../../lib/gcc/pic32mx/8.3.1/../../../../pic32mx/lib/fpu64\libc-musl.a(__fmt_s.o)
 .debug_aranges
                0x0000000000001a50       0x28 c:/program files/microchip/xc32/v4.00/bin/bin/../../lib/gcc/pic32mx/8.3.1/../../../../pic32mx/lib/fpu64\libc-musl.a(__fmt_u.o)
 .debug_aranges
                0x0000000000001a78       0x20 c:/program files/microchip/xc32/v4.00/bin/bin/../../lib/gcc/pic32mx/8.3.1/../../../../pic32mx/lib/fpu64\libc-musl.a(__fmt_x.o)
 .debug_aranges
                0x0000000000001a98       0x50 c:/program files/microchip/xc32/v4.00/bin/bin/../../lib/gcc/pic32mx/8.3.1/../../../../pic32mx/lib/fpu64\libc-musl.a(__printf_core.o)
 .debug_aranges
                0x0000000000001ae8       0x28 c:/program files/microchip/xc32/v4.00/bin/bin/../../lib/gcc/pic32mx/8.3.1/../../../../pic32mx/lib/fpu64\libc-musl.a(stdin.o)
 .debug_aranges
                0x0000000000001b10       0x28 c:/program files/microchip/xc32/v4.00/bin/bin/../../lib/gcc/pic32mx/8.3.1/../../../../pic32mx/lib/fpu64\libc-musl.a(stdout.o)
 .debug_aranges
                0x0000000000001b38       0x20 c:/program files/microchip/xc32/v4.00/bin/bin/../../lib/gcc/pic32mx/8.3.1/../../../../pic32mx/lib/fpu64\libc-musl.a(setbuf.o)
 .debug_aranges
                0x0000000000001b58       0x20 c:/program files/microchip/xc32/v4.00/bin/bin/../../lib/gcc/pic32mx/8.3.1/../../../../pic32mx/lib/fpu64\libc-musl.a(atoi.o)
 .debug_aranges
                0x0000000000001b78       0x20 c:/program files/microchip/xc32/v4.00/bin/bin/../../lib/gcc/pic32mx/8.3.1/../../../../pic32mx/lib/fpu64\libc-musl.a(memmove.o)
 .debug_aranges
                0x0000000000001b98       0x20 c:/program files/microchip/xc32/v4.00/bin/bin/../../lib/gcc/pic32mx/8.3.1/../../../../pic32mx/lib/fpu64\libc-musl.a(strncmp.o)
 .debug_aranges
                0x0000000000001bb8       0x20 c:/program files/microchip/xc32/v4.00/bin/bin/../../lib/gcc/pic32mx/8.3.1/../../../../pic32mx/lib/fpu64\libc-musl.a(strncpy.o)
 .debug_aranges
                0x0000000000001bd8       0x28 c:/program files/microchip/xc32/v4.00/bin/bin/../../lib/gcc/pic32mx/8.3.1/../../../../pic32mx/lib/fpu64\libc-musl.a(tolower.o)
 .debug_aranges
                0x0000000000001c00       0x28 c:/program files/microchip/xc32/v4.00/bin/bin/../../lib/gcc/pic32mx/8.3.1/../../../../pic32mx/lib/fpu64\libc-musl.a(toupper.o)
 .debug_aranges
                0x0000000000001c28       0x20 c:/program files/microchip/xc32/v4.00/bin/bin/../../lib/gcc/pic32mx/8.3.1/../../../../pic32mx/lib/fpu64\libc-musl.a(__int_vsprintf.o)
 .debug_aranges
                0x0000000000001c48       0x30 c:/program files/microchip/xc32/v4.00/bin/bin/../../lib/gcc/pic32mx/8.3.1/../../../../pic32mx/lib/fpu64\libc-musl.a(__fopen.o)
 .debug_aranges
                0x0000000000001c78       0x28 c:/program files/microchip/xc32/v4.00/bin/bin/../../lib/gcc/pic32mx/8.3.1/../../../../pic32mx/lib/fpu64\libc-musl.a(__io_init_needed.o)
 .debug_aranges
                0x0000000000001ca0       0x20 c:/program files/microchip/xc32/v4.00/bin/bin/../../lib/gcc/pic32mx/8.3.1/../../../../pic32mx/lib/fpu64\libc-musl.a(__io_rw_needed.o)
 .debug_aranges
                0x0000000000001cc0       0x28 c:/program files/microchip/xc32/v4.00/bin/bin/../../lib/gcc/pic32mx/8.3.1/../../../../pic32mx/lib/fpu64\libc-musl.a(__out.o)
 .debug_aranges
                0x0000000000001ce8       0x20 c:/program files/microchip/xc32/v4.00/bin/bin/../../lib/gcc/pic32mx/8.3.1/../../../../pic32mx/lib/fpu64\libc-musl.a(__pop_float.o)
 .debug_aranges
                0x0000000000001d08       0x20 c:/program files/microchip/xc32/v4.00/bin/bin/../../lib/gcc/pic32mx/8.3.1/../../../../pic32mx/lib/fpu64\libc-musl.a(__pop_int.o)
 .debug_aranges
                0x0000000000001d28       0x20 c:/program files/microchip/xc32/v4.00/bin/bin/../../lib/gcc/pic32mx/8.3.1/../../../../pic32mx/lib/fpu64\libc-musl.a(__pop_ptr.o)
 .debug_aranges
                0x0000000000001d48       0x28 c:/program files/microchip/xc32/v4.00/bin/bin/../../lib/gcc/pic32mx/8.3.1/../../../../pic32mx/lib/fpu64\libc-musl.a(__stdio_close.o)
 .debug_aranges
                0x0000000000001d70       0x20 c:/program files/microchip/xc32/v4.00/bin/bin/../../lib/gcc/pic32mx/8.3.1/../../../../pic32mx/lib/fpu64\libc-musl.a(__stdio_read.o)
 .debug_aranges
                0x0000000000001d90       0x20 c:/program files/microchip/xc32/v4.00/bin/bin/../../lib/gcc/pic32mx/8.3.1/../../../../pic32mx/lib/fpu64\libc-musl.a(__towrite_rw.o)
 .debug_aranges
                0x0000000000001db0       0x28 c:/program files/microchip/xc32/v4.00/bin/bin/../../lib/gcc/pic32mx/8.3.1/../../../../pic32mx/lib/fpu64\libc-musl.a(setvbuf.o)
 .debug_aranges
                0x0000000000001dd8       0x20 c:/program files/microchip/xc32/v4.00/bin/bin/../../lib/gcc/pic32mx/8.3.1/../../../../pic32mx/lib/fpu64\libc-musl.a(stpncpy.o)
 .debug_aranges
                0x0000000000001df8       0x20 c:/program files/microchip/xc32/v4.00/bin/bin/../../lib/gcc/pic32mx/8.3.1/../../../../pic32mx/lib/fpu64\libc-musl.a(readv.o)
 .debug_aranges
                0x0000000000001e18       0x70 c:/program files/microchip/xc32/v4.00/bin/bin/../../lib/gcc/pic32mx/8.3.1/../../../../pic32mx/lib/fpu64\libc-musl.a(malloc.o)
 .debug_aranges
                0x0000000000001e88       0x20 c:/program files/microchip/xc32/v4.00/bin/bin/../../lib/gcc/pic32mx/8.3.1/../../../../pic32mx/lib/fpu64\libc-musl.a(expand_heap.o)
 .debug_aranges
                0x0000000000001ea8       0x20 c:/program files/microchip/xc32/v4.00/bin/bin/../../lib/gcc/pic32mx/8.3.1/../../../../pic32mx/lib/fpu64\libc-musl.a(__int_vsnprintf.o)
 .debug_aranges
                0x0000000000001ec8       0x20 c:/program files/microchip/xc32/v4.00/bin/bin/../../lib/gcc/pic32mx/8.3.1/../../../../pic32mx/lib/fpu64\libc-musl.a(__fopen_rw.o)
 .debug_aranges
                0x0000000000001ee8       0x20 c:/program files/microchip/xc32/v4.00/bin/bin/../../lib/gcc/pic32mx/8.3.1/../../../../pic32mx/lib/fpu64\libc-musl.a(__ftello_rw.o)
 .debug_aranges
                0x0000000000001f08       0x28 c:/program files/microchip/xc32/v4.00/bin/bin/../../lib/gcc/pic32mx/8.3.1/../../../../pic32mx/lib/fpu64\libc-musl.a(__init_stdio.o)
 .debug_aranges
                0x0000000000001f30       0x20 c:/program files/microchip/xc32/v4.00/bin/bin/../../lib/gcc/pic32mx/8.3.1/../../../../pic32mx/lib/fpu64\libc-musl.a(__io_buf_needed.o)
 .debug_aranges
                0x0000000000001f50       0x20 c:/program files/microchip/xc32/v4.00/bin/bin/../../lib/gcc/pic32mx/8.3.1/../../../../pic32mx/lib/fpu64\libc-musl.a(__io_file_needed.o)
 .debug_aranges
                0x0000000000001f70       0x20 c:/program files/microchip/xc32/v4.00/bin/bin/../../lib/gcc/pic32mx/8.3.1/../../../../pic32mx/lib/fpu64\libc-musl.a(__io_std_needed.o)
 .debug_aranges
                0x0000000000001f90       0x20 c:/program files/microchip/xc32/v4.00/bin/bin/../../lib/gcc/pic32mx/8.3.1/../../../../pic32mx/lib/fpu64\libc-musl.a(__putc.o)
 .debug_aranges
                0x0000000000001fb0       0x30 c:/program files/microchip/xc32/v4.00/bin/bin/../../lib/gcc/pic32mx/8.3.1/../../../../pic32mx/lib/fpu64\libc-musl.a(__stderr.o)
 .debug_aranges
                0x0000000000001fe0       0x30 c:/program files/microchip/xc32/v4.00/bin/bin/../../lib/gcc/pic32mx/8.3.1/../../../../pic32mx/lib/fpu64\libc-musl.a(__stdio_exit.o)
 .debug_aranges
                0x0000000000002010       0x28 c:/program files/microchip/xc32/v4.00/bin/bin/../../lib/gcc/pic32mx/8.3.1/../../../../pic32mx/lib/fpu64\libc-musl.a(__stdio_write.o)
 .debug_aranges
                0x0000000000002038       0x30 c:/program files/microchip/xc32/v4.00/bin/bin/../../lib/gcc/pic32mx/8.3.1/../../../../pic32mx/lib/fpu64\libc-musl.a(__stdout.o)
 .debug_aranges
                0x0000000000002068       0x28 c:/program files/microchip/xc32/v4.00/bin/bin/../../lib/gcc/pic32mx/8.3.1/../../../../pic32mx/lib/fpu64\libc-musl.a(__towrite.o)
 .debug_aranges
                0x0000000000002090       0x30 c:/program files/microchip/xc32/v4.00/bin/bin/../../lib/gcc/pic32mx/8.3.1/../../../../pic32mx/lib/fpu64\libc-musl.a(putc.o)
 .debug_aranges
                0x00000000000020c0       0x20 c:/program files/microchip/xc32/v4.00/bin/bin/../../lib/gcc/pic32mx/8.3.1/../../../../pic32mx/lib/fpu64\libc-musl.a(read.o)
 .debug_aranges
                0x00000000000020e0       0x20 c:/program files/microchip/xc32/v4.00/bin/bin/../../lib/gcc/pic32mx/8.3.1/../../../../pic32mx/lib/fpu64\libc-musl.a(writev.o)
 .debug_aranges
                0x0000000000002100       0x18 c:/program files/microchip/xc32/v4.00/bin/bin/../../lib/gcc/pic32mx/8.3.1/../../../../pic32mx/lib/fpu64\libc-musl.a(libc.o)
 .debug_aranges
                0x0000000000002118       0x20 c:/program files/microchip/xc32/v4.00/bin/bin/../../lib/gcc/pic32mx/8.3.1/../../../../pic32mx/lib/fpu64\libc-musl.a(syscall_ret.o)
 .debug_aranges
                0x0000000000002138       0x20 c:/program files/microchip/xc32/v4.00/bin/bin/../../lib/gcc/pic32mx/8.3.1/../../../../pic32mx/lib/fpu64\libc-musl.a(__int_vfprintf.o)
 .debug_aranges
                0x0000000000002158       0x20 c:/program files/microchip/xc32/v4.00/bin/bin/../../lib/gcc/pic32mx/8.3.1/../../../../pic32mx/lib/fpu64\libc-musl.a(__overflow.o)
 .debug_aranges
                0x0000000000002178       0x20 c:/program files/microchip/xc32/v4.00/bin/bin/../../lib/gcc/pic32mx/8.3.1/../../../../pic32mx/lib/fpu64\libc-musl.a(__fclose.o)
 .debug_aranges
                0x0000000000002198       0x20 c:/program files/microchip/xc32/v4.00/bin/bin/../../lib/gcc/pic32mx/8.3.1/../../../../pic32mx/lib/fpu64\libc-musl.a(__fseeko.o)
 .debug_aranges
                0x00000000000021b8       0x28 c:/program files/microchip/xc32/v4.00/bin/bin/../../lib/gcc/pic32mx/8.3.1/../../../../pic32mx/lib/fpu64\libc-musl.a(__ftello.o)
 .debug_aranges
                0x00000000000021e0       0x28 c:/program files/microchip/xc32/v4.00/bin/bin/../../lib/gcc/pic32mx/8.3.1/../../../../pic32mx/lib/fpu64\libc-musl.a(__fwrite.o)
 .debug_aranges
                0x0000000000002208       0x40 c:/program files/microchip/xc32/v4.00/bin/bin/../../lib/gcc/pic32mx/8.3.1/../../../../pic32mx/lib/fpu64\libpic32.a(sbrk.o)
 .debug_aranges
                0x0000000000002248       0x20 c:/program files/microchip/xc32/v4.00/bin/bin/../../lib/gcc/pic32mx/8.3.1/../../../../pic32mx/lib/fpu64\libpic32.a(write.o)
 .debug_aranges
                0x0000000000002268       0x20 c:/program files/microchip/xc32/v4.00/bin/bin/../../lib/gcc/pic32mx/8.3.1/../../../../pic32mx/lib/fpu64\libpic32.a(lseek.o)
 .debug_aranges
                0x0000000000002288       0x20 c:/program files/microchip/xc32/v4.00/bin/bin/../../lib/gcc/pic32mx/8.3.1/../../../../pic32mx/lib/fpu64\libpic32.a(close.o)
 .debug_aranges
                0x00000000000022a8       0x20 c:/program files/microchip/xc32/v4.00/bin/bin/../../lib/gcc/pic32mx/8.3.1/fpu64\libgcc.a(_lshrdi3.o)
 .debug_aranges
                0x00000000000022c8       0x20 c:/program files/microchip/xc32/v4.00/bin/bin/../../lib/gcc/pic32mx/8.3.1/fpu64\libgcc.a(_ashldi3.o)
 .debug_aranges
                0x00000000000022e8       0x20 c:/program files/microchip/xc32/v4.00/bin/bin/../../lib/gcc/pic32mx/8.3.1/fpu64\libgcc.a(_umoddi3.o)

.debug_pubnames
 *.elf(.debug_pubnames)
 *(.debug_pubnames)

.debug_info     0x0000000000000000   0xc5f4f0
 *.elf(.debug_info .gnu.linkonce.wi.*)
 *(.debug_info .gnu.linkonce.wi.*)
 .debug_info    0x0000000000000000    0x47b82 build/pic32mz/production/_ext/757013429/drv_sdspi.o
 .debug_info    0x0000000000047b82    0x46110 build/pic32mz/production/_ext/757013429/drv_sdspi_driver_interface.o
 .debug_info    0x000000000008dc92    0x44b14 build/pic32mz/production/_ext/757013429/drv_sdspi_file_system.o
 .debug_info    0x00000000000d27a6    0x46f73 build/pic32mz/production/_ext/2120450970/drv_spi.o
 .debug_info    0x0000000000119719    0x48fef build/pic32mz/production/_ext/1783409726/drv_usbhs.o
 .debug_info    0x0000000000162708    0x4e122 build/pic32mz/production/_ext/1783409726/drv_usbhs_device.o
 .debug_info    0x00000000001b082a    0x44c30 build/pic32mz/production/_ext/1640642171/plib_cache.o
 .debug_info    0x00000000001f545a       0x26 build/pic32mz/production/_ext/1640642171/plib_cache_pic32mz.o
 .debug_info    0x00000000001f5480    0x44647 build/pic32mz/production/_ext/10646107/plib_clk.o
 .debug_info    0x0000000000239ac7    0x44863 build/pic32mz/production/_ext/809018751/plib_coretimer.o
 .debug_info    0x000000000027e32a    0x44d51 build/pic32mz/production/_ext/330098546/plib_evic.o
 .debug_info    0x00000000002c307b    0x44e9e build/pic32mz/production/_ext/330152374/plib_gpio.o
 .debug_info    0x0000000000307f19    0x44ab3 build/pic32mz/production/_ext/249272802/plib_i2c2_master.o
 .debug_info    0x000000000034c9cc    0x44ab3 build/pic32mz/production/_ext/249272802/plib_i2c4_master.o
 .debug_info    0x000000000039147f    0x44b19 build/pic32mz/production/_ext/867254719/plib_spi4_master.o
 .debug_info    0x00000000003d5f98    0x44b19 build/pic32mz/production/_ext/867254719/plib_spi2_master.o
 .debug_info    0x000000000041aab1    0x44b19 build/pic32mz/production/_ext/867254719/plib_spi1_master.o
 .debug_info    0x000000000045f5ca    0x447f3 build/pic32mz/production/_ext/10662482/plib_tmr2.o
 .debug_info    0x00000000004a3dbd    0x44b20 build/pic32mz/production/_ext/330555317/plib_uart5.o
 .debug_info    0x00000000004e88dd    0x44c59 build/pic32mz/production/_ext/330555317/plib_uart6.o
 .debug_info    0x000000000052d536    0x44c59 build/pic32mz/production/_ext/330555317/plib_uart3.o
 .debug_info    0x000000000057218f    0x44c59 build/pic32mz/production/_ext/330555317/plib_uart4.o
 .debug_info    0x00000000005b6de8    0x44c59 build/pic32mz/production/_ext/330555317/plib_uart1.o
 .debug_info    0x00000000005fba41    0x44c59 build/pic32mz/production/_ext/330555317/plib_uart2.o
 .debug_info    0x000000000064069a    0x46201 build/pic32mz/production/_ext/1991269565/xc32_monitor.o
 .debug_info    0x000000000068689b    0x44959 build/pic32mz/production/_ext/1519118610/sys_cache.o
 .debug_info    0x00000000006cb1f4      0x22d build/pic32mz/production/_ext/1373644956/sys_dma.o
 .debug_info    0x00000000006cb421    0x4a874 build/pic32mz/production/_ext/1192657380/ff.o
 .debug_info    0x0000000000715c95    0x448a2 build/pic32mz/production/_ext/1192657380/ffunicode.o
 .debug_info    0x000000000075a537    0x45061 build/pic32mz/production/_ext/727274963/diskio.o
 .debug_info    0x000000000079f598    0x48186 build/pic32mz/production/_ext/252936118/sys_fs.o
 .debug_info    0x00000000007e771e    0x45d60 build/pic32mz/production/_ext/252936118/sys_fs_media_manager.o
 .debug_info    0x000000000082d47e    0x462b7 build/pic32mz/production/_ext/252936118/sys_fs_fat_interface.o
 .debug_info    0x0000000000873735    0x44d04 build/pic32mz/production/_ext/1832149040/sys_int.o
 .debug_info    0x00000000008b8439    0x46778 build/pic32mz/production/_ext/1636986698/sys_time.o
 .debug_info    0x00000000008febb1    0x483f7 build/pic32mz/production/_ext/202551283/usb_device.o
 .debug_info    0x0000000000946fa8    0x465f6 build/pic32mz/production/_ext/202551283/usb_device_cdc.o
 .debug_info    0x000000000098d59e    0x450c8 build/pic32mz/production/_ext/202551283/usb_device_cdc_acm.o
 .debug_info    0x00000000009d2666    0x4660e build/pic32mz/production/_ext/953055421/usb_device_init_data.o
 .debug_info    0x0000000000a18c74    0x461b9 build/pic32mz/production/_ext/953055421/tasks.o
 .debug_info    0x0000000000a5ee2d    0x47c86 build/pic32mz/production/_ext/953055421/initialization.o
 .debug_info    0x0000000000aa6ab3    0x466e6 build/pic32mz/production/_ext/953055421/interrupts.o
 .debug_info    0x0000000000aed199    0x462eb build/pic32mz/production/_ext/953055421/exceptions.o
 .debug_info    0x0000000000b33484    0x4673f build/pic32mz/production/_ext/1360937237/app.o
 .debug_info    0x0000000000b79bc3    0x4617e build/pic32mz/production/_ext/1360937237/main.o
 .debug_info    0x0000000000bbfd41    0x46676 build/pic32mz/production/_ext/1360937237/communication.o
 .debug_info    0x0000000000c063b7    0x46f4e build/pic32mz/production/_ext/1360937237/mdot.o
 .debug_info    0x0000000000c4d305      0x46e build/pic32mz/production/_ext/1360937237/stringbuffer.o
 .debug_info    0x0000000000c4d773      0x85c c:/program files/microchip/xc32/v4.00/bin/bin/../../lib/gcc/pic32mx/8.3.1/fpu64\libgcc.a(_udivdi3.o)
 .debug_info    0x0000000000c4dfcf       0x3f c:/program files/microchip/xc32/v4.00/bin/bin/../../lib/gcc/pic32mx/8.3.1/../../../../pic32mx/lib/fpu64\libpic32.a(default-on-reset.o)
 .debug_info    0x0000000000c4e00e       0x3f c:/program files/microchip/xc32/v4.00/bin/bin/../../lib/gcc/pic32mx/8.3.1/../../../../pic32mx/lib/fpu64\libpic32.a(default-on-bootstrap.o)
 .debug_info    0x0000000000c4e04d       0x40 c:/program files/microchip/xc32/v4.00/bin/bin/../../lib/gcc/pic32mx/8.3.1/../../../../pic32mx/lib/fpu64\libpic32.a(defaultinterrupt.o)
 .debug_info    0x0000000000c4e08d      0x3e3 c:/program files/microchip/xc32/v4.00/bin/bin/../../lib/gcc/pic32mx/8.3.1/../../../../pic32mx/lib/fpu64\libc-musl.a(__sio_sprintf_dosux.o)
 .debug_info    0x0000000000c4e470      0x547 c:/program files/microchip/xc32/v4.00/bin/bin/../../lib/gcc/pic32mx/8.3.1/../../../../pic32mx/lib/fpu64\libc-musl.a(__fmt_d.o)
 .debug_info    0x0000000000c4e9b7      0x518 c:/program files/microchip/xc32/v4.00/bin/bin/../../lib/gcc/pic32mx/8.3.1/../../../../pic32mx/lib/fpu64\libc-musl.a(__fmt_o.o)
 .debug_info    0x0000000000c4eecf      0x4cb c:/program files/microchip/xc32/v4.00/bin/bin/../../lib/gcc/pic32mx/8.3.1/../../../../pic32mx/lib/fpu64\libc-musl.a(__fmt_s.o)
 .debug_info    0x0000000000c4f39a      0x5eb c:/program files/microchip/xc32/v4.00/bin/bin/../../lib/gcc/pic32mx/8.3.1/../../../../pic32mx/lib/fpu64\libc-musl.a(__fmt_u.o)
 .debug_info    0x0000000000c4f985      0x542 c:/program files/microchip/xc32/v4.00/bin/bin/../../lib/gcc/pic32mx/8.3.1/../../../../pic32mx/lib/fpu64\libc-musl.a(__fmt_x.o)
 .debug_info    0x0000000000c4fec7      0xc00 c:/program files/microchip/xc32/v4.00/bin/bin/../../lib/gcc/pic32mx/8.3.1/../../../../pic32mx/lib/fpu64\libc-musl.a(__printf_core.o)
 .debug_info    0x0000000000c50ac7      0x5ac c:/program files/microchip/xc32/v4.00/bin/bin/../../lib/gcc/pic32mx/8.3.1/../../../../pic32mx/lib/fpu64\libc-musl.a(stdin.o)
 .debug_info    0x0000000000c51073      0x57b c:/program files/microchip/xc32/v4.00/bin/bin/../../lib/gcc/pic32mx/8.3.1/../../../../pic32mx/lib/fpu64\libc-musl.a(stdout.o)
 .debug_info    0x0000000000c515ee      0x119 c:/program files/microchip/xc32/v4.00/bin/bin/../../lib/gcc/pic32mx/8.3.1/../../../../pic32mx/lib/fpu64\libc-musl.a(setbuf.o)
 .debug_info    0x0000000000c51707       0xe7 c:/program files/microchip/xc32/v4.00/bin/bin/../../lib/gcc/pic32mx/8.3.1/../../../../pic32mx/lib/fpu64\libc-musl.a(atoi.o)
 .debug_info    0x0000000000c517ee       0xe7 c:/program files/microchip/xc32/v4.00/bin/bin/../../lib/gcc/pic32mx/8.3.1/../../../../pic32mx/lib/fpu64\libc-musl.a(memmove.o)
 .debug_info    0x0000000000c518d5       0xd6 c:/program files/microchip/xc32/v4.00/bin/bin/../../lib/gcc/pic32mx/8.3.1/../../../../pic32mx/lib/fpu64\libc-musl.a(strncmp.o)
 .debug_info    0x0000000000c519ab       0xd5 c:/program files/microchip/xc32/v4.00/bin/bin/../../lib/gcc/pic32mx/8.3.1/../../../../pic32mx/lib/fpu64\libc-musl.a(strncpy.o)
 .debug_info    0x0000000000c51a80      0x303 c:/program files/microchip/xc32/v4.00/bin/bin/../../lib/gcc/pic32mx/8.3.1/../../../../pic32mx/lib/fpu64\libc-musl.a(tolower.o)
 .debug_info    0x0000000000c51d83      0x303 c:/program files/microchip/xc32/v4.00/bin/bin/../../lib/gcc/pic32mx/8.3.1/../../../../pic32mx/lib/fpu64\libc-musl.a(toupper.o)
 .debug_info    0x0000000000c52086      0x351 c:/program files/microchip/xc32/v4.00/bin/bin/../../lib/gcc/pic32mx/8.3.1/../../../../pic32mx/lib/fpu64\libc-musl.a(__int_vsprintf.o)
 .debug_info    0x0000000000c523d7      0x4fe c:/program files/microchip/xc32/v4.00/bin/bin/../../lib/gcc/pic32mx/8.3.1/../../../../pic32mx/lib/fpu64\libc-musl.a(__fopen.o)
 .debug_info    0x0000000000c528d5      0x529 c:/program files/microchip/xc32/v4.00/bin/bin/../../lib/gcc/pic32mx/8.3.1/../../../../pic32mx/lib/fpu64\libc-musl.a(__io_init_needed.o)
 .debug_info    0x0000000000c52dfe      0x53e c:/program files/microchip/xc32/v4.00/bin/bin/../../lib/gcc/pic32mx/8.3.1/../../../../pic32mx/lib/fpu64\libc-musl.a(__io_rw_needed.o)
 .debug_info    0x0000000000c5333c      0x4e2 c:/program files/microchip/xc32/v4.00/bin/bin/../../lib/gcc/pic32mx/8.3.1/../../../../pic32mx/lib/fpu64\libc-musl.a(__out.o)
 .debug_info    0x0000000000c5381e      0x3d6 c:/program files/microchip/xc32/v4.00/bin/bin/../../lib/gcc/pic32mx/8.3.1/../../../../pic32mx/lib/fpu64\libc-musl.a(__pop_float.o)
 .debug_info    0x0000000000c53bf4      0x3f0 c:/program files/microchip/xc32/v4.00/bin/bin/../../lib/gcc/pic32mx/8.3.1/../../../../pic32mx/lib/fpu64\libc-musl.a(__pop_int.o)
 .debug_info    0x0000000000c53fe4      0x3f4 c:/program files/microchip/xc32/v4.00/bin/bin/../../lib/gcc/pic32mx/8.3.1/../../../../pic32mx/lib/fpu64\libc-musl.a(__pop_ptr.o)
 .debug_info    0x0000000000c543d8      0x5f6 c:/program files/microchip/xc32/v4.00/bin/bin/../../lib/gcc/pic32mx/8.3.1/../../../../pic32mx/lib/fpu64\libc-musl.a(__stdio_close.o)
 .debug_info    0x0000000000c549ce      0x5e9 c:/program files/microchip/xc32/v4.00/bin/bin/../../lib/gcc/pic32mx/8.3.1/../../../../pic32mx/lib/fpu64\libc-musl.a(__stdio_read.o)
 .debug_info    0x0000000000c54fb7      0x4ee c:/program files/microchip/xc32/v4.00/bin/bin/../../lib/gcc/pic32mx/8.3.1/../../../../pic32mx/lib/fpu64\libc-musl.a(__towrite_rw.o)
 .debug_info    0x0000000000c554a5      0x4c6 c:/program files/microchip/xc32/v4.00/bin/bin/../../lib/gcc/pic32mx/8.3.1/../../../../pic32mx/lib/fpu64\libc-musl.a(setvbuf.o)
 .debug_info    0x0000000000c5596b      0x2fd c:/program files/microchip/xc32/v4.00/bin/bin/../../lib/gcc/pic32mx/8.3.1/../../../../pic32mx/lib/fpu64\libc-musl.a(stpncpy.o)
 .debug_info    0x0000000000c55c68      0x39e c:/program files/microchip/xc32/v4.00/bin/bin/../../lib/gcc/pic32mx/8.3.1/../../../../pic32mx/lib/fpu64\libc-musl.a(readv.o)
 .debug_info    0x0000000000c56006     0x108d c:/program files/microchip/xc32/v4.00/bin/bin/../../lib/gcc/pic32mx/8.3.1/../../../../pic32mx/lib/fpu64\libc-musl.a(malloc.o)
 .debug_info    0x0000000000c57093      0x32f c:/program files/microchip/xc32/v4.00/bin/bin/../../lib/gcc/pic32mx/8.3.1/../../../../pic32mx/lib/fpu64\libc-musl.a(expand_heap.o)
 .debug_info    0x0000000000c573c2      0x400 c:/program files/microchip/xc32/v4.00/bin/bin/../../lib/gcc/pic32mx/8.3.1/../../../../pic32mx/lib/fpu64\libc-musl.a(__int_vsnprintf.o)
 .debug_info    0x0000000000c577c2      0x5da c:/program files/microchip/xc32/v4.00/bin/bin/../../lib/gcc/pic32mx/8.3.1/../../../../pic32mx/lib/fpu64\libc-musl.a(__fopen_rw.o)
 .debug_info    0x0000000000c57d9c      0x552 c:/program files/microchip/xc32/v4.00/bin/bin/../../lib/gcc/pic32mx/8.3.1/../../../../pic32mx/lib/fpu64\libc-musl.a(__ftello_rw.o)
 .debug_info    0x0000000000c582ee      0x503 c:/program files/microchip/xc32/v4.00/bin/bin/../../lib/gcc/pic32mx/8.3.1/../../../../pic32mx/lib/fpu64\libc-musl.a(__init_stdio.o)
 .debug_info    0x0000000000c587f1      0x583 c:/program files/microchip/xc32/v4.00/bin/bin/../../lib/gcc/pic32mx/8.3.1/../../../../pic32mx/lib/fpu64\libc-musl.a(__io_buf_needed.o)
 .debug_info    0x0000000000c58d74      0x4f9 c:/program files/microchip/xc32/v4.00/bin/bin/../../lib/gcc/pic32mx/8.3.1/../../../../pic32mx/lib/fpu64\libc-musl.a(__io_file_needed.o)
 .debug_info    0x0000000000c5926d      0x56c c:/program files/microchip/xc32/v4.00/bin/bin/../../lib/gcc/pic32mx/8.3.1/../../../../pic32mx/lib/fpu64\libc-musl.a(__io_std_needed.o)
 .debug_info    0x0000000000c597d9      0x49e c:/program files/microchip/xc32/v4.00/bin/bin/../../lib/gcc/pic32mx/8.3.1/../../../../pic32mx/lib/fpu64\libc-musl.a(__putc.o)
 .debug_info    0x0000000000c59c77      0x569 c:/program files/microchip/xc32/v4.00/bin/bin/../../lib/gcc/pic32mx/8.3.1/../../../../pic32mx/lib/fpu64\libc-musl.a(__stderr.o)
 .debug_info    0x0000000000c5a1e0      0x4e6 c:/program files/microchip/xc32/v4.00/bin/bin/../../lib/gcc/pic32mx/8.3.1/../../../../pic32mx/lib/fpu64\libc-musl.a(__stdio_exit.o)
 .debug_info    0x0000000000c5a6c6      0x67f c:/program files/microchip/xc32/v4.00/bin/bin/../../lib/gcc/pic32mx/8.3.1/../../../../pic32mx/lib/fpu64\libc-musl.a(__stdio_write.o)
 .debug_info    0x0000000000c5ad45      0x569 c:/program files/microchip/xc32/v4.00/bin/bin/../../lib/gcc/pic32mx/8.3.1/../../../../pic32mx/lib/fpu64\libc-musl.a(__stdout.o)
 .debug_info    0x0000000000c5b2ae      0x47f c:/program files/microchip/xc32/v4.00/bin/bin/../../lib/gcc/pic32mx/8.3.1/../../../../pic32mx/lib/fpu64\libc-musl.a(__towrite.o)
 .debug_info    0x0000000000c5b72d      0x45a c:/program files/microchip/xc32/v4.00/bin/bin/../../lib/gcc/pic32mx/8.3.1/../../../../pic32mx/lib/fpu64\libc-musl.a(putc.o)
 .debug_info    0x0000000000c5bb87      0x379 c:/program files/microchip/xc32/v4.00/bin/bin/../../lib/gcc/pic32mx/8.3.1/../../../../pic32mx/lib/fpu64\libc-musl.a(read.o)
 .debug_info    0x0000000000c5bf00      0x39e c:/program files/microchip/xc32/v4.00/bin/bin/../../lib/gcc/pic32mx/8.3.1/../../../../pic32mx/lib/fpu64\libc-musl.a(writev.o)
 .debug_info    0x0000000000c5c29e      0x2d8 c:/program files/microchip/xc32/v4.00/bin/bin/../../lib/gcc/pic32mx/8.3.1/../../../../pic32mx/lib/fpu64\libc-musl.a(libc.o)
 .debug_info    0x0000000000c5c576      0x2c3 c:/program files/microchip/xc32/v4.00/bin/bin/../../lib/gcc/pic32mx/8.3.1/../../../../pic32mx/lib/fpu64\libc-musl.a(syscall_ret.o)
 .debug_info    0x0000000000c5c839      0x408 c:/program files/microchip/xc32/v4.00/bin/bin/../../lib/gcc/pic32mx/8.3.1/../../../../pic32mx/lib/fpu64\libc-musl.a(__int_vfprintf.o)
 .debug_info    0x0000000000c5cc41      0x54a c:/program files/microchip/xc32/v4.00/bin/bin/../../lib/gcc/pic32mx/8.3.1/../../../../pic32mx/lib/fpu64\libc-musl.a(__overflow.o)
 .debug_info    0x0000000000c5d18b      0x3ca c:/program files/microchip/xc32/v4.00/bin/bin/../../lib/gcc/pic32mx/8.3.1/../../../../pic32mx/lib/fpu64\libc-musl.a(__fclose.o)
 .debug_info    0x0000000000c5d555      0x4bb c:/program files/microchip/xc32/v4.00/bin/bin/../../lib/gcc/pic32mx/8.3.1/../../../../pic32mx/lib/fpu64\libc-musl.a(__fseeko.o)
 .debug_info    0x0000000000c5da10      0x4e3 c:/program files/microchip/xc32/v4.00/bin/bin/../../lib/gcc/pic32mx/8.3.1/../../../../pic32mx/lib/fpu64\libc-musl.a(__ftello.o)
 .debug_info    0x0000000000c5def3      0x545 c:/program files/microchip/xc32/v4.00/bin/bin/../../lib/gcc/pic32mx/8.3.1/../../../../pic32mx/lib/fpu64\libc-musl.a(__fwrite.o)
 .debug_info    0x0000000000c5e438       0xae c:/program files/microchip/xc32/v4.00/bin/bin/../../lib/gcc/pic32mx/8.3.1/../../../../pic32mx/lib/fpu64\libpic32.a(sbrk.o)
 .debug_info    0x0000000000c5e4e6       0x40 c:/program files/microchip/xc32/v4.00/bin/bin/../../lib/gcc/pic32mx/8.3.1/../../../../pic32mx/lib/fpu64\libpic32.a(write.o)
 .debug_info    0x0000000000c5e526       0x3f c:/program files/microchip/xc32/v4.00/bin/bin/../../lib/gcc/pic32mx/8.3.1/../../../../pic32mx/lib/fpu64\libpic32.a(lseek.o)
 .debug_info    0x0000000000c5e565       0x3f c:/program files/microchip/xc32/v4.00/bin/bin/../../lib/gcc/pic32mx/8.3.1/../../../../pic32mx/lib/fpu64\libpic32.a(close.o)
 .debug_info    0x0000000000c5e5a4      0x33c c:/program files/microchip/xc32/v4.00/bin/bin/../../lib/gcc/pic32mx/8.3.1/fpu64\libgcc.a(_lshrdi3.o)
 .debug_info    0x0000000000c5e8e0      0x33c c:/program files/microchip/xc32/v4.00/bin/bin/../../lib/gcc/pic32mx/8.3.1/fpu64\libgcc.a(_ashldi3.o)
 .debug_info    0x0000000000c5ec1c      0x8d4 c:/program files/microchip/xc32/v4.00/bin/bin/../../lib/gcc/pic32mx/8.3.1/fpu64\libgcc.a(_umoddi3.o)

.debug_abbrev   0x0000000000000000     0xf093
 *.elf(.debug_abbrev)
 *(.debug_abbrev)
 .debug_abbrev  0x0000000000000000      0x55b build/pic32mz/production/_ext/757013429/drv_sdspi.o
 .debug_abbrev  0x000000000000055b      0x391 build/pic32mz/production/_ext/757013429/drv_sdspi_driver_interface.o
 .debug_abbrev  0x00000000000008ec      0x254 build/pic32mz/production/_ext/757013429/drv_sdspi_file_system.o
 .debug_abbrev  0x0000000000000b40      0x589 build/pic32mz/production/_ext/2120450970/drv_spi.o
 .debug_abbrev  0x00000000000010c9      0x567 build/pic32mz/production/_ext/1783409726/drv_usbhs.o
 .debug_abbrev  0x0000000000001630      0x64e build/pic32mz/production/_ext/1783409726/drv_usbhs_device.o
 .debug_abbrev  0x0000000000001c7e      0x27d build/pic32mz/production/_ext/1640642171/plib_cache.o
 .debug_abbrev  0x0000000000001efb       0x14 build/pic32mz/production/_ext/1640642171/plib_cache_pic32mz.o
 .debug_abbrev  0x0000000000001f0f      0x16f build/pic32mz/production/_ext/10646107/plib_clk.o
 .debug_abbrev  0x000000000000207e      0x257 build/pic32mz/production/_ext/809018751/plib_coretimer.o
 .debug_abbrev  0x00000000000022d5      0x202 build/pic32mz/production/_ext/330098546/plib_evic.o
 .debug_abbrev  0x00000000000024d7      0x325 build/pic32mz/production/_ext/330152374/plib_gpio.o
 .debug_abbrev  0x00000000000027fc      0x2b0 build/pic32mz/production/_ext/249272802/plib_i2c2_master.o
 .debug_abbrev  0x0000000000002aac      0x2b0 build/pic32mz/production/_ext/249272802/plib_i2c4_master.o
 .debug_abbrev  0x0000000000002d5c      0x2fe build/pic32mz/production/_ext/867254719/plib_spi4_master.o
 .debug_abbrev  0x000000000000305a      0x2fe build/pic32mz/production/_ext/867254719/plib_spi2_master.o
 .debug_abbrev  0x0000000000003358      0x2fe build/pic32mz/production/_ext/867254719/plib_spi1_master.o
 .debug_abbrev  0x0000000000003656      0x223 build/pic32mz/production/_ext/10662482/plib_tmr2.o
 .debug_abbrev  0x0000000000003879      0x2e9 build/pic32mz/production/_ext/330555317/plib_uart5.o
 .debug_abbrev  0x0000000000003b62      0x342 build/pic32mz/production/_ext/330555317/plib_uart6.o
 .debug_abbrev  0x0000000000003ea4      0x342 build/pic32mz/production/_ext/330555317/plib_uart3.o
 .debug_abbrev  0x00000000000041e6      0x342 build/pic32mz/production/_ext/330555317/plib_uart4.o
 .debug_abbrev  0x0000000000004528      0x342 build/pic32mz/production/_ext/330555317/plib_uart1.o
 .debug_abbrev  0x000000000000486a      0x342 build/pic32mz/production/_ext/330555317/plib_uart2.o
 .debug_abbrev  0x0000000000004bac      0x327 build/pic32mz/production/_ext/1991269565/xc32_monitor.o
 .debug_abbrev  0x0000000000004ed3      0x1e0 build/pic32mz/production/_ext/1519118610/sys_cache.o
 .debug_abbrev  0x00000000000050b3       0xd3 build/pic32mz/production/_ext/1373644956/sys_dma.o
 .debug_abbrev  0x0000000000005186      0x47c build/pic32mz/production/_ext/1192657380/ff.o
 .debug_abbrev  0x0000000000005602      0x222 build/pic32mz/production/_ext/1192657380/ffunicode.o
 .debug_abbrev  0x0000000000005824      0x3db build/pic32mz/production/_ext/727274963/diskio.o
 .debug_abbrev  0x0000000000005bff      0x50a build/pic32mz/production/_ext/252936118/sys_fs.o
 .debug_abbrev  0x0000000000006109      0x4d6 build/pic32mz/production/_ext/252936118/sys_fs_media_manager.o
 .debug_abbrev  0x00000000000065df      0x3a8 build/pic32mz/production/_ext/252936118/sys_fs_fat_interface.o
 .debug_abbrev  0x0000000000006987      0x270 build/pic32mz/production/_ext/1832149040/sys_int.o
 .debug_abbrev  0x0000000000006bf7      0x5e6 build/pic32mz/production/_ext/1636986698/sys_time.o
 .debug_abbrev  0x00000000000071dd      0x45e build/pic32mz/production/_ext/202551283/usb_device.o
 .debug_abbrev  0x000000000000763b      0x49f build/pic32mz/production/_ext/202551283/usb_device_cdc.o
 .debug_abbrev  0x0000000000007ada      0x2a0 build/pic32mz/production/_ext/202551283/usb_device_cdc_acm.o
 .debug_abbrev  0x0000000000007d7a      0x2a4 build/pic32mz/production/_ext/953055421/usb_device_init_data.o
 .debug_abbrev  0x000000000000801e      0x2c4 build/pic32mz/production/_ext/953055421/tasks.o
 .debug_abbrev  0x00000000000082e2      0x3b6 build/pic32mz/production/_ext/953055421/initialization.o
 .debug_abbrev  0x0000000000008698      0x2b0 build/pic32mz/production/_ext/953055421/interrupts.o
 .debug_abbrev  0x0000000000008948      0x2a1 build/pic32mz/production/_ext/953055421/exceptions.o
 .debug_abbrev  0x0000000000008be9      0x316 build/pic32mz/production/_ext/1360937237/app.o
 .debug_abbrev  0x0000000000008eff      0x2cb build/pic32mz/production/_ext/1360937237/main.o
 .debug_abbrev  0x00000000000091ca      0x3a7 build/pic32mz/production/_ext/1360937237/communication.o
 .debug_abbrev  0x0000000000009571      0x43b build/pic32mz/production/_ext/1360937237/mdot.o
 .debug_abbrev  0x00000000000099ac      0x183 build/pic32mz/production/_ext/1360937237/stringbuffer.o
 .debug_abbrev  0x0000000000009b2f      0x1d8 c:/program files/microchip/xc32/v4.00/bin/bin/../../lib/gcc/pic32mx/8.3.1/fpu64\libgcc.a(_udivdi3.o)
 .debug_abbrev  0x0000000000009d07       0x2e c:/program files/microchip/xc32/v4.00/bin/bin/../../lib/gcc/pic32mx/8.3.1/../../../../pic32mx/lib/fpu64\libpic32.a(default-on-reset.o)
 .debug_abbrev  0x0000000000009d35       0x2e c:/program files/microchip/xc32/v4.00/bin/bin/../../lib/gcc/pic32mx/8.3.1/../../../../pic32mx/lib/fpu64\libpic32.a(default-on-bootstrap.o)
 .debug_abbrev  0x0000000000009d63       0x31 c:/program files/microchip/xc32/v4.00/bin/bin/../../lib/gcc/pic32mx/8.3.1/../../../../pic32mx/lib/fpu64\libpic32.a(defaultinterrupt.o)
 .debug_abbrev  0x0000000000009d94      0x17e c:/program files/microchip/xc32/v4.00/bin/bin/../../lib/gcc/pic32mx/8.3.1/../../../../pic32mx/lib/fpu64\libc-musl.a(__sio_sprintf_dosux.o)
 .debug_abbrev  0x0000000000009f12      0x1b0 c:/program files/microchip/xc32/v4.00/bin/bin/../../lib/gcc/pic32mx/8.3.1/../../../../pic32mx/lib/fpu64\libc-musl.a(__fmt_d.o)
 .debug_abbrev  0x000000000000a0c2      0x1b0 c:/program files/microchip/xc32/v4.00/bin/bin/../../lib/gcc/pic32mx/8.3.1/../../../../pic32mx/lib/fpu64\libc-musl.a(__fmt_o.o)
 .debug_abbrev  0x000000000000a272      0x190 c:/program files/microchip/xc32/v4.00/bin/bin/../../lib/gcc/pic32mx/8.3.1/../../../../pic32mx/lib/fpu64\libc-musl.a(__fmt_s.o)
 .debug_abbrev  0x000000000000a402      0x1e2 c:/program files/microchip/xc32/v4.00/bin/bin/../../lib/gcc/pic32mx/8.3.1/../../../../pic32mx/lib/fpu64\libc-musl.a(__fmt_u.o)
 .debug_abbrev  0x000000000000a5e4      0x19f c:/program files/microchip/xc32/v4.00/bin/bin/../../lib/gcc/pic32mx/8.3.1/../../../../pic32mx/lib/fpu64\libc-musl.a(__fmt_x.o)
 .debug_abbrev  0x000000000000a783      0x33b c:/program files/microchip/xc32/v4.00/bin/bin/../../lib/gcc/pic32mx/8.3.1/../../../../pic32mx/lib/fpu64\libc-musl.a(__printf_core.o)
 .debug_abbrev  0x000000000000aabe      0x19f c:/program files/microchip/xc32/v4.00/bin/bin/../../lib/gcc/pic32mx/8.3.1/../../../../pic32mx/lib/fpu64\libc-musl.a(stdin.o)
 .debug_abbrev  0x000000000000ac5d      0x17f c:/program files/microchip/xc32/v4.00/bin/bin/../../lib/gcc/pic32mx/8.3.1/../../../../pic32mx/lib/fpu64\libc-musl.a(stdout.o)
 .debug_abbrev  0x000000000000addc       0xc2 c:/program files/microchip/xc32/v4.00/bin/bin/../../lib/gcc/pic32mx/8.3.1/../../../../pic32mx/lib/fpu64\libc-musl.a(setbuf.o)
 .debug_abbrev  0x000000000000ae9e       0xc4 c:/program files/microchip/xc32/v4.00/bin/bin/../../lib/gcc/pic32mx/8.3.1/../../../../pic32mx/lib/fpu64\libc-musl.a(atoi.o)
 .debug_abbrev  0x000000000000af62       0x9d c:/program files/microchip/xc32/v4.00/bin/bin/../../lib/gcc/pic32mx/8.3.1/../../../../pic32mx/lib/fpu64\libc-musl.a(memmove.o)
 .debug_abbrev  0x000000000000afff       0xa2 c:/program files/microchip/xc32/v4.00/bin/bin/../../lib/gcc/pic32mx/8.3.1/../../../../pic32mx/lib/fpu64\libc-musl.a(strncmp.o)
 .debug_abbrev  0x000000000000b0a1       0x9d c:/program files/microchip/xc32/v4.00/bin/bin/../../lib/gcc/pic32mx/8.3.1/../../../../pic32mx/lib/fpu64\libc-musl.a(strncpy.o)
 .debug_abbrev  0x000000000000b13e      0x12b c:/program files/microchip/xc32/v4.00/bin/bin/../../lib/gcc/pic32mx/8.3.1/../../../../pic32mx/lib/fpu64\libc-musl.a(tolower.o)
 .debug_abbrev  0x000000000000b269      0x12b c:/program files/microchip/xc32/v4.00/bin/bin/../../lib/gcc/pic32mx/8.3.1/../../../../pic32mx/lib/fpu64\libc-musl.a(toupper.o)
 .debug_abbrev  0x000000000000b394      0x12f c:/program files/microchip/xc32/v4.00/bin/bin/../../lib/gcc/pic32mx/8.3.1/../../../../pic32mx/lib/fpu64\libc-musl.a(__int_vsprintf.o)
 .debug_abbrev  0x000000000000b4c3      0x1a4 c:/program files/microchip/xc32/v4.00/bin/bin/../../lib/gcc/pic32mx/8.3.1/../../../../pic32mx/lib/fpu64\libc-musl.a(__fopen.o)
 .debug_abbrev  0x000000000000b667      0x130 c:/program files/microchip/xc32/v4.00/bin/bin/../../lib/gcc/pic32mx/8.3.1/../../../../pic32mx/lib/fpu64\libc-musl.a(__io_init_needed.o)
 .debug_abbrev  0x000000000000b797      0x116 c:/program files/microchip/xc32/v4.00/bin/bin/../../lib/gcc/pic32mx/8.3.1/../../../../pic32mx/lib/fpu64\libc-musl.a(__io_rw_needed.o)
 .debug_abbrev  0x000000000000b8ad      0x1b6 c:/program files/microchip/xc32/v4.00/bin/bin/../../lib/gcc/pic32mx/8.3.1/../../../../pic32mx/lib/fpu64\libc-musl.a(__out.o)
 .debug_abbrev  0x000000000000ba63      0x132 c:/program files/microchip/xc32/v4.00/bin/bin/../../lib/gcc/pic32mx/8.3.1/../../../../pic32mx/lib/fpu64\libc-musl.a(__pop_float.o)
 .debug_abbrev  0x000000000000bb95      0x132 c:/program files/microchip/xc32/v4.00/bin/bin/../../lib/gcc/pic32mx/8.3.1/../../../../pic32mx/lib/fpu64\libc-musl.a(__pop_int.o)
 .debug_abbrev  0x000000000000bcc7      0x146 c:/program files/microchip/xc32/v4.00/bin/bin/../../lib/gcc/pic32mx/8.3.1/../../../../pic32mx/lib/fpu64\libc-musl.a(__pop_ptr.o)
 .debug_abbrev  0x000000000000be0d      0x162 c:/program files/microchip/xc32/v4.00/bin/bin/../../lib/gcc/pic32mx/8.3.1/../../../../pic32mx/lib/fpu64\libc-musl.a(__stdio_close.o)
 .debug_abbrev  0x000000000000bf6f      0x17f c:/program files/microchip/xc32/v4.00/bin/bin/../../lib/gcc/pic32mx/8.3.1/../../../../pic32mx/lib/fpu64\libc-musl.a(__stdio_read.o)
 .debug_abbrev  0x000000000000c0ee      0x108 c:/program files/microchip/xc32/v4.00/bin/bin/../../lib/gcc/pic32mx/8.3.1/../../../../pic32mx/lib/fpu64\libc-musl.a(__towrite_rw.o)
 .debug_abbrev  0x000000000000c1f6      0x171 c:/program files/microchip/xc32/v4.00/bin/bin/../../lib/gcc/pic32mx/8.3.1/../../../../pic32mx/lib/fpu64\libc-musl.a(setvbuf.o)
 .debug_abbrev  0x000000000000c367      0x123 c:/program files/microchip/xc32/v4.00/bin/bin/../../lib/gcc/pic32mx/8.3.1/../../../../pic32mx/lib/fpu64\libc-musl.a(stpncpy.o)
 .debug_abbrev  0x000000000000c48a      0x16e c:/program files/microchip/xc32/v4.00/bin/bin/../../lib/gcc/pic32mx/8.3.1/../../../../pic32mx/lib/fpu64\libc-musl.a(readv.o)
 .debug_abbrev  0x000000000000c5f8      0x43a c:/program files/microchip/xc32/v4.00/bin/bin/../../lib/gcc/pic32mx/8.3.1/../../../../pic32mx/lib/fpu64\libc-musl.a(malloc.o)
 .debug_abbrev  0x000000000000ca32      0x142 c:/program files/microchip/xc32/v4.00/bin/bin/../../lib/gcc/pic32mx/8.3.1/../../../../pic32mx/lib/fpu64\libc-musl.a(expand_heap.o)
 .debug_abbrev  0x000000000000cb74      0x151 c:/program files/microchip/xc32/v4.00/bin/bin/../../lib/gcc/pic32mx/8.3.1/../../../../pic32mx/lib/fpu64\libc-musl.a(__int_vsnprintf.o)
 .debug_abbrev  0x000000000000ccc5      0x13f c:/program files/microchip/xc32/v4.00/bin/bin/../../lib/gcc/pic32mx/8.3.1/../../../../pic32mx/lib/fpu64\libc-musl.a(__fopen_rw.o)
 .debug_abbrev  0x000000000000ce04      0x11e c:/program files/microchip/xc32/v4.00/bin/bin/../../lib/gcc/pic32mx/8.3.1/../../../../pic32mx/lib/fpu64\libc-musl.a(__ftello_rw.o)
 .debug_abbrev  0x000000000000cf22      0x114 c:/program files/microchip/xc32/v4.00/bin/bin/../../lib/gcc/pic32mx/8.3.1/../../../../pic32mx/lib/fpu64\libc-musl.a(__init_stdio.o)
 .debug_abbrev  0x000000000000d036      0x116 c:/program files/microchip/xc32/v4.00/bin/bin/../../lib/gcc/pic32mx/8.3.1/../../../../pic32mx/lib/fpu64\libc-musl.a(__io_buf_needed.o)
 .debug_abbrev  0x000000000000d14c      0x116 c:/program files/microchip/xc32/v4.00/bin/bin/../../lib/gcc/pic32mx/8.3.1/../../../../pic32mx/lib/fpu64\libc-musl.a(__io_file_needed.o)
 .debug_abbrev  0x000000000000d262      0x116 c:/program files/microchip/xc32/v4.00/bin/bin/../../lib/gcc/pic32mx/8.3.1/../../../../pic32mx/lib/fpu64\libc-musl.a(__io_std_needed.o)
 .debug_abbrev  0x000000000000d378      0x145 c:/program files/microchip/xc32/v4.00/bin/bin/../../lib/gcc/pic32mx/8.3.1/../../../../pic32mx/lib/fpu64\libc-musl.a(__putc.o)
 .debug_abbrev  0x000000000000d4bd      0x17d c:/program files/microchip/xc32/v4.00/bin/bin/../../lib/gcc/pic32mx/8.3.1/../../../../pic32mx/lib/fpu64\libc-musl.a(__stderr.o)
 .debug_abbrev  0x000000000000d63a      0x1a5 c:/program files/microchip/xc32/v4.00/bin/bin/../../lib/gcc/pic32mx/8.3.1/../../../../pic32mx/lib/fpu64\libc-musl.a(__stdio_exit.o)
 .debug_abbrev  0x000000000000d7df      0x1f1 c:/program files/microchip/xc32/v4.00/bin/bin/../../lib/gcc/pic32mx/8.3.1/../../../../pic32mx/lib/fpu64\libc-musl.a(__stdio_write.o)
 .debug_abbrev  0x000000000000d9d0      0x17d c:/program files/microchip/xc32/v4.00/bin/bin/../../lib/gcc/pic32mx/8.3.1/../../../../pic32mx/lib/fpu64\libc-musl.a(__stdout.o)
 .debug_abbrev  0x000000000000db4d      0x161 c:/program files/microchip/xc32/v4.00/bin/bin/../../lib/gcc/pic32mx/8.3.1/../../../../pic32mx/lib/fpu64\libc-musl.a(__towrite.o)
 .debug_abbrev  0x000000000000dcae      0x165 c:/program files/microchip/xc32/v4.00/bin/bin/../../lib/gcc/pic32mx/8.3.1/../../../../pic32mx/lib/fpu64\libc-musl.a(putc.o)
 .debug_abbrev  0x000000000000de13      0x14b c:/program files/microchip/xc32/v4.00/bin/bin/../../lib/gcc/pic32mx/8.3.1/../../../../pic32mx/lib/fpu64\libc-musl.a(read.o)
 .debug_abbrev  0x000000000000df5e      0x16e c:/program files/microchip/xc32/v4.00/bin/bin/../../lib/gcc/pic32mx/8.3.1/../../../../pic32mx/lib/fpu64\libc-musl.a(writev.o)
 .debug_abbrev  0x000000000000e0cc       0xe3 c:/program files/microchip/xc32/v4.00/bin/bin/../../lib/gcc/pic32mx/8.3.1/../../../../pic32mx/lib/fpu64\libc-musl.a(libc.o)
 .debug_abbrev  0x000000000000e1af       0xf8 c:/program files/microchip/xc32/v4.00/bin/bin/../../lib/gcc/pic32mx/8.3.1/../../../../pic32mx/lib/fpu64\libc-musl.a(syscall_ret.o)
 .debug_abbrev  0x000000000000e2a7      0x167 c:/program files/microchip/xc32/v4.00/bin/bin/../../lib/gcc/pic32mx/8.3.1/../../../../pic32mx/lib/fpu64\libc-musl.a(__int_vfprintf.o)
 .debug_abbrev  0x000000000000e40e      0x154 c:/program files/microchip/xc32/v4.00/bin/bin/../../lib/gcc/pic32mx/8.3.1/../../../../pic32mx/lib/fpu64\libc-musl.a(__overflow.o)
 .debug_abbrev  0x000000000000e562      0x120 c:/program files/microchip/xc32/v4.00/bin/bin/../../lib/gcc/pic32mx/8.3.1/../../../../pic32mx/lib/fpu64\libc-musl.a(__fclose.o)
 .debug_abbrev  0x000000000000e682      0x134 c:/program files/microchip/xc32/v4.00/bin/bin/../../lib/gcc/pic32mx/8.3.1/../../../../pic32mx/lib/fpu64\libc-musl.a(__fseeko.o)
 .debug_abbrev  0x000000000000e7b6      0x14d c:/program files/microchip/xc32/v4.00/bin/bin/../../lib/gcc/pic32mx/8.3.1/../../../../pic32mx/lib/fpu64\libc-musl.a(__ftello.o)
 .debug_abbrev  0x000000000000e903      0x18c c:/program files/microchip/xc32/v4.00/bin/bin/../../lib/gcc/pic32mx/8.3.1/../../../../pic32mx/lib/fpu64\libc-musl.a(__fwrite.o)
 .debug_abbrev  0x000000000000ea8f       0x90 c:/program files/microchip/xc32/v4.00/bin/bin/../../lib/gcc/pic32mx/8.3.1/../../../../pic32mx/lib/fpu64\libpic32.a(sbrk.o)
 .debug_abbrev  0x000000000000eb1f       0x2e c:/program files/microchip/xc32/v4.00/bin/bin/../../lib/gcc/pic32mx/8.3.1/../../../../pic32mx/lib/fpu64\libpic32.a(write.o)
 .debug_abbrev  0x000000000000eb4d       0x2e c:/program files/microchip/xc32/v4.00/bin/bin/../../lib/gcc/pic32mx/8.3.1/../../../../pic32mx/lib/fpu64\libpic32.a(lseek.o)
 .debug_abbrev  0x000000000000eb7b       0x2e c:/program files/microchip/xc32/v4.00/bin/bin/../../lib/gcc/pic32mx/8.3.1/../../../../pic32mx/lib/fpu64\libpic32.a(close.o)
 .debug_abbrev  0x000000000000eba9      0x17e c:/program files/microchip/xc32/v4.00/bin/bin/../../lib/gcc/pic32mx/8.3.1/fpu64\libgcc.a(_lshrdi3.o)
 .debug_abbrev  0x000000000000ed27      0x17e c:/program files/microchip/xc32/v4.00/bin/bin/../../lib/gcc/pic32mx/8.3.1/fpu64\libgcc.a(_ashldi3.o)
 .debug_abbrev  0x000000000000eea5      0x1ee c:/program files/microchip/xc32/v4.00/bin/bin/../../lib/gcc/pic32mx/8.3.1/fpu64\libgcc.a(_umoddi3.o)

.debug_line     0x0000000000000000    0x2e08e
 *.elf(.debug_line)
 *(.debug_line)
 .debug_line    0x0000000000000000     0x242f build/pic32mz/production/_ext/757013429/drv_sdspi.o
 .debug_line    0x000000000000242f      0x6fa build/pic32mz/production/_ext/757013429/drv_sdspi_driver_interface.o
 .debug_line    0x0000000000002b29      0x2ef build/pic32mz/production/_ext/757013429/drv_sdspi_file_system.o
 .debug_line    0x0000000000002e18     0x12f5 build/pic32mz/production/_ext/2120450970/drv_spi.o
 .debug_line    0x000000000000410d      0xeb3 build/pic32mz/production/_ext/1783409726/drv_usbhs.o
 .debug_line    0x0000000000004fc0     0x37b0 build/pic32mz/production/_ext/1783409726/drv_usbhs_device.o
 .debug_line    0x0000000000008770      0x421 build/pic32mz/production/_ext/1640642171/plib_cache.o
 .debug_line    0x0000000000008b91      0x208 build/pic32mz/production/_ext/1640642171/plib_cache_pic32mz.o
 .debug_line    0x0000000000008d99      0x221 build/pic32mz/production/_ext/10646107/plib_clk.o
 .debug_line    0x0000000000008fba      0x33f build/pic32mz/production/_ext/809018751/plib_coretimer.o
 .debug_line    0x00000000000092f9      0x42c build/pic32mz/production/_ext/330098546/plib_evic.o
 .debug_line    0x0000000000009725      0x6bd build/pic32mz/production/_ext/330152374/plib_gpio.o
 .debug_line    0x0000000000009de2      0x84b build/pic32mz/production/_ext/249272802/plib_i2c2_master.o
 .debug_line    0x000000000000a62d      0x84b build/pic32mz/production/_ext/249272802/plib_i2c4_master.o
 .debug_line    0x000000000000ae78      0x8d4 build/pic32mz/production/_ext/867254719/plib_spi4_master.o
 .debug_line    0x000000000000b74c      0x8d4 build/pic32mz/production/_ext/867254719/plib_spi2_master.o
 .debug_line    0x000000000000c020      0x8d4 build/pic32mz/production/_ext/867254719/plib_spi1_master.o
 .debug_line    0x000000000000c8f4      0x320 build/pic32mz/production/_ext/10662482/plib_tmr2.o
 .debug_line    0x000000000000cc14      0x594 build/pic32mz/production/_ext/330555317/plib_uart5.o
 .debug_line    0x000000000000d1a8      0x802 build/pic32mz/production/_ext/330555317/plib_uart6.o
 .debug_line    0x000000000000d9aa      0x802 build/pic32mz/production/_ext/330555317/plib_uart3.o
 .debug_line    0x000000000000e1ac      0x802 build/pic32mz/production/_ext/330555317/plib_uart4.o
 .debug_line    0x000000000000e9ae      0x802 build/pic32mz/production/_ext/330555317/plib_uart1.o
 .debug_line    0x000000000000f1b0      0x802 build/pic32mz/production/_ext/330555317/plib_uart2.o
 .debug_line    0x000000000000f9b2      0x683 build/pic32mz/production/_ext/1991269565/xc32_monitor.o
 .debug_line    0x0000000000010035      0x3df build/pic32mz/production/_ext/1519118610/sys_cache.o
 .debug_line    0x0000000000010414      0x10e build/pic32mz/production/_ext/1373644956/sys_dma.o
 .debug_line    0x0000000000010522     0x4c41 build/pic32mz/production/_ext/1192657380/ff.o
 .debug_line    0x0000000000015163      0x385 build/pic32mz/production/_ext/1192657380/ffunicode.o
 .debug_line    0x00000000000154e8      0x6d6 build/pic32mz/production/_ext/727274963/diskio.o
 .debug_line    0x0000000000015bbe     0x3114 build/pic32mz/production/_ext/252936118/sys_fs.o
 .debug_line    0x0000000000018cd2     0x1022 build/pic32mz/production/_ext/252936118/sys_fs_media_manager.o
 .debug_line    0x0000000000019cf4      0xa74 build/pic32mz/production/_ext/252936118/sys_fs_fat_interface.o
 .debug_line    0x000000000001a768      0x2ae build/pic32mz/production/_ext/1832149040/sys_int.o
 .debug_line    0x000000000001aa16     0x1326 build/pic32mz/production/_ext/1636986698/sys_time.o
 .debug_line    0x000000000001bd3c     0x1a99 build/pic32mz/production/_ext/202551283/usb_device.o
 .debug_line    0x000000000001d7d5      0xe1d build/pic32mz/production/_ext/202551283/usb_device_cdc.o
 .debug_line    0x000000000001e5f2      0x398 build/pic32mz/production/_ext/202551283/usb_device_cdc_acm.o
 .debug_line    0x000000000001e98a      0x5af build/pic32mz/production/_ext/953055421/usb_device_init_data.o
 .debug_line    0x000000000001ef39      0x687 build/pic32mz/production/_ext/953055421/tasks.o
 .debug_line    0x000000000001f5c0      0xd19 build/pic32mz/production/_ext/953055421/initialization.o
 .debug_line    0x00000000000202d9      0x8ec build/pic32mz/production/_ext/953055421/interrupts.o
 .debug_line    0x0000000000020bc5      0x630 build/pic32mz/production/_ext/953055421/exceptions.o
 .debug_line    0x00000000000211f5      0x746 build/pic32mz/production/_ext/1360937237/app.o
 .debug_line    0x000000000002193b      0x5c8 build/pic32mz/production/_ext/1360937237/main.o
 .debug_line    0x0000000000021f03      0x9b8 build/pic32mz/production/_ext/1360937237/communication.o
 .debug_line    0x00000000000228bb      0xab3 build/pic32mz/production/_ext/1360937237/mdot.o
 .debug_line    0x000000000002336e      0x236 build/pic32mz/production/_ext/1360937237/stringbuffer.o
 .debug_line    0x00000000000235a4      0x490 c:/program files/microchip/xc32/v4.00/bin/bin/../../lib/gcc/pic32mx/8.3.1/fpu64\libgcc.a(_udivdi3.o)
 .debug_line    0x0000000000023a34       0xa6 c:/program files/microchip/xc32/v4.00/bin/bin/../../lib/gcc/pic32mx/8.3.1/../../../../pic32mx/lib/fpu64\libpic32.a(default-on-reset.o)
 .debug_line    0x0000000000023ada       0xaa c:/program files/microchip/xc32/v4.00/bin/bin/../../lib/gcc/pic32mx/8.3.1/../../../../pic32mx/lib/fpu64\libpic32.a(default-on-bootstrap.o)
 .debug_line    0x0000000000023b84       0xc9 c:/program files/microchip/xc32/v4.00/bin/bin/../../lib/gcc/pic32mx/8.3.1/../../../../pic32mx/lib/fpu64\libpic32.a(defaultinterrupt.o)
 .debug_line    0x0000000000023c4d      0x2e7 c:/program files/microchip/xc32/v4.00/bin/bin/../../lib/gcc/pic32mx/8.3.1/../../../../pic32mx/lib/fpu64\libc-musl.a(__sio_sprintf_dosux.o)
 .debug_line    0x0000000000023f34      0x306 c:/program files/microchip/xc32/v4.00/bin/bin/../../lib/gcc/pic32mx/8.3.1/../../../../pic32mx/lib/fpu64\libc-musl.a(__fmt_d.o)
 .debug_line    0x000000000002423a      0x2ae c:/program files/microchip/xc32/v4.00/bin/bin/../../lib/gcc/pic32mx/8.3.1/../../../../pic32mx/lib/fpu64\libc-musl.a(__fmt_o.o)
 .debug_line    0x00000000000244e8      0x2fb c:/program files/microchip/xc32/v4.00/bin/bin/../../lib/gcc/pic32mx/8.3.1/../../../../pic32mx/lib/fpu64\libc-musl.a(__fmt_s.o)
 .debug_line    0x00000000000247e3      0x344 c:/program files/microchip/xc32/v4.00/bin/bin/../../lib/gcc/pic32mx/8.3.1/../../../../pic32mx/lib/fpu64\libc-musl.a(__fmt_u.o)
 .debug_line    0x0000000000024b27      0x3cf c:/program files/microchip/xc32/v4.00/bin/bin/../../lib/gcc/pic32mx/8.3.1/../../../../pic32mx/lib/fpu64\libc-musl.a(__fmt_x.o)
 .debug_line    0x0000000000024ef6      0x79a c:/program files/microchip/xc32/v4.00/bin/bin/../../lib/gcc/pic32mx/8.3.1/../../../../pic32mx/lib/fpu64\libc-musl.a(__printf_core.o)
 .debug_line    0x0000000000025690      0x245 c:/program files/microchip/xc32/v4.00/bin/bin/../../lib/gcc/pic32mx/8.3.1/../../../../pic32mx/lib/fpu64\libc-musl.a(stdin.o)
 .debug_line    0x00000000000258d5      0x25d c:/program files/microchip/xc32/v4.00/bin/bin/../../lib/gcc/pic32mx/8.3.1/../../../../pic32mx/lib/fpu64\libc-musl.a(stdout.o)
 .debug_line    0x0000000000025b32      0x1a0 c:/program files/microchip/xc32/v4.00/bin/bin/../../lib/gcc/pic32mx/8.3.1/../../../../pic32mx/lib/fpu64\libc-musl.a(setbuf.o)
 .debug_line    0x0000000000025cd2      0x17d c:/program files/microchip/xc32/v4.00/bin/bin/../../lib/gcc/pic32mx/8.3.1/../../../../pic32mx/lib/fpu64\libc-musl.a(atoi.o)
 .debug_line    0x0000000000025e4f      0x15a c:/program files/microchip/xc32/v4.00/bin/bin/../../lib/gcc/pic32mx/8.3.1/../../../../pic32mx/lib/fpu64\libc-musl.a(memmove.o)
 .debug_line    0x0000000000025fa9      0x140 c:/program files/microchip/xc32/v4.00/bin/bin/../../lib/gcc/pic32mx/8.3.1/../../../../pic32mx/lib/fpu64\libc-musl.a(strncmp.o)
 .debug_line    0x00000000000260e9      0x129 c:/program files/microchip/xc32/v4.00/bin/bin/../../lib/gcc/pic32mx/8.3.1/../../../../pic32mx/lib/fpu64\libc-musl.a(strncpy.o)
 .debug_line    0x0000000000026212      0x238 c:/program files/microchip/xc32/v4.00/bin/bin/../../lib/gcc/pic32mx/8.3.1/../../../../pic32mx/lib/fpu64\libc-musl.a(tolower.o)
 .debug_line    0x000000000002644a      0x238 c:/program files/microchip/xc32/v4.00/bin/bin/../../lib/gcc/pic32mx/8.3.1/../../../../pic32mx/lib/fpu64\libc-musl.a(toupper.o)
 .debug_line    0x0000000000026682      0x299 c:/program files/microchip/xc32/v4.00/bin/bin/../../lib/gcc/pic32mx/8.3.1/../../../../pic32mx/lib/fpu64\libc-musl.a(__int_vsprintf.o)
 .debug_line    0x000000000002691b      0x311 c:/program files/microchip/xc32/v4.00/bin/bin/../../lib/gcc/pic32mx/8.3.1/../../../../pic32mx/lib/fpu64\libc-musl.a(__fopen.o)
 .debug_line    0x0000000000026c2c      0x24b c:/program files/microchip/xc32/v4.00/bin/bin/../../lib/gcc/pic32mx/8.3.1/../../../../pic32mx/lib/fpu64\libc-musl.a(__io_init_needed.o)
 .debug_line    0x0000000000026e77      0x23b c:/program files/microchip/xc32/v4.00/bin/bin/../../lib/gcc/pic32mx/8.3.1/../../../../pic32mx/lib/fpu64\libc-musl.a(__io_rw_needed.o)
 .debug_line    0x00000000000270b2      0x32e c:/program files/microchip/xc32/v4.00/bin/bin/../../lib/gcc/pic32mx/8.3.1/../../../../pic32mx/lib/fpu64\libc-musl.a(__out.o)
 .debug_line    0x00000000000273e0      0x23d c:/program files/microchip/xc32/v4.00/bin/bin/../../lib/gcc/pic32mx/8.3.1/../../../../pic32mx/lib/fpu64\libc-musl.a(__pop_float.o)
 .debug_line    0x000000000002761d      0x2dc c:/program files/microchip/xc32/v4.00/bin/bin/../../lib/gcc/pic32mx/8.3.1/../../../../pic32mx/lib/fpu64\libc-musl.a(__pop_int.o)
 .debug_line    0x00000000000278f9      0x294 c:/program files/microchip/xc32/v4.00/bin/bin/../../lib/gcc/pic32mx/8.3.1/../../../../pic32mx/lib/fpu64\libc-musl.a(__pop_ptr.o)
 .debug_line    0x0000000000027b8d      0x2f9 c:/program files/microchip/xc32/v4.00/bin/bin/../../lib/gcc/pic32mx/8.3.1/../../../../pic32mx/lib/fpu64\libc-musl.a(__stdio_close.o)
 .debug_line    0x0000000000027e86      0x2b9 c:/program files/microchip/xc32/v4.00/bin/bin/../../lib/gcc/pic32mx/8.3.1/../../../../pic32mx/lib/fpu64\libc-musl.a(__stdio_read.o)
 .debug_line    0x000000000002813f      0x25a c:/program files/microchip/xc32/v4.00/bin/bin/../../lib/gcc/pic32mx/8.3.1/../../../../pic32mx/lib/fpu64\libc-musl.a(__towrite_rw.o)
 .debug_line    0x0000000000028399      0x328 c:/program files/microchip/xc32/v4.00/bin/bin/../../lib/gcc/pic32mx/8.3.1/../../../../pic32mx/lib/fpu64\libc-musl.a(setvbuf.o)
 .debug_line    0x00000000000286c1      0x23f c:/program files/microchip/xc32/v4.00/bin/bin/../../lib/gcc/pic32mx/8.3.1/../../../../pic32mx/lib/fpu64\libc-musl.a(stpncpy.o)
 .debug_line    0x0000000000028900      0x240 c:/program files/microchip/xc32/v4.00/bin/bin/../../lib/gcc/pic32mx/8.3.1/../../../../pic32mx/lib/fpu64\libc-musl.a(readv.o)
 .debug_line    0x0000000000028b40      0xb58 c:/program files/microchip/xc32/v4.00/bin/bin/../../lib/gcc/pic32mx/8.3.1/../../../../pic32mx/lib/fpu64\libc-musl.a(malloc.o)
 .debug_line    0x0000000000029698      0x244 c:/program files/microchip/xc32/v4.00/bin/bin/../../lib/gcc/pic32mx/8.3.1/../../../../pic32mx/lib/fpu64\libc-musl.a(expand_heap.o)
 .debug_line    0x00000000000298dc      0x2f4 c:/program files/microchip/xc32/v4.00/bin/bin/../../lib/gcc/pic32mx/8.3.1/../../../../pic32mx/lib/fpu64\libc-musl.a(__int_vsnprintf.o)
 .debug_line    0x0000000000029bd0      0x312 c:/program files/microchip/xc32/v4.00/bin/bin/../../lib/gcc/pic32mx/8.3.1/../../../../pic32mx/lib/fpu64\libc-musl.a(__fopen_rw.o)
 .debug_line    0x0000000000029ee2      0x25f c:/program files/microchip/xc32/v4.00/bin/bin/../../lib/gcc/pic32mx/8.3.1/../../../../pic32mx/lib/fpu64\libc-musl.a(__ftello_rw.o)
 .debug_line    0x000000000002a141      0x242 c:/program files/microchip/xc32/v4.00/bin/bin/../../lib/gcc/pic32mx/8.3.1/../../../../pic32mx/lib/fpu64\libc-musl.a(__init_stdio.o)
 .debug_line    0x000000000002a383      0x23f c:/program files/microchip/xc32/v4.00/bin/bin/../../lib/gcc/pic32mx/8.3.1/../../../../pic32mx/lib/fpu64\libc-musl.a(__io_buf_needed.o)
 .debug_line    0x000000000002a5c2      0x236 c:/program files/microchip/xc32/v4.00/bin/bin/../../lib/gcc/pic32mx/8.3.1/../../../../pic32mx/lib/fpu64\libc-musl.a(__io_file_needed.o)
 .debug_line    0x000000000002a7f8      0x23e c:/program files/microchip/xc32/v4.00/bin/bin/../../lib/gcc/pic32mx/8.3.1/../../../../pic32mx/lib/fpu64\libc-musl.a(__io_std_needed.o)
 .debug_line    0x000000000002aa36      0x248 c:/program files/microchip/xc32/v4.00/bin/bin/../../lib/gcc/pic32mx/8.3.1/../../../../pic32mx/lib/fpu64\libc-musl.a(__putc.o)
 .debug_line    0x000000000002ac7e      0x258 c:/program files/microchip/xc32/v4.00/bin/bin/../../lib/gcc/pic32mx/8.3.1/../../../../pic32mx/lib/fpu64\libc-musl.a(__stderr.o)
 .debug_line    0x000000000002aed6      0x260 c:/program files/microchip/xc32/v4.00/bin/bin/../../lib/gcc/pic32mx/8.3.1/../../../../pic32mx/lib/fpu64\libc-musl.a(__stdio_exit.o)
 .debug_line    0x000000000002b136      0x40c c:/program files/microchip/xc32/v4.00/bin/bin/../../lib/gcc/pic32mx/8.3.1/../../../../pic32mx/lib/fpu64\libc-musl.a(__stdio_write.o)
 .debug_line    0x000000000002b542      0x258 c:/program files/microchip/xc32/v4.00/bin/bin/../../lib/gcc/pic32mx/8.3.1/../../../../pic32mx/lib/fpu64\libc-musl.a(__stdout.o)
 .debug_line    0x000000000002b79a      0x267 c:/program files/microchip/xc32/v4.00/bin/bin/../../lib/gcc/pic32mx/8.3.1/../../../../pic32mx/lib/fpu64\libc-musl.a(__towrite.o)
 .debug_line    0x000000000002ba01      0x29e c:/program files/microchip/xc32/v4.00/bin/bin/../../lib/gcc/pic32mx/8.3.1/../../../../pic32mx/lib/fpu64\libc-musl.a(putc.o)
 .debug_line    0x000000000002bc9f      0x2a6 c:/program files/microchip/xc32/v4.00/bin/bin/../../lib/gcc/pic32mx/8.3.1/../../../../pic32mx/lib/fpu64\libc-musl.a(read.o)
 .debug_line    0x000000000002bf45      0x241 c:/program files/microchip/xc32/v4.00/bin/bin/../../lib/gcc/pic32mx/8.3.1/../../../../pic32mx/lib/fpu64\libc-musl.a(writev.o)
 .debug_line    0x000000000002c186      0x189 c:/program files/microchip/xc32/v4.00/bin/bin/../../lib/gcc/pic32mx/8.3.1/../../../../pic32mx/lib/fpu64\libc-musl.a(libc.o)
 .debug_line    0x000000000002c30f      0x1c7 c:/program files/microchip/xc32/v4.00/bin/bin/../../lib/gcc/pic32mx/8.3.1/../../../../pic32mx/lib/fpu64\libc-musl.a(syscall_ret.o)
 .debug_line    0x000000000002c4d6      0x260 c:/program files/microchip/xc32/v4.00/bin/bin/../../lib/gcc/pic32mx/8.3.1/../../../../pic32mx/lib/fpu64\libc-musl.a(__int_vfprintf.o)
 .debug_line    0x000000000002c736      0x268 c:/program files/microchip/xc32/v4.00/bin/bin/../../lib/gcc/pic32mx/8.3.1/../../../../pic32mx/lib/fpu64\libc-musl.a(__overflow.o)
 .debug_line    0x000000000002c99e      0x237 c:/program files/microchip/xc32/v4.00/bin/bin/../../lib/gcc/pic32mx/8.3.1/../../../../pic32mx/lib/fpu64\libc-musl.a(__fclose.o)
 .debug_line    0x000000000002cbd5      0x23b c:/program files/microchip/xc32/v4.00/bin/bin/../../lib/gcc/pic32mx/8.3.1/../../../../pic32mx/lib/fpu64\libc-musl.a(__fseeko.o)
 .debug_line    0x000000000002ce10      0x273 c:/program files/microchip/xc32/v4.00/bin/bin/../../lib/gcc/pic32mx/8.3.1/../../../../pic32mx/lib/fpu64\libc-musl.a(__ftello.o)
 .debug_line    0x000000000002d083      0x274 c:/program files/microchip/xc32/v4.00/bin/bin/../../lib/gcc/pic32mx/8.3.1/../../../../pic32mx/lib/fpu64\libc-musl.a(__fwrite.o)
 .debug_line    0x000000000002d2f7      0x1af c:/program files/microchip/xc32/v4.00/bin/bin/../../lib/gcc/pic32mx/8.3.1/../../../../pic32mx/lib/fpu64\libpic32.a(sbrk.o)
 .debug_line    0x000000000002d4a6       0xb8 c:/program files/microchip/xc32/v4.00/bin/bin/../../lib/gcc/pic32mx/8.3.1/../../../../pic32mx/lib/fpu64\libpic32.a(write.o)
 .debug_line    0x000000000002d55e       0x9b c:/program files/microchip/xc32/v4.00/bin/bin/../../lib/gcc/pic32mx/8.3.1/../../../../pic32mx/lib/fpu64\libpic32.a(lseek.o)
 .debug_line    0x000000000002d5f9       0x9b c:/program files/microchip/xc32/v4.00/bin/bin/../../lib/gcc/pic32mx/8.3.1/../../../../pic32mx/lib/fpu64\libpic32.a(close.o)
 .debug_line    0x000000000002d694        0x0 c:/program files/microchip/xc32/v4.00/bin/bin/../../lib/gcc/pic32mx/8.3.1/../../../../pic32mx/lib/fpu64\libpic32.a(errno.o)
 .debug_line    0x000000000002d694      0x290 c:/program files/microchip/xc32/v4.00/bin/bin/../../lib/gcc/pic32mx/8.3.1/fpu64\libgcc.a(_lshrdi3.o)
 .debug_line    0x000000000002d924      0x291 c:/program files/microchip/xc32/v4.00/bin/bin/../../lib/gcc/pic32mx/8.3.1/fpu64\libgcc.a(_ashldi3.o)
 .debug_line    0x000000000002dbb5      0x4d9 c:/program files/microchip/xc32/v4.00/bin/bin/../../lib/gcc/pic32mx/8.3.1/fpu64\libgcc.a(_umoddi3.o)

.debug_frame    0x0000000000000000     0x6578
 *.elf(.debug_frame)
 *(.debug_frame)
 .debug_frame   0x0000000000000000      0x1e8 build/pic32mz/production/_ext/757013429/drv_sdspi.o
 .debug_frame   0x00000000000001e8      0x164 build/pic32mz/production/_ext/757013429/drv_sdspi_driver_interface.o
 .debug_frame   0x000000000000034c       0x2c build/pic32mz/production/_ext/757013429/drv_sdspi_file_system.o
 .debug_frame   0x0000000000000378      0x200 build/pic32mz/production/_ext/2120450970/drv_spi.o
 .debug_frame   0x0000000000000578      0x144 build/pic32mz/production/_ext/1783409726/drv_usbhs.o
 .debug_frame   0x00000000000006bc      0x3f8 build/pic32mz/production/_ext/1783409726/drv_usbhs_device.o
 .debug_frame   0x0000000000000ab4      0x25c build/pic32mz/production/_ext/1640642171/plib_cache.o
 .debug_frame   0x0000000000000d10       0x20 build/pic32mz/production/_ext/10646107/plib_clk.o
 .debug_frame   0x0000000000000d30      0x110 build/pic32mz/production/_ext/809018751/plib_coretimer.o
 .debug_frame   0x0000000000000e40       0xd4 build/pic32mz/production/_ext/330098546/plib_evic.o
 .debug_frame   0x0000000000000f14      0x114 build/pic32mz/production/_ext/330152374/plib_gpio.o
 .debug_frame   0x0000000000001028       0xc8 build/pic32mz/production/_ext/249272802/plib_i2c2_master.o
 .debug_frame   0x00000000000010f0       0xc8 build/pic32mz/production/_ext/249272802/plib_i2c4_master.o
 .debug_frame   0x00000000000011b8       0xe0 build/pic32mz/production/_ext/867254719/plib_spi4_master.o
 .debug_frame   0x0000000000001298       0xe0 build/pic32mz/production/_ext/867254719/plib_spi2_master.o
 .debug_frame   0x0000000000001378       0xe0 build/pic32mz/production/_ext/867254719/plib_spi1_master.o
 .debug_frame   0x0000000000001458       0xcc build/pic32mz/production/_ext/10662482/plib_tmr2.o
 .debug_frame   0x0000000000001524      0x104 build/pic32mz/production/_ext/330555317/plib_uart5.o
 .debug_frame   0x0000000000001628      0x168 build/pic32mz/production/_ext/330555317/plib_uart6.o
 .debug_frame   0x0000000000001790      0x168 build/pic32mz/production/_ext/330555317/plib_uart3.o
 .debug_frame   0x00000000000018f8      0x168 build/pic32mz/production/_ext/330555317/plib_uart4.o
 .debug_frame   0x0000000000001a60      0x168 build/pic32mz/production/_ext/330555317/plib_uart1.o
 .debug_frame   0x0000000000001bc8      0x168 build/pic32mz/production/_ext/330555317/plib_uart2.o
 .debug_frame   0x0000000000001d30       0x48 build/pic32mz/production/_ext/1991269565/xc32_monitor.o
 .debug_frame   0x0000000000001d78      0x188 build/pic32mz/production/_ext/1519118610/sys_cache.o
 .debug_frame   0x0000000000001f00       0x40 build/pic32mz/production/_ext/1373644956/sys_dma.o
 .debug_frame   0x0000000000001f40      0x8e4 build/pic32mz/production/_ext/1192657380/ff.o
 .debug_frame   0x0000000000002824       0x40 build/pic32mz/production/_ext/1192657380/ffunicode.o
 .debug_frame   0x0000000000002864      0x11c build/pic32mz/production/_ext/727274963/diskio.o
 .debug_frame   0x0000000000002980      0x578 build/pic32mz/production/_ext/252936118/sys_fs.o
 .debug_frame   0x0000000000002ef8      0x1ec build/pic32mz/production/_ext/252936118/sys_fs_media_manager.o
 .debug_frame   0x00000000000030e4      0x3d8 build/pic32mz/production/_ext/252936118/sys_fs_fat_interface.o
 .debug_frame   0x00000000000034bc       0xa0 build/pic32mz/production/_ext/1832149040/sys_int.o
 .debug_frame   0x000000000000355c      0x404 build/pic32mz/production/_ext/1636986698/sys_time.o
 .debug_frame   0x0000000000003960      0x5a4 build/pic32mz/production/_ext/202551283/usb_device.o
 .debug_frame   0x0000000000003f04      0x190 build/pic32mz/production/_ext/202551283/usb_device_cdc.o
 .debug_frame   0x0000000000004094       0x30 build/pic32mz/production/_ext/202551283/usb_device_cdc_acm.o
 .debug_frame   0x00000000000040c4       0x2c build/pic32mz/production/_ext/953055421/tasks.o
 .debug_frame   0x00000000000040f0       0x30 build/pic32mz/production/_ext/953055421/initialization.o
 .debug_frame   0x0000000000004120     0x1168 build/pic32mz/production/_ext/953055421/interrupts.o
 .debug_frame   0x0000000000005288       0x70 build/pic32mz/production/_ext/953055421/exceptions.o
 .debug_frame   0x00000000000052f8       0x6c build/pic32mz/production/_ext/1360937237/app.o
 .debug_frame   0x0000000000005364       0x28 build/pic32mz/production/_ext/1360937237/main.o
 .debug_frame   0x000000000000538c      0x108 build/pic32mz/production/_ext/1360937237/communication.o
 .debug_frame   0x0000000000005494       0xec build/pic32mz/production/_ext/1360937237/mdot.o
 .debug_frame   0x0000000000005580       0x84 build/pic32mz/production/_ext/1360937237/stringbuffer.o
 .debug_frame   0x0000000000005604       0x20 c:/program files/microchip/xc32/v4.00/bin/bin/../../lib/gcc/pic32mx/8.3.1/fpu64\libgcc.a(_udivdi3.o)
 .debug_frame   0x0000000000005624       0x20 c:/program files/microchip/xc32/v4.00/bin/bin/../../lib/gcc/pic32mx/8.3.1/../../../../pic32mx/lib/fpu64\libpic32.a(default-on-reset.o)
 .debug_frame   0x0000000000005644       0x20 c:/program files/microchip/xc32/v4.00/bin/bin/../../lib/gcc/pic32mx/8.3.1/../../../../pic32mx/lib/fpu64\libpic32.a(default-on-bootstrap.o)
 .debug_frame   0x0000000000005664       0x20 c:/program files/microchip/xc32/v4.00/bin/bin/../../lib/gcc/pic32mx/8.3.1/../../../../pic32mx/lib/fpu64\libpic32.a(defaultinterrupt.o)
 .debug_frame   0x0000000000005684       0x48 c:/program files/microchip/xc32/v4.00/bin/bin/../../lib/gcc/pic32mx/8.3.1/../../../../pic32mx/lib/fpu64\libc-musl.a(__sio_sprintf_dosux.o)
 .debug_frame   0x00000000000056cc       0x38 c:/program files/microchip/xc32/v4.00/bin/bin/../../lib/gcc/pic32mx/8.3.1/../../../../pic32mx/lib/fpu64\libc-musl.a(__fmt_d.o)
 .debug_frame   0x0000000000005704       0x34 c:/program files/microchip/xc32/v4.00/bin/bin/../../lib/gcc/pic32mx/8.3.1/../../../../pic32mx/lib/fpu64\libc-musl.a(__fmt_o.o)
 .debug_frame   0x0000000000005738       0x34 c:/program files/microchip/xc32/v4.00/bin/bin/../../lib/gcc/pic32mx/8.3.1/../../../../pic32mx/lib/fpu64\libc-musl.a(__fmt_s.o)
 .debug_frame   0x000000000000576c       0x64 c:/program files/microchip/xc32/v4.00/bin/bin/../../lib/gcc/pic32mx/8.3.1/../../../../pic32mx/lib/fpu64\libc-musl.a(__fmt_u.o)
 .debug_frame   0x00000000000057d0       0x40 c:/program files/microchip/xc32/v4.00/bin/bin/../../lib/gcc/pic32mx/8.3.1/../../../../pic32mx/lib/fpu64\libc-musl.a(__fmt_x.o)
 .debug_frame   0x0000000000005810       0xcc c:/program files/microchip/xc32/v4.00/bin/bin/../../lib/gcc/pic32mx/8.3.1/../../../../pic32mx/lib/fpu64\libc-musl.a(__printf_core.o)
 .debug_frame   0x00000000000058dc       0x3c c:/program files/microchip/xc32/v4.00/bin/bin/../../lib/gcc/pic32mx/8.3.1/../../../../pic32mx/lib/fpu64\libc-musl.a(stdin.o)
 .debug_frame   0x0000000000005918       0x3c c:/program files/microchip/xc32/v4.00/bin/bin/../../lib/gcc/pic32mx/8.3.1/../../../../pic32mx/lib/fpu64\libc-musl.a(stdout.o)
 .debug_frame   0x0000000000005954       0x2c c:/program files/microchip/xc32/v4.00/bin/bin/../../lib/gcc/pic32mx/8.3.1/../../../../pic32mx/lib/fpu64\libc-musl.a(setbuf.o)
 .debug_frame   0x0000000000005980       0x20 c:/program files/microchip/xc32/v4.00/bin/bin/../../lib/gcc/pic32mx/8.3.1/../../../../pic32mx/lib/fpu64\libc-musl.a(atoi.o)
 .debug_frame   0x00000000000059a0       0x20 c:/program files/microchip/xc32/v4.00/bin/bin/../../lib/gcc/pic32mx/8.3.1/../../../../pic32mx/lib/fpu64\libc-musl.a(memmove.o)
 .debug_frame   0x00000000000059c0       0x20 c:/program files/microchip/xc32/v4.00/bin/bin/../../lib/gcc/pic32mx/8.3.1/../../../../pic32mx/lib/fpu64\libc-musl.a(strncmp.o)
 .debug_frame   0x00000000000059e0       0x2c c:/program files/microchip/xc32/v4.00/bin/bin/../../lib/gcc/pic32mx/8.3.1/../../../../pic32mx/lib/fpu64\libc-musl.a(strncpy.o)
 .debug_frame   0x0000000000005a0c       0x3c c:/program files/microchip/xc32/v4.00/bin/bin/../../lib/gcc/pic32mx/8.3.1/../../../../pic32mx/lib/fpu64\libc-musl.a(tolower.o)
 .debug_frame   0x0000000000005a48       0x3c c:/program files/microchip/xc32/v4.00/bin/bin/../../lib/gcc/pic32mx/8.3.1/../../../../pic32mx/lib/fpu64\libc-musl.a(toupper.o)
 .debug_frame   0x0000000000005a84       0x2c c:/program files/microchip/xc32/v4.00/bin/bin/../../lib/gcc/pic32mx/8.3.1/../../../../pic32mx/lib/fpu64\libc-musl.a(__int_vsprintf.o)
 .debug_frame   0x0000000000005ab0       0x58 c:/program files/microchip/xc32/v4.00/bin/bin/../../lib/gcc/pic32mx/8.3.1/../../../../pic32mx/lib/fpu64\libc-musl.a(__fopen.o)
 .debug_frame   0x0000000000005b08       0x48 c:/program files/microchip/xc32/v4.00/bin/bin/../../lib/gcc/pic32mx/8.3.1/../../../../pic32mx/lib/fpu64\libc-musl.a(__io_init_needed.o)
 .debug_frame   0x0000000000005b50       0x2c c:/program files/microchip/xc32/v4.00/bin/bin/../../lib/gcc/pic32mx/8.3.1/../../../../pic32mx/lib/fpu64\libc-musl.a(__io_rw_needed.o)
 .debug_frame   0x0000000000005b7c       0x50 c:/program files/microchip/xc32/v4.00/bin/bin/../../lib/gcc/pic32mx/8.3.1/../../../../pic32mx/lib/fpu64\libc-musl.a(__out.o)
 .debug_frame   0x0000000000005bcc       0x20 c:/program files/microchip/xc32/v4.00/bin/bin/../../lib/gcc/pic32mx/8.3.1/../../../../pic32mx/lib/fpu64\libc-musl.a(__pop_float.o)
 .debug_frame   0x0000000000005bec       0x20 c:/program files/microchip/xc32/v4.00/bin/bin/../../lib/gcc/pic32mx/8.3.1/../../../../pic32mx/lib/fpu64\libc-musl.a(__pop_int.o)
 .debug_frame   0x0000000000005c0c       0x20 c:/program files/microchip/xc32/v4.00/bin/bin/../../lib/gcc/pic32mx/8.3.1/../../../../pic32mx/lib/fpu64\libc-musl.a(__pop_ptr.o)
 .debug_frame   0x0000000000005c2c       0x50 c:/program files/microchip/xc32/v4.00/bin/bin/../../lib/gcc/pic32mx/8.3.1/../../../../pic32mx/lib/fpu64\libc-musl.a(__stdio_close.o)
 .debug_frame   0x0000000000005c7c       0x34 c:/program files/microchip/xc32/v4.00/bin/bin/../../lib/gcc/pic32mx/8.3.1/../../../../pic32mx/lib/fpu64\libc-musl.a(__stdio_read.o)
 .debug_frame   0x0000000000005cb0       0x20 c:/program files/microchip/xc32/v4.00/bin/bin/../../lib/gcc/pic32mx/8.3.1/../../../../pic32mx/lib/fpu64\libc-musl.a(__towrite_rw.o)
 .debug_frame   0x0000000000005cd0       0x50 c:/program files/microchip/xc32/v4.00/bin/bin/../../lib/gcc/pic32mx/8.3.1/../../../../pic32mx/lib/fpu64\libc-musl.a(setvbuf.o)
 .debug_frame   0x0000000000005d20       0x20 c:/program files/microchip/xc32/v4.00/bin/bin/../../lib/gcc/pic32mx/8.3.1/../../../../pic32mx/lib/fpu64\libc-musl.a(stpncpy.o)
 .debug_frame   0x0000000000005d40       0x38 c:/program files/microchip/xc32/v4.00/bin/bin/../../lib/gcc/pic32mx/8.3.1/../../../../pic32mx/lib/fpu64\libc-musl.a(readv.o)
 .debug_frame   0x0000000000005d78      0x168 c:/program files/microchip/xc32/v4.00/bin/bin/../../lib/gcc/pic32mx/8.3.1/../../../../pic32mx/lib/fpu64\libc-musl.a(malloc.o)
 .debug_frame   0x0000000000005ee0       0x2c c:/program files/microchip/xc32/v4.00/bin/bin/../../lib/gcc/pic32mx/8.3.1/../../../../pic32mx/lib/fpu64\libc-musl.a(expand_heap.o)
 .debug_frame   0x0000000000005f0c       0x2c c:/program files/microchip/xc32/v4.00/bin/bin/../../lib/gcc/pic32mx/8.3.1/../../../../pic32mx/lib/fpu64\libc-musl.a(__int_vsnprintf.o)
 .debug_frame   0x0000000000005f38       0x2c c:/program files/microchip/xc32/v4.00/bin/bin/../../lib/gcc/pic32mx/8.3.1/../../../../pic32mx/lib/fpu64\libc-musl.a(__fopen_rw.o)
 .debug_frame   0x0000000000005f64       0x20 c:/program files/microchip/xc32/v4.00/bin/bin/../../lib/gcc/pic32mx/8.3.1/../../../../pic32mx/lib/fpu64\libc-musl.a(__ftello_rw.o)
 .debug_frame   0x0000000000005f84       0x3c c:/program files/microchip/xc32/v4.00/bin/bin/../../lib/gcc/pic32mx/8.3.1/../../../../pic32mx/lib/fpu64\libc-musl.a(__init_stdio.o)
 .debug_frame   0x0000000000005fc0       0x2c c:/program files/microchip/xc32/v4.00/bin/bin/../../lib/gcc/pic32mx/8.3.1/../../../../pic32mx/lib/fpu64\libc-musl.a(__io_buf_needed.o)
 .debug_frame   0x0000000000005fec       0x2c c:/program files/microchip/xc32/v4.00/bin/bin/../../lib/gcc/pic32mx/8.3.1/../../../../pic32mx/lib/fpu64\libc-musl.a(__io_file_needed.o)
 .debug_frame   0x0000000000006018       0x2c c:/program files/microchip/xc32/v4.00/bin/bin/../../lib/gcc/pic32mx/8.3.1/../../../../pic32mx/lib/fpu64\libc-musl.a(__io_std_needed.o)
 .debug_frame   0x0000000000006044       0x2c c:/program files/microchip/xc32/v4.00/bin/bin/../../lib/gcc/pic32mx/8.3.1/../../../../pic32mx/lib/fpu64\libc-musl.a(__putc.o)
 .debug_frame   0x0000000000006070       0x4c c:/program files/microchip/xc32/v4.00/bin/bin/../../lib/gcc/pic32mx/8.3.1/../../../../pic32mx/lib/fpu64\libc-musl.a(__stderr.o)
 .debug_frame   0x00000000000060bc       0x4c c:/program files/microchip/xc32/v4.00/bin/bin/../../lib/gcc/pic32mx/8.3.1/../../../../pic32mx/lib/fpu64\libc-musl.a(__stdio_exit.o)
 .debug_frame   0x0000000000006108       0x5c c:/program files/microchip/xc32/v4.00/bin/bin/../../lib/gcc/pic32mx/8.3.1/../../../../pic32mx/lib/fpu64\libc-musl.a(__stdio_write.o)
 .debug_frame   0x0000000000006164       0x4c c:/program files/microchip/xc32/v4.00/bin/bin/../../lib/gcc/pic32mx/8.3.1/../../../../pic32mx/lib/fpu64\libc-musl.a(__stdout.o)
 .debug_frame   0x00000000000061b0       0x3c c:/program files/microchip/xc32/v4.00/bin/bin/../../lib/gcc/pic32mx/8.3.1/../../../../pic32mx/lib/fpu64\libc-musl.a(__towrite.o)
 .debug_frame   0x00000000000061ec       0x64 c:/program files/microchip/xc32/v4.00/bin/bin/../../lib/gcc/pic32mx/8.3.1/../../../../pic32mx/lib/fpu64\libc-musl.a(putc.o)
 .debug_frame   0x0000000000006250       0x2c c:/program files/microchip/xc32/v4.00/bin/bin/../../lib/gcc/pic32mx/8.3.1/../../../../pic32mx/lib/fpu64\libc-musl.a(read.o)
 .debug_frame   0x000000000000627c       0x38 c:/program files/microchip/xc32/v4.00/bin/bin/../../lib/gcc/pic32mx/8.3.1/../../../../pic32mx/lib/fpu64\libc-musl.a(writev.o)
 .debug_frame   0x00000000000062b4       0x20 c:/program files/microchip/xc32/v4.00/bin/bin/../../lib/gcc/pic32mx/8.3.1/../../../../pic32mx/lib/fpu64\libc-musl.a(syscall_ret.o)
 .debug_frame   0x00000000000062d4       0x2c c:/program files/microchip/xc32/v4.00/bin/bin/../../lib/gcc/pic32mx/8.3.1/../../../../pic32mx/lib/fpu64\libc-musl.a(__int_vfprintf.o)
 .debug_frame   0x0000000000006300       0x30 c:/program files/microchip/xc32/v4.00/bin/bin/../../lib/gcc/pic32mx/8.3.1/../../../../pic32mx/lib/fpu64\libc-musl.a(__overflow.o)
 .debug_frame   0x0000000000006330       0x2c c:/program files/microchip/xc32/v4.00/bin/bin/../../lib/gcc/pic32mx/8.3.1/../../../../pic32mx/lib/fpu64\libc-musl.a(__fclose.o)
 .debug_frame   0x000000000000635c       0x2c c:/program files/microchip/xc32/v4.00/bin/bin/../../lib/gcc/pic32mx/8.3.1/../../../../pic32mx/lib/fpu64\libc-musl.a(__fseeko.o)
 .debug_frame   0x0000000000006388       0x3c c:/program files/microchip/xc32/v4.00/bin/bin/../../lib/gcc/pic32mx/8.3.1/../../../../pic32mx/lib/fpu64\libc-musl.a(__ftello.o)
 .debug_frame   0x00000000000063c4       0x48 c:/program files/microchip/xc32/v4.00/bin/bin/../../lib/gcc/pic32mx/8.3.1/../../../../pic32mx/lib/fpu64\libc-musl.a(__fwrite.o)
 .debug_frame   0x000000000000640c       0x98 c:/program files/microchip/xc32/v4.00/bin/bin/../../lib/gcc/pic32mx/8.3.1/../../../../pic32mx/lib/fpu64\libpic32.a(sbrk.o)
 .debug_frame   0x00000000000064a4       0x34 c:/program files/microchip/xc32/v4.00/bin/bin/../../lib/gcc/pic32mx/8.3.1/../../../../pic32mx/lib/fpu64\libpic32.a(write.o)
 .debug_frame   0x00000000000064d8       0x20 c:/program files/microchip/xc32/v4.00/bin/bin/../../lib/gcc/pic32mx/8.3.1/../../../../pic32mx/lib/fpu64\libpic32.a(lseek.o)
 .debug_frame   0x00000000000064f8       0x20 c:/program files/microchip/xc32/v4.00/bin/bin/../../lib/gcc/pic32mx/8.3.1/../../../../pic32mx/lib/fpu64\libpic32.a(close.o)
 .debug_frame   0x0000000000006518       0x20 c:/program files/microchip/xc32/v4.00/bin/bin/../../lib/gcc/pic32mx/8.3.1/fpu64\libgcc.a(_lshrdi3.o)
 .debug_frame   0x0000000000006538       0x20 c:/program files/microchip/xc32/v4.00/bin/bin/../../lib/gcc/pic32mx/8.3.1/fpu64\libgcc.a(_ashldi3.o)
 .debug_frame   0x0000000000006558       0x20 c:/program files/microchip/xc32/v4.00/bin/bin/../../lib/gcc/pic32mx/8.3.1/fpu64\libgcc.a(_umoddi3.o)

.debug_str      0x0000000000000000   0x475bd8
 *.elf(.debug_str)
 *(.debug_str)
 .debug_str     0x0000000000000000    0x1a7fb build/pic32mz/production/_ext/757013429/drv_sdspi.o
 .debug_str     0x000000000001a7fb    0x19de6 build/pic32mz/production/_ext/757013429/drv_sdspi_driver_interface.o
 .debug_str     0x00000000000345e1    0x17baf build/pic32mz/production/_ext/757013429/drv_sdspi_file_system.o
 .debug_str     0x000000000004c190    0x1a6e5 build/pic32mz/production/_ext/2120450970/drv_spi.o
 .debug_str     0x0000000000066875    0x1b9f3 build/pic32mz/production/_ext/1783409726/drv_usbhs.o
 .debug_str     0x0000000000082268    0x1cafe build/pic32mz/production/_ext/1783409726/drv_usbhs_device.o
 .debug_str     0x000000000009ed66    0x17a9a build/pic32mz/production/_ext/1640642171/plib_cache.o
 .debug_str     0x00000000000b6800       0x85 build/pic32mz/production/_ext/1640642171/plib_cache_pic32mz.o
 .debug_str     0x00000000000b6885    0x1763b build/pic32mz/production/_ext/10646107/plib_clk.o
 .debug_str     0x00000000000cdec0    0x17779 build/pic32mz/production/_ext/809018751/plib_coretimer.o
 .debug_str     0x00000000000e5639    0x188ea build/pic32mz/production/_ext/330098546/plib_evic.o
 .debug_str     0x00000000000fdf23    0x17f4f build/pic32mz/production/_ext/330152374/plib_gpio.o
 .debug_str     0x0000000000115e72    0x179c8 build/pic32mz/production/_ext/249272802/plib_i2c2_master.o
 .debug_str     0x000000000012d83a    0x179c8 build/pic32mz/production/_ext/249272802/plib_i2c4_master.o
 .debug_str     0x0000000000145202    0x17980 build/pic32mz/production/_ext/867254719/plib_spi4_master.o
 .debug_str     0x000000000015cb82    0x17980 build/pic32mz/production/_ext/867254719/plib_spi2_master.o
 .debug_str     0x0000000000174502    0x17980 build/pic32mz/production/_ext/867254719/plib_spi1_master.o
 .debug_str     0x000000000018be82    0x17747 build/pic32mz/production/_ext/10662482/plib_tmr2.o
 .debug_str     0x00000000001a35c9    0x1792a build/pic32mz/production/_ext/330555317/plib_uart5.o
 .debug_str     0x00000000001baef3    0x17a39 build/pic32mz/production/_ext/330555317/plib_uart6.o
 .debug_str     0x00000000001d292c    0x17a39 build/pic32mz/production/_ext/330555317/plib_uart3.o
 .debug_str     0x00000000001ea365    0x17a39 build/pic32mz/production/_ext/330555317/plib_uart4.o
 .debug_str     0x0000000000201d9e    0x17a39 build/pic32mz/production/_ext/330555317/plib_uart1.o
 .debug_str     0x00000000002197d7    0x17a39 build/pic32mz/production/_ext/330555317/plib_uart2.o
 .debug_str     0x0000000000231210    0x1a179 build/pic32mz/production/_ext/1991269565/xc32_monitor.o
 .debug_str     0x000000000024b389    0x1788f build/pic32mz/production/_ext/1519118610/sys_cache.o
 .debug_str     0x0000000000262c18      0x60a build/pic32mz/production/_ext/1373644956/sys_dma.o
 .debug_str     0x0000000000263222    0x17e61 build/pic32mz/production/_ext/1192657380/ff.o
 .debug_str     0x000000000027b083    0x17694 build/pic32mz/production/_ext/1192657380/ffunicode.o
 .debug_str     0x0000000000292717    0x17ce4 build/pic32mz/production/_ext/727274963/diskio.o
 .debug_str     0x00000000002aa3fb    0x18665 build/pic32mz/production/_ext/252936118/sys_fs.o
 .debug_str     0x00000000002c2a60    0x184d5 build/pic32mz/production/_ext/252936118/sys_fs_media_manager.o
 .debug_str     0x00000000002daf35    0x17d8f build/pic32mz/production/_ext/252936118/sys_fs_fat_interface.o
 .debug_str     0x00000000002f2cc4    0x188db build/pic32mz/production/_ext/1832149040/sys_int.o
 .debug_str     0x000000000030b59f    0x192a2 build/pic32mz/production/_ext/1636986698/sys_time.o
 .debug_str     0x0000000000324841    0x1b1f1 build/pic32mz/production/_ext/202551283/usb_device.o
 .debug_str     0x000000000033fa32    0x19857 build/pic32mz/production/_ext/202551283/usb_device_cdc.o
 .debug_str     0x0000000000359289    0x1844d build/pic32mz/production/_ext/202551283/usb_device_cdc_acm.o
 .debug_str     0x00000000003716d6    0x1abb9 build/pic32mz/production/_ext/953055421/usb_device_init_data.o
 .debug_str     0x000000000038c28f    0x1a182 build/pic32mz/production/_ext/953055421/tasks.o
 .debug_str     0x00000000003a6411    0x1bf01 build/pic32mz/production/_ext/953055421/initialization.o
 .debug_str     0x00000000003c2312    0x1a66c build/pic32mz/production/_ext/953055421/interrupts.o
 .debug_str     0x00000000003dc97e    0x1a4d4 build/pic32mz/production/_ext/953055421/exceptions.o
 .debug_str     0x00000000003f6e52    0x1a863 build/pic32mz/production/_ext/1360937237/app.o
 .debug_str     0x00000000004116b5    0x1a13e build/pic32mz/production/_ext/1360937237/main.o
 .debug_str     0x000000000042b7f3    0x1a61c build/pic32mz/production/_ext/1360937237/communication.o
 .debug_str     0x0000000000445e0f    0x1a922 build/pic32mz/production/_ext/1360937237/mdot.o
 .debug_str     0x0000000000460731      0x5e1 build/pic32mz/production/_ext/1360937237/stringbuffer.o
 .debug_str     0x0000000000460d12      0x552 c:/program files/microchip/xc32/v4.00/bin/bin/../../lib/gcc/pic32mx/8.3.1/fpu64\libgcc.a(_udivdi3.o)
 .debug_str     0x0000000000461264      0x39a c:/program files/microchip/xc32/v4.00/bin/bin/../../lib/gcc/pic32mx/8.3.1/../../../../pic32mx/lib/fpu64\libpic32.a(default-on-reset.o)
 .debug_str     0x00000000004615fe      0x3a2 c:/program files/microchip/xc32/v4.00/bin/bin/../../lib/gcc/pic32mx/8.3.1/../../../../pic32mx/lib/fpu64\libpic32.a(default-on-bootstrap.o)
 .debug_str     0x00000000004619a0      0x3b4 c:/program files/microchip/xc32/v4.00/bin/bin/../../lib/gcc/pic32mx/8.3.1/../../../../pic32mx/lib/fpu64\libpic32.a(defaultinterrupt.o)
 .debug_str     0x0000000000461d54      0x559 c:/program files/microchip/xc32/v4.00/bin/bin/../../lib/gcc/pic32mx/8.3.1/../../../../pic32mx/lib/fpu64\libc-musl.a(__sio_sprintf_dosux.o)
 .debug_str     0x00000000004622ad      0x537 c:/program files/microchip/xc32/v4.00/bin/bin/../../lib/gcc/pic32mx/8.3.1/../../../../pic32mx/lib/fpu64\libc-musl.a(__fmt_d.o)
 .debug_str     0x00000000004627e4      0x537 c:/program files/microchip/xc32/v4.00/bin/bin/../../lib/gcc/pic32mx/8.3.1/../../../../pic32mx/lib/fpu64\libc-musl.a(__fmt_o.o)
 .debug_str     0x0000000000462d1b      0x523 c:/program files/microchip/xc32/v4.00/bin/bin/../../lib/gcc/pic32mx/8.3.1/../../../../pic32mx/lib/fpu64\libc-musl.a(__fmt_s.o)
 .debug_str     0x000000000046323e      0x53c c:/program files/microchip/xc32/v4.00/bin/bin/../../lib/gcc/pic32mx/8.3.1/../../../../pic32mx/lib/fpu64\libc-musl.a(__fmt_u.o)
 .debug_str     0x000000000046377a      0x537 c:/program files/microchip/xc32/v4.00/bin/bin/../../lib/gcc/pic32mx/8.3.1/../../../../pic32mx/lib/fpu64\libc-musl.a(__fmt_x.o)
 .debug_str     0x0000000000463cb1      0x614 c:/program files/microchip/xc32/v4.00/bin/bin/../../lib/gcc/pic32mx/8.3.1/../../../../pic32mx/lib/fpu64\libc-musl.a(__printf_core.o)
 .debug_str     0x00000000004642c5      0x58c c:/program files/microchip/xc32/v4.00/bin/bin/../../lib/gcc/pic32mx/8.3.1/../../../../pic32mx/lib/fpu64\libc-musl.a(stdin.o)
 .debug_str     0x0000000000464851      0x5a0 c:/program files/microchip/xc32/v4.00/bin/bin/../../lib/gcc/pic32mx/8.3.1/../../../../pic32mx/lib/fpu64\libc-musl.a(stdout.o)
 .debug_str     0x0000000000464df1      0x375 c:/program files/microchip/xc32/v4.00/bin/bin/../../lib/gcc/pic32mx/8.3.1/../../../../pic32mx/lib/fpu64\libc-musl.a(setbuf.o)
 .debug_str     0x0000000000465166      0x351 c:/program files/microchip/xc32/v4.00/bin/bin/../../lib/gcc/pic32mx/8.3.1/../../../../pic32mx/lib/fpu64\libc-musl.a(atoi.o)
 .debug_str     0x00000000004654b7      0x35d c:/program files/microchip/xc32/v4.00/bin/bin/../../lib/gcc/pic32mx/8.3.1/../../../../pic32mx/lib/fpu64\libc-musl.a(memmove.o)
 .debug_str     0x0000000000465814      0x34b c:/program files/microchip/xc32/v4.00/bin/bin/../../lib/gcc/pic32mx/8.3.1/../../../../pic32mx/lib/fpu64\libc-musl.a(strncmp.o)
 .debug_str     0x0000000000465b5f      0x347 c:/program files/microchip/xc32/v4.00/bin/bin/../../lib/gcc/pic32mx/8.3.1/../../../../pic32mx/lib/fpu64\libc-musl.a(strncpy.o)
 .debug_str     0x0000000000465ea6      0x487 c:/program files/microchip/xc32/v4.00/bin/bin/../../lib/gcc/pic32mx/8.3.1/../../../../pic32mx/lib/fpu64\libc-musl.a(tolower.o)
 .debug_str     0x000000000046632d      0x487 c:/program files/microchip/xc32/v4.00/bin/bin/../../lib/gcc/pic32mx/8.3.1/../../../../pic32mx/lib/fpu64\libc-musl.a(toupper.o)
 .debug_str     0x00000000004667b4      0x4f2 c:/program files/microchip/xc32/v4.00/bin/bin/../../lib/gcc/pic32mx/8.3.1/../../../../pic32mx/lib/fpu64\libc-musl.a(__int_vsprintf.o)
 .debug_str     0x0000000000466ca6      0x546 c:/program files/microchip/xc32/v4.00/bin/bin/../../lib/gcc/pic32mx/8.3.1/../../../../pic32mx/lib/fpu64\libc-musl.a(__fopen.o)
 .debug_str     0x00000000004671ec      0x59c c:/program files/microchip/xc32/v4.00/bin/bin/../../lib/gcc/pic32mx/8.3.1/../../../../pic32mx/lib/fpu64\libc-musl.a(__io_init_needed.o)
 .debug_str     0x0000000000467788      0x5ab c:/program files/microchip/xc32/v4.00/bin/bin/../../lib/gcc/pic32mx/8.3.1/../../../../pic32mx/lib/fpu64\libc-musl.a(__io_rw_needed.o)
 .debug_str     0x0000000000467d33      0x52a c:/program files/microchip/xc32/v4.00/bin/bin/../../lib/gcc/pic32mx/8.3.1/../../../../pic32mx/lib/fpu64\libc-musl.a(__out.o)
 .debug_str     0x000000000046825d      0x526 c:/program files/microchip/xc32/v4.00/bin/bin/../../lib/gcc/pic32mx/8.3.1/../../../../pic32mx/lib/fpu64\libc-musl.a(__pop_float.o)
 .debug_str     0x0000000000468783      0x531 c:/program files/microchip/xc32/v4.00/bin/bin/../../lib/gcc/pic32mx/8.3.1/../../../../pic32mx/lib/fpu64\libc-musl.a(__pop_int.o)
 .debug_str     0x0000000000468cb4      0x52c c:/program files/microchip/xc32/v4.00/bin/bin/../../lib/gcc/pic32mx/8.3.1/../../../../pic32mx/lib/fpu64\libc-musl.a(__pop_ptr.o)
 .debug_str     0x00000000004691e0      0x596 c:/program files/microchip/xc32/v4.00/bin/bin/../../lib/gcc/pic32mx/8.3.1/../../../../pic32mx/lib/fpu64\libc-musl.a(__stdio_close.o)
 .debug_str     0x0000000000469776      0x59b c:/program files/microchip/xc32/v4.00/bin/bin/../../lib/gcc/pic32mx/8.3.1/../../../../pic32mx/lib/fpu64\libc-musl.a(__stdio_read.o)
 .debug_str     0x0000000000469d11      0x55a c:/program files/microchip/xc32/v4.00/bin/bin/../../lib/gcc/pic32mx/8.3.1/../../../../pic32mx/lib/fpu64\libc-musl.a(__towrite_rw.o)
 .debug_str     0x000000000046a26b      0x547 c:/program files/microchip/xc32/v4.00/bin/bin/../../lib/gcc/pic32mx/8.3.1/../../../../pic32mx/lib/fpu64\libc-musl.a(setvbuf.o)
 .debug_str     0x000000000046a7b2      0x480 c:/program files/microchip/xc32/v4.00/bin/bin/../../lib/gcc/pic32mx/8.3.1/../../../../pic32mx/lib/fpu64\libc-musl.a(stpncpy.o)
 .debug_str     0x000000000046ac32      0x4bc c:/program files/microchip/xc32/v4.00/bin/bin/../../lib/gcc/pic32mx/8.3.1/../../../../pic32mx/lib/fpu64\libc-musl.a(readv.o)
 .debug_str     0x000000000046b0ee      0x62c c:/program files/microchip/xc32/v4.00/bin/bin/../../lib/gcc/pic32mx/8.3.1/../../../../pic32mx/lib/fpu64\libc-musl.a(malloc.o)
 .debug_str     0x000000000046b71a      0x4ed c:/program files/microchip/xc32/v4.00/bin/bin/../../lib/gcc/pic32mx/8.3.1/../../../../pic32mx/lib/fpu64\libc-musl.a(expand_heap.o)
 .debug_str     0x000000000046bc07      0x525 c:/program files/microchip/xc32/v4.00/bin/bin/../../lib/gcc/pic32mx/8.3.1/../../../../pic32mx/lib/fpu64\libc-musl.a(__int_vsnprintf.o)
 .debug_str     0x000000000046c12c      0x59c c:/program files/microchip/xc32/v4.00/bin/bin/../../lib/gcc/pic32mx/8.3.1/../../../../pic32mx/lib/fpu64\libc-musl.a(__fopen_rw.o)
 .debug_str     0x000000000046c6c8      0x57e c:/program files/microchip/xc32/v4.00/bin/bin/../../lib/gcc/pic32mx/8.3.1/../../../../pic32mx/lib/fpu64\libc-musl.a(__ftello_rw.o)
 .debug_str     0x000000000046cc46      0x562 c:/program files/microchip/xc32/v4.00/bin/bin/../../lib/gcc/pic32mx/8.3.1/../../../../pic32mx/lib/fpu64\libc-musl.a(__init_stdio.o)
 .debug_str     0x000000000046d1a8      0x5d7 c:/program files/microchip/xc32/v4.00/bin/bin/../../lib/gcc/pic32mx/8.3.1/../../../../pic32mx/lib/fpu64\libc-musl.a(__io_buf_needed.o)
 .debug_str     0x000000000046d77f      0x56f c:/program files/microchip/xc32/v4.00/bin/bin/../../lib/gcc/pic32mx/8.3.1/../../../../pic32mx/lib/fpu64\libc-musl.a(__io_file_needed.o)
 .debug_str     0x000000000046dcee      0x5cb c:/program files/microchip/xc32/v4.00/bin/bin/../../lib/gcc/pic32mx/8.3.1/../../../../pic32mx/lib/fpu64\libc-musl.a(__io_std_needed.o)
 .debug_str     0x000000000046e2b9      0x532 c:/program files/microchip/xc32/v4.00/bin/bin/../../lib/gcc/pic32mx/8.3.1/../../../../pic32mx/lib/fpu64\libc-musl.a(__putc.o)
 .debug_str     0x000000000046e7eb      0x58a c:/program files/microchip/xc32/v4.00/bin/bin/../../lib/gcc/pic32mx/8.3.1/../../../../pic32mx/lib/fpu64\libc-musl.a(__stderr.o)
 .debug_str     0x000000000046ed75      0x566 c:/program files/microchip/xc32/v4.00/bin/bin/../../lib/gcc/pic32mx/8.3.1/../../../../pic32mx/lib/fpu64\libc-musl.a(__stdio_exit.o)
 .debug_str     0x000000000046f2db      0x59c c:/program files/microchip/xc32/v4.00/bin/bin/../../lib/gcc/pic32mx/8.3.1/../../../../pic32mx/lib/fpu64\libc-musl.a(__stdio_write.o)
 .debug_str     0x000000000046f877      0x58a c:/program files/microchip/xc32/v4.00/bin/bin/../../lib/gcc/pic32mx/8.3.1/../../../../pic32mx/lib/fpu64\libc-musl.a(__stdout.o)
 .debug_str     0x000000000046fe01      0x523 c:/program files/microchip/xc32/v4.00/bin/bin/../../lib/gcc/pic32mx/8.3.1/../../../../pic32mx/lib/fpu64\libc-musl.a(__towrite.o)
 .debug_str     0x0000000000470324      0x53a c:/program files/microchip/xc32/v4.00/bin/bin/../../lib/gcc/pic32mx/8.3.1/../../../../pic32mx/lib/fpu64\libc-musl.a(putc.o)
 .debug_str     0x000000000047085e      0x4c1 c:/program files/microchip/xc32/v4.00/bin/bin/../../lib/gcc/pic32mx/8.3.1/../../../../pic32mx/lib/fpu64\libc-musl.a(read.o)
 .debug_str     0x0000000000470d1f      0x4bf c:/program files/microchip/xc32/v4.00/bin/bin/../../lib/gcc/pic32mx/8.3.1/../../../../pic32mx/lib/fpu64\libc-musl.a(writev.o)
 .debug_str     0x00000000004711de      0x4a0 c:/program files/microchip/xc32/v4.00/bin/bin/../../lib/gcc/pic32mx/8.3.1/../../../../pic32mx/lib/fpu64\libc-musl.a(libc.o)
 .debug_str     0x000000000047167e      0x497 c:/program files/microchip/xc32/v4.00/bin/bin/../../lib/gcc/pic32mx/8.3.1/../../../../pic32mx/lib/fpu64\libc-musl.a(syscall_ret.o)
 .debug_str     0x0000000000471b15      0x52e c:/program files/microchip/xc32/v4.00/bin/bin/../../lib/gcc/pic32mx/8.3.1/../../../../pic32mx/lib/fpu64\libc-musl.a(__int_vfprintf.o)
 .debug_str     0x0000000000472043      0x55b c:/program files/microchip/xc32/v4.00/bin/bin/../../lib/gcc/pic32mx/8.3.1/../../../../pic32mx/lib/fpu64\libc-musl.a(__overflow.o)
 .debug_str     0x000000000047259e      0x503 c:/program files/microchip/xc32/v4.00/bin/bin/../../lib/gcc/pic32mx/8.3.1/../../../../pic32mx/lib/fpu64\libc-musl.a(__fclose.o)
 .debug_str     0x0000000000472aa1      0x53c c:/program files/microchip/xc32/v4.00/bin/bin/../../lib/gcc/pic32mx/8.3.1/../../../../pic32mx/lib/fpu64\libc-musl.a(__fseeko.o)
 .debug_str     0x0000000000472fdd      0x547 c:/program files/microchip/xc32/v4.00/bin/bin/../../lib/gcc/pic32mx/8.3.1/../../../../pic32mx/lib/fpu64\libc-musl.a(__ftello.o)
 .debug_str     0x0000000000473524      0x558 c:/program files/microchip/xc32/v4.00/bin/bin/../../lib/gcc/pic32mx/8.3.1/../../../../pic32mx/lib/fpu64\libc-musl.a(__fwrite.o)
 .debug_str     0x0000000000473a7c      0x3ba c:/program files/microchip/xc32/v4.00/bin/bin/../../lib/gcc/pic32mx/8.3.1/../../../../pic32mx/lib/fpu64\libpic32.a(sbrk.o)
 .debug_str     0x0000000000473e36      0x38b c:/program files/microchip/xc32/v4.00/bin/bin/../../lib/gcc/pic32mx/8.3.1/../../../../pic32mx/lib/fpu64\libpic32.a(write.o)
 .debug_str     0x00000000004741c1      0x38b c:/program files/microchip/xc32/v4.00/bin/bin/../../lib/gcc/pic32mx/8.3.1/../../../../pic32mx/lib/fpu64\libpic32.a(lseek.o)
 .debug_str     0x000000000047454c      0x38b c:/program files/microchip/xc32/v4.00/bin/bin/../../lib/gcc/pic32mx/8.3.1/../../../../pic32mx/lib/fpu64\libpic32.a(close.o)
 .debug_str     0x00000000004748d7      0x385 c:/program files/microchip/xc32/v4.00/bin/bin/../../lib/gcc/pic32mx/8.3.1/../../../../pic32mx/lib/fpu64\libpic32.a(errno.o)
 .debug_str     0x0000000000474c5c      0x515 c:/program files/microchip/xc32/v4.00/bin/bin/../../lib/gcc/pic32mx/8.3.1/fpu64\libgcc.a(_lshrdi3.o)
 .debug_str     0x0000000000475171      0x515 c:/program files/microchip/xc32/v4.00/bin/bin/../../lib/gcc/pic32mx/8.3.1/fpu64\libgcc.a(_ashldi3.o)
 .debug_str     0x0000000000475686      0x552 c:/program files/microchip/xc32/v4.00/bin/bin/../../lib/gcc/pic32mx/8.3.1/fpu64\libgcc.a(_umoddi3.o)

.debug_loc      0x0000000000000000    0x2aaca
 *.elf(.debug_loc)
 *(.debug_loc)
 .debug_loc     0x0000000000000000     0x281c build/pic32mz/production/_ext/757013429/drv_sdspi.o
 .debug_loc     0x000000000000281c      0x772 build/pic32mz/production/_ext/757013429/drv_sdspi_driver_interface.o
 .debug_loc     0x0000000000002f8e       0x25 build/pic32mz/production/_ext/757013429/drv_sdspi_file_system.o
 .debug_loc     0x0000000000002fb3     0x188c build/pic32mz/production/_ext/2120450970/drv_spi.o
 .debug_loc     0x000000000000483f      0xbe7 build/pic32mz/production/_ext/1783409726/drv_usbhs.o
 .debug_loc     0x0000000000005426     0x6e60 build/pic32mz/production/_ext/1783409726/drv_usbhs_device.o
 .debug_loc     0x000000000000c286      0x284 build/pic32mz/production/_ext/1640642171/plib_cache.o
 .debug_loc     0x000000000000c50a       0xd1 build/pic32mz/production/_ext/809018751/plib_coretimer.o
 .debug_loc     0x000000000000c5db       0xc5 build/pic32mz/production/_ext/330098546/plib_evic.o
 .debug_loc     0x000000000000c6a0      0x41f build/pic32mz/production/_ext/330152374/plib_gpio.o
 .debug_loc     0x000000000000cabf       0xda build/pic32mz/production/_ext/249272802/plib_i2c2_master.o
 .debug_loc     0x000000000000cb99       0xda build/pic32mz/production/_ext/249272802/plib_i2c4_master.o
 .debug_loc     0x000000000000cc73      0x3f3 build/pic32mz/production/_ext/867254719/plib_spi4_master.o
 .debug_loc     0x000000000000d066      0x3f3 build/pic32mz/production/_ext/867254719/plib_spi2_master.o
 .debug_loc     0x000000000000d459      0x3f3 build/pic32mz/production/_ext/867254719/plib_spi1_master.o
 .debug_loc     0x000000000000d84c       0x16 build/pic32mz/production/_ext/10662482/plib_tmr2.o
 .debug_loc     0x000000000000d862      0x5c8 build/pic32mz/production/_ext/330555317/plib_uart5.o
 .debug_loc     0x000000000000de2a      0x3ec build/pic32mz/production/_ext/330555317/plib_uart6.o
 .debug_loc     0x000000000000e216      0x3ec build/pic32mz/production/_ext/330555317/plib_uart3.o
 .debug_loc     0x000000000000e602      0x3ec build/pic32mz/production/_ext/330555317/plib_uart4.o
 .debug_loc     0x000000000000e9ee      0x3ec build/pic32mz/production/_ext/330555317/plib_uart1.o
 .debug_loc     0x000000000000edda      0x3ec build/pic32mz/production/_ext/330555317/plib_uart2.o
 .debug_loc     0x000000000000f1c6       0x64 build/pic32mz/production/_ext/1991269565/xc32_monitor.o
 .debug_loc     0x000000000000f22a      0x17a build/pic32mz/production/_ext/1519118610/sys_cache.o
 .debug_loc     0x000000000000f3a4     0x8a5e build/pic32mz/production/_ext/1192657380/ff.o
 .debug_loc     0x0000000000017e02      0x2b2 build/pic32mz/production/_ext/1192657380/ffunicode.o
 .debug_loc     0x00000000000180b4      0x8b7 build/pic32mz/production/_ext/727274963/diskio.o
 .debug_loc     0x000000000001896b     0x471e build/pic32mz/production/_ext/252936118/sys_fs.o
 .debug_loc     0x000000000001d089     0x1415 build/pic32mz/production/_ext/252936118/sys_fs_media_manager.o
 .debug_loc     0x000000000001e49e     0x16dc build/pic32mz/production/_ext/252936118/sys_fs_fat_interface.o
 .debug_loc     0x000000000001fb7a       0xe8 build/pic32mz/production/_ext/1832149040/sys_int.o
 .debug_loc     0x000000000001fc62     0x1b87 build/pic32mz/production/_ext/1636986698/sys_time.o
 .debug_loc     0x00000000000217e9     0x2900 build/pic32mz/production/_ext/202551283/usb_device.o
 .debug_loc     0x00000000000240e9     0x1491 build/pic32mz/production/_ext/202551283/usb_device_cdc.o
 .debug_loc     0x000000000002557a      0x25a build/pic32mz/production/_ext/202551283/usb_device_cdc_acm.o
 .debug_loc     0x00000000000257d4       0x25 build/pic32mz/production/_ext/953055421/initialization.o
 .debug_loc     0x00000000000257f9       0xec build/pic32mz/production/_ext/1360937237/communication.o
 .debug_loc     0x00000000000258e5      0x622 build/pic32mz/production/_ext/1360937237/mdot.o
 .debug_loc     0x0000000000025f07      0x1f6 build/pic32mz/production/_ext/1360937237/stringbuffer.o
 .debug_loc     0x00000000000260fd      0xb5b c:/program files/microchip/xc32/v4.00/bin/bin/../../lib/gcc/pic32mx/8.3.1/fpu64\libgcc.a(_udivdi3.o)
 .debug_loc     0x0000000000026c58       0x5f c:/program files/microchip/xc32/v4.00/bin/bin/../../lib/gcc/pic32mx/8.3.1/../../../../pic32mx/lib/fpu64\libc-musl.a(__sio_sprintf_dosux.o)
 .debug_loc     0x0000000000026cb7      0x225 c:/program files/microchip/xc32/v4.00/bin/bin/../../lib/gcc/pic32mx/8.3.1/../../../../pic32mx/lib/fpu64\libc-musl.a(__fmt_d.o)
 .debug_loc     0x0000000000026edc       0xf2 c:/program files/microchip/xc32/v4.00/bin/bin/../../lib/gcc/pic32mx/8.3.1/../../../../pic32mx/lib/fpu64\libc-musl.a(__fmt_o.o)
 .debug_loc     0x0000000000026fce      0x11c c:/program files/microchip/xc32/v4.00/bin/bin/../../lib/gcc/pic32mx/8.3.1/../../../../pic32mx/lib/fpu64\libc-musl.a(__fmt_s.o)
 .debug_loc     0x00000000000270ea      0x2cb c:/program files/microchip/xc32/v4.00/bin/bin/../../lib/gcc/pic32mx/8.3.1/../../../../pic32mx/lib/fpu64\libc-musl.a(__fmt_u.o)
 .debug_loc     0x00000000000273b5      0x2a7 c:/program files/microchip/xc32/v4.00/bin/bin/../../lib/gcc/pic32mx/8.3.1/../../../../pic32mx/lib/fpu64\libc-musl.a(__fmt_x.o)
 .debug_loc     0x000000000002765c      0x556 c:/program files/microchip/xc32/v4.00/bin/bin/../../lib/gcc/pic32mx/8.3.1/../../../../pic32mx/lib/fpu64\libc-musl.a(__printf_core.o)
 .debug_loc     0x0000000000027bb2       0x4a c:/program files/microchip/xc32/v4.00/bin/bin/../../lib/gcc/pic32mx/8.3.1/../../../../pic32mx/lib/fpu64\libc-musl.a(setbuf.o)
 .debug_loc     0x0000000000027bfc       0xbe c:/program files/microchip/xc32/v4.00/bin/bin/../../lib/gcc/pic32mx/8.3.1/../../../../pic32mx/lib/fpu64\libc-musl.a(atoi.o)
 .debug_loc     0x0000000000027cba      0x23f c:/program files/microchip/xc32/v4.00/bin/bin/../../lib/gcc/pic32mx/8.3.1/../../../../pic32mx/lib/fpu64\libc-musl.a(memmove.o)
 .debug_loc     0x0000000000027ef9       0xec c:/program files/microchip/xc32/v4.00/bin/bin/../../lib/gcc/pic32mx/8.3.1/../../../../pic32mx/lib/fpu64\libc-musl.a(strncmp.o)
 .debug_loc     0x0000000000027fe5       0x79 c:/program files/microchip/xc32/v4.00/bin/bin/../../lib/gcc/pic32mx/8.3.1/../../../../pic32mx/lib/fpu64\libc-musl.a(strncpy.o)
 .debug_loc     0x000000000002805e       0x89 c:/program files/microchip/xc32/v4.00/bin/bin/../../lib/gcc/pic32mx/8.3.1/../../../../pic32mx/lib/fpu64\libc-musl.a(__int_vsprintf.o)
 .debug_loc     0x00000000000280e7       0x2f c:/program files/microchip/xc32/v4.00/bin/bin/../../lib/gcc/pic32mx/8.3.1/../../../../pic32mx/lib/fpu64\libc-musl.a(__fopen.o)
 .debug_loc     0x0000000000028116      0x1ab c:/program files/microchip/xc32/v4.00/bin/bin/../../lib/gcc/pic32mx/8.3.1/../../../../pic32mx/lib/fpu64\libc-musl.a(__out.o)
 .debug_loc     0x00000000000282c1       0x40 c:/program files/microchip/xc32/v4.00/bin/bin/../../lib/gcc/pic32mx/8.3.1/../../../../pic32mx/lib/fpu64\libc-musl.a(__pop_ptr.o)
 .debug_loc     0x0000000000028301      0x130 c:/program files/microchip/xc32/v4.00/bin/bin/../../lib/gcc/pic32mx/8.3.1/../../../../pic32mx/lib/fpu64\libc-musl.a(__stdio_close.o)
 .debug_loc     0x0000000000028431       0xe7 c:/program files/microchip/xc32/v4.00/bin/bin/../../lib/gcc/pic32mx/8.3.1/../../../../pic32mx/lib/fpu64\libc-musl.a(__stdio_read.o)
 .debug_loc     0x0000000000028518      0x15f c:/program files/microchip/xc32/v4.00/bin/bin/../../lib/gcc/pic32mx/8.3.1/../../../../pic32mx/lib/fpu64\libc-musl.a(setvbuf.o)
 .debug_loc     0x0000000000028677       0xea c:/program files/microchip/xc32/v4.00/bin/bin/../../lib/gcc/pic32mx/8.3.1/../../../../pic32mx/lib/fpu64\libc-musl.a(stpncpy.o)
 .debug_loc     0x0000000000028761      0x12c c:/program files/microchip/xc32/v4.00/bin/bin/../../lib/gcc/pic32mx/8.3.1/../../../../pic32mx/lib/fpu64\libc-musl.a(readv.o)
 .debug_loc     0x000000000002888d      0xbd3 c:/program files/microchip/xc32/v4.00/bin/bin/../../lib/gcc/pic32mx/8.3.1/../../../../pic32mx/lib/fpu64\libc-musl.a(malloc.o)
 .debug_loc     0x0000000000029460       0x4f c:/program files/microchip/xc32/v4.00/bin/bin/../../lib/gcc/pic32mx/8.3.1/../../../../pic32mx/lib/fpu64\libc-musl.a(expand_heap.o)
 .debug_loc     0x00000000000294af      0x113 c:/program files/microchip/xc32/v4.00/bin/bin/../../lib/gcc/pic32mx/8.3.1/../../../../pic32mx/lib/fpu64\libc-musl.a(__int_vsnprintf.o)
 .debug_loc     0x00000000000295c2       0x2f c:/program files/microchip/xc32/v4.00/bin/bin/../../lib/gcc/pic32mx/8.3.1/../../../../pic32mx/lib/fpu64\libc-musl.a(__fopen_rw.o)
 .debug_loc     0x00000000000295f1       0x25 c:/program files/microchip/xc32/v4.00/bin/bin/../../lib/gcc/pic32mx/8.3.1/../../../../pic32mx/lib/fpu64\libc-musl.a(__ftello_rw.o)
 .debug_loc     0x0000000000029616       0x9e c:/program files/microchip/xc32/v4.00/bin/bin/../../lib/gcc/pic32mx/8.3.1/../../../../pic32mx/lib/fpu64\libc-musl.a(__putc.o)
 .debug_loc     0x00000000000296b4      0x30e c:/program files/microchip/xc32/v4.00/bin/bin/../../lib/gcc/pic32mx/8.3.1/../../../../pic32mx/lib/fpu64\libc-musl.a(__stdio_write.o)
 .debug_loc     0x00000000000299c2       0x47 c:/program files/microchip/xc32/v4.00/bin/bin/../../lib/gcc/pic32mx/8.3.1/../../../../pic32mx/lib/fpu64\libc-musl.a(__towrite.o)
 .debug_loc     0x0000000000029a09       0xdb c:/program files/microchip/xc32/v4.00/bin/bin/../../lib/gcc/pic32mx/8.3.1/../../../../pic32mx/lib/fpu64\libc-musl.a(putc.o)
 .debug_loc     0x0000000000029ae4       0x6f c:/program files/microchip/xc32/v4.00/bin/bin/../../lib/gcc/pic32mx/8.3.1/../../../../pic32mx/lib/fpu64\libc-musl.a(read.o)
 .debug_loc     0x0000000000029b53      0x12c c:/program files/microchip/xc32/v4.00/bin/bin/../../lib/gcc/pic32mx/8.3.1/../../../../pic32mx/lib/fpu64\libc-musl.a(writev.o)
 .debug_loc     0x0000000000029c7f       0x9f c:/program files/microchip/xc32/v4.00/bin/bin/../../lib/gcc/pic32mx/8.3.1/../../../../pic32mx/lib/fpu64\libc-musl.a(__int_vfprintf.o)
 .debug_loc     0x0000000000029d1e       0x9b c:/program files/microchip/xc32/v4.00/bin/bin/../../lib/gcc/pic32mx/8.3.1/../../../../pic32mx/lib/fpu64\libc-musl.a(__overflow.o)
 .debug_loc     0x0000000000029db9       0x64 c:/program files/microchip/xc32/v4.00/bin/bin/../../lib/gcc/pic32mx/8.3.1/../../../../pic32mx/lib/fpu64\libc-musl.a(__fclose.o)
 .debug_loc     0x0000000000029e1d       0x75 c:/program files/microchip/xc32/v4.00/bin/bin/../../lib/gcc/pic32mx/8.3.1/../../../../pic32mx/lib/fpu64\libc-musl.a(__fseeko.o)
 .debug_loc     0x0000000000029e92       0x4a c:/program files/microchip/xc32/v4.00/bin/bin/../../lib/gcc/pic32mx/8.3.1/../../../../pic32mx/lib/fpu64\libc-musl.a(__ftello.o)
 .debug_loc     0x0000000000029edc       0xeb c:/program files/microchip/xc32/v4.00/bin/bin/../../lib/gcc/pic32mx/8.3.1/../../../../pic32mx/lib/fpu64\libc-musl.a(__fwrite.o)
 .debug_loc     0x0000000000029fc7       0x6c c:/program files/microchip/xc32/v4.00/bin/bin/../../lib/gcc/pic32mx/8.3.1/../../../../pic32mx/lib/fpu64\libpic32.a(sbrk.o)
 .debug_loc     0x000000000002a033       0x20 c:/program files/microchip/xc32/v4.00/bin/bin/../../lib/gcc/pic32mx/8.3.1/../../../../pic32mx/lib/fpu64\libpic32.a(write.o)
 .debug_loc     0x000000000002a053       0x99 c:/program files/microchip/xc32/v4.00/bin/bin/../../lib/gcc/pic32mx/8.3.1/fpu64\libgcc.a(_lshrdi3.o)
 .debug_loc     0x000000000002a0ec       0x75 c:/program files/microchip/xc32/v4.00/bin/bin/../../lib/gcc/pic32mx/8.3.1/fpu64\libgcc.a(_ashldi3.o)
 .debug_loc     0x000000000002a161      0x969 c:/program files/microchip/xc32/v4.00/bin/bin/../../lib/gcc/pic32mx/8.3.1/fpu64\libgcc.a(_umoddi3.o)

.debug_macinfo
 *.elf(.debug_macinfo)
 *(.debug_macinfo)

.debug_weaknames
 *.elf(.debug_weaknames)
 *(.debug_weaknames)

.debug_funcnames
 *.elf(.debug_funcnames)
 *(.debug_funcnames)

.debug_typenames
 *.elf(.debug_typenames)
 *(.debug_typenames)

.debug_varnames
 *.elf(.debug_varnames)
 *(.debug_varnames)

.debug_pubtypes
 *.elf(.debug_pubtypes)
 *(.debug_pubtypes)

.debug_ranges   0x0000000000000000     0x3c80
 *.elf(.debug_ranges)
 *(.debug_ranges)
 .debug_ranges  0x0000000000000000      0x818 build/pic32mz/production/_ext/757013429/drv_sdspi.o
 .debug_ranges  0x0000000000000818       0x80 build/pic32mz/production/_ext/757013429/drv_sdspi_driver_interface.o
 .debug_ranges  0x0000000000000898       0x10 build/pic32mz/production/_ext/757013429/drv_sdspi_file_system.o
 .debug_ranges  0x00000000000008a8      0x208 build/pic32mz/production/_ext/2120450970/drv_spi.o
 .debug_ranges  0x0000000000000ab0       0xa8 build/pic32mz/production/_ext/1783409726/drv_usbhs.o
 .debug_ranges  0x0000000000000b58      0xa30 build/pic32mz/production/_ext/1783409726/drv_usbhs_device.o
 .debug_ranges  0x0000000000001588       0xb0 build/pic32mz/production/_ext/1640642171/plib_cache.o
 .debug_ranges  0x0000000000001638       0x10 build/pic32mz/production/_ext/10646107/plib_clk.o
 .debug_ranges  0x0000000000001648       0x58 build/pic32mz/production/_ext/809018751/plib_coretimer.o
 .debug_ranges  0x00000000000016a0       0x58 build/pic32mz/production/_ext/330098546/plib_evic.o
 .debug_ranges  0x00000000000016f8       0x80 build/pic32mz/production/_ext/330152374/plib_gpio.o
 .debug_ranges  0x0000000000001778      0x118 build/pic32mz/production/_ext/249272802/plib_i2c2_master.o
 .debug_ranges  0x0000000000001890      0x118 build/pic32mz/production/_ext/249272802/plib_i2c4_master.o
 .debug_ranges  0x00000000000019a8       0x58 build/pic32mz/production/_ext/867254719/plib_spi4_master.o
 .debug_ranges  0x0000000000001a00       0x58 build/pic32mz/production/_ext/867254719/plib_spi2_master.o
 .debug_ranges  0x0000000000001a58       0x58 build/pic32mz/production/_ext/867254719/plib_spi1_master.o
 .debug_ranges  0x0000000000001ab0       0x60 build/pic32mz/production/_ext/10662482/plib_tmr2.o
 .debug_ranges  0x0000000000001b10       0x70 build/pic32mz/production/_ext/330555317/plib_uart5.o
 .debug_ranges  0x0000000000001b80       0x98 build/pic32mz/production/_ext/330555317/plib_uart6.o
 .debug_ranges  0x0000000000001c18       0x98 build/pic32mz/production/_ext/330555317/plib_uart3.o
 .debug_ranges  0x0000000000001cb0       0x98 build/pic32mz/production/_ext/330555317/plib_uart4.o
 .debug_ranges  0x0000000000001d48       0x98 build/pic32mz/production/_ext/330555317/plib_uart1.o
 .debug_ranges  0x0000000000001de0       0x98 build/pic32mz/production/_ext/330555317/plib_uart2.o
 .debug_ranges  0x0000000000001e78       0x18 build/pic32mz/production/_ext/1991269565/xc32_monitor.o
 .debug_ranges  0x0000000000001e90       0x70 build/pic32mz/production/_ext/1519118610/sys_cache.o
 .debug_ranges  0x0000000000001f00       0x20 build/pic32mz/production/_ext/1373644956/sys_dma.o
 .debug_ranges  0x0000000000001f20      0x4b0 build/pic32mz/production/_ext/1192657380/ff.o
 .debug_ranges  0x00000000000023d0       0x20 build/pic32mz/production/_ext/1192657380/ffunicode.o
 .debug_ranges  0x00000000000023f0       0x50 build/pic32mz/production/_ext/727274963/diskio.o
 .debug_ranges  0x0000000000002440      0x5f0 build/pic32mz/production/_ext/252936118/sys_fs.o
 .debug_ranges  0x0000000000002a30      0x158 build/pic32mz/production/_ext/252936118/sys_fs_media_manager.o
 .debug_ranges  0x0000000000002b88      0x120 build/pic32mz/production/_ext/252936118/sys_fs_fat_interface.o
 .debug_ranges  0x0000000000002ca8       0x30 build/pic32mz/production/_ext/1832149040/sys_int.o
 .debug_ranges  0x0000000000002cd8      0x190 build/pic32mz/production/_ext/1636986698/sys_time.o
 .debug_ranges  0x0000000000002e68      0x190 build/pic32mz/production/_ext/202551283/usb_device.o
 .debug_ranges  0x0000000000002ff8       0xc0 build/pic32mz/production/_ext/202551283/usb_device_cdc.o
 .debug_ranges  0x00000000000030b8       0x10 build/pic32mz/production/_ext/202551283/usb_device_cdc_acm.o
 .debug_ranges  0x00000000000030c8       0x10 build/pic32mz/production/_ext/953055421/tasks.o
 .debug_ranges  0x00000000000030d8       0x10 build/pic32mz/production/_ext/953055421/initialization.o
 .debug_ranges  0x00000000000030e8       0xf8 build/pic32mz/production/_ext/953055421/interrupts.o
 .debug_ranges  0x00000000000031e0       0x28 build/pic32mz/production/_ext/953055421/exceptions.o
 .debug_ranges  0x0000000000003208       0x28 build/pic32mz/production/_ext/1360937237/app.o
 .debug_ranges  0x0000000000003230       0x10 build/pic32mz/production/_ext/1360937237/main.o
 .debug_ranges  0x0000000000003240       0x60 build/pic32mz/production/_ext/1360937237/communication.o
 .debug_ranges  0x00000000000032a0       0x70 build/pic32mz/production/_ext/1360937237/mdot.o
 .debug_ranges  0x0000000000003310       0x28 build/pic32mz/production/_ext/1360937237/stringbuffer.o
 .debug_ranges  0x0000000000003338       0xd0 c:/program files/microchip/xc32/v4.00/bin/bin/../../lib/gcc/pic32mx/8.3.1/fpu64\libgcc.a(_udivdi3.o)
 .debug_ranges  0x0000000000003408       0x10 c:/program files/microchip/xc32/v4.00/bin/bin/../../lib/gcc/pic32mx/8.3.1/../../../../pic32mx/lib/fpu64\libpic32.a(default-on-reset.o)
 .debug_ranges  0x0000000000003418       0x10 c:/program files/microchip/xc32/v4.00/bin/bin/../../lib/gcc/pic32mx/8.3.1/../../../../pic32mx/lib/fpu64\libpic32.a(default-on-bootstrap.o)
 .debug_ranges  0x0000000000003428       0x10 c:/program files/microchip/xc32/v4.00/bin/bin/../../lib/gcc/pic32mx/8.3.1/../../../../pic32mx/lib/fpu64\libpic32.a(defaultinterrupt.o)
 .debug_ranges  0x0000000000003438       0x18 c:/program files/microchip/xc32/v4.00/bin/bin/../../lib/gcc/pic32mx/8.3.1/../../../../pic32mx/lib/fpu64\libc-musl.a(__sio_sprintf_dosux.o)
 .debug_ranges  0x0000000000003450       0x10 c:/program files/microchip/xc32/v4.00/bin/bin/../../lib/gcc/pic32mx/8.3.1/../../../../pic32mx/lib/fpu64\libc-musl.a(__fmt_d.o)
 .debug_ranges  0x0000000000003460       0x10 c:/program files/microchip/xc32/v4.00/bin/bin/../../lib/gcc/pic32mx/8.3.1/../../../../pic32mx/lib/fpu64\libc-musl.a(__fmt_o.o)
 .debug_ranges  0x0000000000003470       0x10 c:/program files/microchip/xc32/v4.00/bin/bin/../../lib/gcc/pic32mx/8.3.1/../../../../pic32mx/lib/fpu64\libc-musl.a(__fmt_s.o)
 .debug_ranges  0x0000000000003480       0x18 c:/program files/microchip/xc32/v4.00/bin/bin/../../lib/gcc/pic32mx/8.3.1/../../../../pic32mx/lib/fpu64\libc-musl.a(__fmt_u.o)
 .debug_ranges  0x0000000000003498       0x10 c:/program files/microchip/xc32/v4.00/bin/bin/../../lib/gcc/pic32mx/8.3.1/../../../../pic32mx/lib/fpu64\libc-musl.a(__fmt_x.o)
 .debug_ranges  0x00000000000034a8       0xf0 c:/program files/microchip/xc32/v4.00/bin/bin/../../lib/gcc/pic32mx/8.3.1/../../../../pic32mx/lib/fpu64\libc-musl.a(__printf_core.o)
 .debug_ranges  0x0000000000003598       0x18 c:/program files/microchip/xc32/v4.00/bin/bin/../../lib/gcc/pic32mx/8.3.1/../../../../pic32mx/lib/fpu64\libc-musl.a(stdin.o)
 .debug_ranges  0x00000000000035b0       0x18 c:/program files/microchip/xc32/v4.00/bin/bin/../../lib/gcc/pic32mx/8.3.1/../../../../pic32mx/lib/fpu64\libc-musl.a(stdout.o)
 .debug_ranges  0x00000000000035c8       0x10 c:/program files/microchip/xc32/v4.00/bin/bin/../../lib/gcc/pic32mx/8.3.1/../../../../pic32mx/lib/fpu64\libc-musl.a(setbuf.o)
 .debug_ranges  0x00000000000035d8       0x28 c:/program files/microchip/xc32/v4.00/bin/bin/../../lib/gcc/pic32mx/8.3.1/../../../../pic32mx/lib/fpu64\libc-musl.a(atoi.o)
 .debug_ranges  0x0000000000003600       0x10 c:/program files/microchip/xc32/v4.00/bin/bin/../../lib/gcc/pic32mx/8.3.1/../../../../pic32mx/lib/fpu64\libc-musl.a(memmove.o)
 .debug_ranges  0x0000000000003610       0x10 c:/program files/microchip/xc32/v4.00/bin/bin/../../lib/gcc/pic32mx/8.3.1/../../../../pic32mx/lib/fpu64\libc-musl.a(strncmp.o)
 .debug_ranges  0x0000000000003620       0x10 c:/program files/microchip/xc32/v4.00/bin/bin/../../lib/gcc/pic32mx/8.3.1/../../../../pic32mx/lib/fpu64\libc-musl.a(strncpy.o)
 .debug_ranges  0x0000000000003630       0x18 c:/program files/microchip/xc32/v4.00/bin/bin/../../lib/gcc/pic32mx/8.3.1/../../../../pic32mx/lib/fpu64\libc-musl.a(tolower.o)
 .debug_ranges  0x0000000000003648       0x18 c:/program files/microchip/xc32/v4.00/bin/bin/../../lib/gcc/pic32mx/8.3.1/../../../../pic32mx/lib/fpu64\libc-musl.a(toupper.o)
 .debug_ranges  0x0000000000003660       0x10 c:/program files/microchip/xc32/v4.00/bin/bin/../../lib/gcc/pic32mx/8.3.1/../../../../pic32mx/lib/fpu64\libc-musl.a(__int_vsprintf.o)
 .debug_ranges  0x0000000000003670       0x20 c:/program files/microchip/xc32/v4.00/bin/bin/../../lib/gcc/pic32mx/8.3.1/../../../../pic32mx/lib/fpu64\libc-musl.a(__fopen.o)
 .debug_ranges  0x0000000000003690       0x18 c:/program files/microchip/xc32/v4.00/bin/bin/../../lib/gcc/pic32mx/8.3.1/../../../../pic32mx/lib/fpu64\libc-musl.a(__io_init_needed.o)
 .debug_ranges  0x00000000000036a8       0x10 c:/program files/microchip/xc32/v4.00/bin/bin/../../lib/gcc/pic32mx/8.3.1/../../../../pic32mx/lib/fpu64\libc-musl.a(__io_rw_needed.o)
 .debug_ranges  0x00000000000036b8       0x30 c:/program files/microchip/xc32/v4.00/bin/bin/../../lib/gcc/pic32mx/8.3.1/../../../../pic32mx/lib/fpu64\libc-musl.a(__out.o)
 .debug_ranges  0x00000000000036e8       0x10 c:/program files/microchip/xc32/v4.00/bin/bin/../../lib/gcc/pic32mx/8.3.1/../../../../pic32mx/lib/fpu64\libc-musl.a(__pop_float.o)
 .debug_ranges  0x00000000000036f8       0x10 c:/program files/microchip/xc32/v4.00/bin/bin/../../lib/gcc/pic32mx/8.3.1/../../../../pic32mx/lib/fpu64\libc-musl.a(__pop_int.o)
 .debug_ranges  0x0000000000003708       0x10 c:/program files/microchip/xc32/v4.00/bin/bin/../../lib/gcc/pic32mx/8.3.1/../../../../pic32mx/lib/fpu64\libc-musl.a(__pop_ptr.o)
 .debug_ranges  0x0000000000003718       0x18 c:/program files/microchip/xc32/v4.00/bin/bin/../../lib/gcc/pic32mx/8.3.1/../../../../pic32mx/lib/fpu64\libc-musl.a(__stdio_close.o)
 .debug_ranges  0x0000000000003730       0x10 c:/program files/microchip/xc32/v4.00/bin/bin/../../lib/gcc/pic32mx/8.3.1/../../../../pic32mx/lib/fpu64\libc-musl.a(__stdio_read.o)
 .debug_ranges  0x0000000000003740       0x10 c:/program files/microchip/xc32/v4.00/bin/bin/../../lib/gcc/pic32mx/8.3.1/../../../../pic32mx/lib/fpu64\libc-musl.a(__towrite_rw.o)
 .debug_ranges  0x0000000000003750       0x18 c:/program files/microchip/xc32/v4.00/bin/bin/../../lib/gcc/pic32mx/8.3.1/../../../../pic32mx/lib/fpu64\libc-musl.a(setvbuf.o)
 .debug_ranges  0x0000000000003768       0x10 c:/program files/microchip/xc32/v4.00/bin/bin/../../lib/gcc/pic32mx/8.3.1/../../../../pic32mx/lib/fpu64\libc-musl.a(stpncpy.o)
 .debug_ranges  0x0000000000003778       0x10 c:/program files/microchip/xc32/v4.00/bin/bin/../../lib/gcc/pic32mx/8.3.1/../../../../pic32mx/lib/fpu64\libc-musl.a(readv.o)
 .debug_ranges  0x0000000000003788      0x1e8 c:/program files/microchip/xc32/v4.00/bin/bin/../../lib/gcc/pic32mx/8.3.1/../../../../pic32mx/lib/fpu64\libc-musl.a(malloc.o)
 .debug_ranges  0x0000000000003970       0x10 c:/program files/microchip/xc32/v4.00/bin/bin/../../lib/gcc/pic32mx/8.3.1/../../../../pic32mx/lib/fpu64\libc-musl.a(expand_heap.o)
 .debug_ranges  0x0000000000003980       0x10 c:/program files/microchip/xc32/v4.00/bin/bin/../../lib/gcc/pic32mx/8.3.1/../../../../pic32mx/lib/fpu64\libc-musl.a(__int_vsnprintf.o)
 .debug_ranges  0x0000000000003990       0x10 c:/program files/microchip/xc32/v4.00/bin/bin/../../lib/gcc/pic32mx/8.3.1/../../../../pic32mx/lib/fpu64\libc-musl.a(__fopen_rw.o)
 .debug_ranges  0x00000000000039a0       0x10 c:/program files/microchip/xc32/v4.00/bin/bin/../../lib/gcc/pic32mx/8.3.1/../../../../pic32mx/lib/fpu64\libc-musl.a(__ftello_rw.o)
 .debug_ranges  0x00000000000039b0       0x18 c:/program files/microchip/xc32/v4.00/bin/bin/../../lib/gcc/pic32mx/8.3.1/../../../../pic32mx/lib/fpu64\libc-musl.a(__init_stdio.o)
 .debug_ranges  0x00000000000039c8       0x10 c:/program files/microchip/xc32/v4.00/bin/bin/../../lib/gcc/pic32mx/8.3.1/../../../../pic32mx/lib/fpu64\libc-musl.a(__io_buf_needed.o)
 .debug_ranges  0x00000000000039d8       0x10 c:/program files/microchip/xc32/v4.00/bin/bin/../../lib/gcc/pic32mx/8.3.1/../../../../pic32mx/lib/fpu64\libc-musl.a(__io_file_needed.o)
 .debug_ranges  0x00000000000039e8       0x10 c:/program files/microchip/xc32/v4.00/bin/bin/../../lib/gcc/pic32mx/8.3.1/../../../../pic32mx/lib/fpu64\libc-musl.a(__io_std_needed.o)
 .debug_ranges  0x00000000000039f8       0x10 c:/program files/microchip/xc32/v4.00/bin/bin/../../lib/gcc/pic32mx/8.3.1/../../../../pic32mx/lib/fpu64\libc-musl.a(__putc.o)
 .debug_ranges  0x0000000000003a08       0x20 c:/program files/microchip/xc32/v4.00/bin/bin/../../lib/gcc/pic32mx/8.3.1/../../../../pic32mx/lib/fpu64\libc-musl.a(__stderr.o)
 .debug_ranges  0x0000000000003a28       0x20 c:/program files/microchip/xc32/v4.00/bin/bin/../../lib/gcc/pic32mx/8.3.1/../../../../pic32mx/lib/fpu64\libc-musl.a(__stdio_exit.o)
 .debug_ranges  0x0000000000003a48       0x18 c:/program files/microchip/xc32/v4.00/bin/bin/../../lib/gcc/pic32mx/8.3.1/../../../../pic32mx/lib/fpu64\libc-musl.a(__stdio_write.o)
 .debug_ranges  0x0000000000003a60       0x20 c:/program files/microchip/xc32/v4.00/bin/bin/../../lib/gcc/pic32mx/8.3.1/../../../../pic32mx/lib/fpu64\libc-musl.a(__stdout.o)
 .debug_ranges  0x0000000000003a80       0x18 c:/program files/microchip/xc32/v4.00/bin/bin/../../lib/gcc/pic32mx/8.3.1/../../../../pic32mx/lib/fpu64\libc-musl.a(__towrite.o)
 .debug_ranges  0x0000000000003a98       0x20 c:/program files/microchip/xc32/v4.00/bin/bin/../../lib/gcc/pic32mx/8.3.1/../../../../pic32mx/lib/fpu64\libc-musl.a(putc.o)
 .debug_ranges  0x0000000000003ab8       0x10 c:/program files/microchip/xc32/v4.00/bin/bin/../../lib/gcc/pic32mx/8.3.1/../../../../pic32mx/lib/fpu64\libc-musl.a(read.o)
 .debug_ranges  0x0000000000003ac8       0x10 c:/program files/microchip/xc32/v4.00/bin/bin/../../lib/gcc/pic32mx/8.3.1/../../../../pic32mx/lib/fpu64\libc-musl.a(writev.o)
 .debug_ranges  0x0000000000003ad8       0x10 c:/program files/microchip/xc32/v4.00/bin/bin/../../lib/gcc/pic32mx/8.3.1/../../../../pic32mx/lib/fpu64\libc-musl.a(syscall_ret.o)
 .debug_ranges  0x0000000000003ae8       0x10 c:/program files/microchip/xc32/v4.00/bin/bin/../../lib/gcc/pic32mx/8.3.1/../../../../pic32mx/lib/fpu64\libc-musl.a(__int_vfprintf.o)
 .debug_ranges  0x0000000000003af8       0x10 c:/program files/microchip/xc32/v4.00/bin/bin/../../lib/gcc/pic32mx/8.3.1/../../../../pic32mx/lib/fpu64\libc-musl.a(__overflow.o)
 .debug_ranges  0x0000000000003b08       0x10 c:/program files/microchip/xc32/v4.00/bin/bin/../../lib/gcc/pic32mx/8.3.1/../../../../pic32mx/lib/fpu64\libc-musl.a(__fclose.o)
 .debug_ranges  0x0000000000003b18       0x10 c:/program files/microchip/xc32/v4.00/bin/bin/../../lib/gcc/pic32mx/8.3.1/../../../../pic32mx/lib/fpu64\libc-musl.a(__fseeko.o)
 .debug_ranges  0x0000000000003b28       0x18 c:/program files/microchip/xc32/v4.00/bin/bin/../../lib/gcc/pic32mx/8.3.1/../../../../pic32mx/lib/fpu64\libc-musl.a(__ftello.o)
 .debug_ranges  0x0000000000003b40       0x18 c:/program files/microchip/xc32/v4.00/bin/bin/../../lib/gcc/pic32mx/8.3.1/../../../../pic32mx/lib/fpu64\libc-musl.a(__fwrite.o)
 .debug_ranges  0x0000000000003b58       0x58 c:/program files/microchip/xc32/v4.00/bin/bin/../../lib/gcc/pic32mx/8.3.1/../../../../pic32mx/lib/fpu64\libpic32.a(sbrk.o)
 .debug_ranges  0x0000000000003bb0       0x10 c:/program files/microchip/xc32/v4.00/bin/bin/../../lib/gcc/pic32mx/8.3.1/../../../../pic32mx/lib/fpu64\libpic32.a(write.o)
 .debug_ranges  0x0000000000003bc0       0x10 c:/program files/microchip/xc32/v4.00/bin/bin/../../lib/gcc/pic32mx/8.3.1/../../../../pic32mx/lib/fpu64\libpic32.a(lseek.o)
 .debug_ranges  0x0000000000003bd0       0x10 c:/program files/microchip/xc32/v4.00/bin/bin/../../lib/gcc/pic32mx/8.3.1/../../../../pic32mx/lib/fpu64\libpic32.a(close.o)
 .debug_ranges  0x0000000000003be0       0xa0 c:/program files/microchip/xc32/v4.00/bin/bin/../../lib/gcc/pic32mx/8.3.1/fpu64\libgcc.a(_umoddi3.o)

.gnu.attributes
                0x0000000000000000       0x10
 *(.gnu.attributes)
 .gnu.attributes
                0x0000000000000000       0x10 c:/program files/microchip/xc32/v4.00/bin/bin/../../lib/gcc/pic32mx/8.3.1/../../../../pic32mx/lib/fpu64\debug-exception-return.o
 .gnu.attributes
                0x0000000000000010       0x10 build/pic32mz/production/_ext/757013429/drv_sdspi.o
 .gnu.attributes
                0x0000000000000020       0x10 build/pic32mz/production/_ext/757013429/drv_sdspi_driver_interface.o
 .gnu.attributes
                0x0000000000000030       0x10 build/pic32mz/production/_ext/757013429/drv_sdspi_file_system.o
 .gnu.attributes
                0x0000000000000040       0x10 build/pic32mz/production/_ext/2120450970/drv_spi.o
 .gnu.attributes
                0x0000000000000050       0x10 build/pic32mz/production/_ext/1783409726/drv_usbhs.o
 .gnu.attributes
                0x0000000000000060       0x10 build/pic32mz/production/_ext/1783409726/drv_usbhs_device.o
 .gnu.attributes
                0x0000000000000070       0x10 build/pic32mz/production/_ext/1640642171/plib_cache.o
 .gnu.attributes
                0x0000000000000080       0x10 build/pic32mz/production/_ext/1640642171/plib_cache_pic32mz.o
 .gnu.attributes
                0x0000000000000090       0x10 build/pic32mz/production/_ext/10646107/plib_clk.o
 .gnu.attributes
                0x00000000000000a0       0x10 build/pic32mz/production/_ext/809018751/plib_coretimer.o
 .gnu.attributes
                0x00000000000000b0       0x10 build/pic32mz/production/_ext/330098546/plib_evic.o
 .gnu.attributes
                0x00000000000000c0       0x10 build/pic32mz/production/_ext/330152374/plib_gpio.o
 .gnu.attributes
                0x00000000000000d0       0x10 build/pic32mz/production/_ext/249272802/plib_i2c2_master.o
 .gnu.attributes
                0x00000000000000e0       0x10 build/pic32mz/production/_ext/249272802/plib_i2c4_master.o
 .gnu.attributes
                0x00000000000000f0       0x10 build/pic32mz/production/_ext/867254719/plib_spi4_master.o
 .gnu.attributes
                0x0000000000000100       0x10 build/pic32mz/production/_ext/867254719/plib_spi2_master.o
 .gnu.attributes
                0x0000000000000110       0x10 build/pic32mz/production/_ext/867254719/plib_spi1_master.o
 .gnu.attributes
                0x0000000000000120       0x10 build/pic32mz/production/_ext/10662482/plib_tmr2.o
 .gnu.attributes
                0x0000000000000130       0x10 build/pic32mz/production/_ext/330555317/plib_uart5.o
 .gnu.attributes
                0x0000000000000140       0x10 build/pic32mz/production/_ext/330555317/plib_uart6.o
 .gnu.attributes
                0x0000000000000150       0x10 build/pic32mz/production/_ext/330555317/plib_uart3.o
 .gnu.attributes
                0x0000000000000160       0x10 build/pic32mz/production/_ext/330555317/plib_uart4.o
 .gnu.attributes
                0x0000000000000170       0x10 build/pic32mz/production/_ext/330555317/plib_uart1.o
 .gnu.attributes
                0x0000000000000180       0x10 build/pic32mz/production/_ext/330555317/plib_uart2.o
 .gnu.attributes
                0x0000000000000190       0x10 build/pic32mz/production/_ext/1991269565/xc32_monitor.o
 .gnu.attributes
                0x00000000000001a0       0x10 build/pic32mz/production/_ext/1519118610/sys_cache.o
 .gnu.attributes
                0x00000000000001b0       0x10 build/pic32mz/production/_ext/1373644956/sys_dma.o
 .gnu.attributes
                0x00000000000001c0       0x10 build/pic32mz/production/_ext/1192657380/ff.o
 .gnu.attributes
                0x00000000000001d0       0x10 build/pic32mz/production/_ext/1192657380/ffunicode.o
 .gnu.attributes
                0x00000000000001e0       0x10 build/pic32mz/production/_ext/727274963/diskio.o
 .gnu.attributes
                0x00000000000001f0       0x10 build/pic32mz/production/_ext/252936118/sys_fs.o
 .gnu.attributes
                0x0000000000000200       0x10 build/pic32mz/production/_ext/252936118/sys_fs_media_manager.o
 .gnu.attributes
                0x0000000000000210       0x10 build/pic32mz/production/_ext/252936118/sys_fs_fat_interface.o
 .gnu.attributes
                0x0000000000000220       0x10 build/pic32mz/production/_ext/1832149040/sys_int.o
 .gnu.attributes
                0x0000000000000230       0x10 build/pic32mz/production/_ext/1636986698/sys_time.o
 .gnu.attributes
                0x0000000000000240       0x10 build/pic32mz/production/_ext/202551283/usb_device.o
 .gnu.attributes
                0x0000000000000250       0x10 build/pic32mz/production/_ext/202551283/usb_device_cdc.o
 .gnu.attributes
                0x0000000000000260       0x10 build/pic32mz/production/_ext/202551283/usb_device_cdc_acm.o
 .gnu.attributes
                0x0000000000000270       0x10 build/pic32mz/production/_ext/953055421/usb_device_init_data.o
 .gnu.attributes
                0x0000000000000280       0x10 build/pic32mz/production/_ext/953055421/tasks.o
 .gnu.attributes
                0x0000000000000290       0x10 build/pic32mz/production/_ext/953055421/initialization.o
 .gnu.attributes
                0x00000000000002a0       0x10 build/pic32mz/production/_ext/953055421/interrupts.o
 .gnu.attributes
                0x00000000000002b0       0x10 build/pic32mz/production/_ext/953055421/exceptions.o
 .gnu.attributes
                0x00000000000002c0       0x10 build/pic32mz/production/_ext/1360937237/app.o
 .gnu.attributes
                0x00000000000002d0       0x10 build/pic32mz/production/_ext/1360937237/main.o
 .gnu.attributes
                0x00000000000002e0       0x10 build/pic32mz/production/_ext/1360937237/communication.o
 .gnu.attributes
                0x00000000000002f0       0x10 build/pic32mz/production/_ext/1360937237/mdot.o
 .gnu.attributes
                0x0000000000000300       0x10 build/pic32mz/production/_ext/1360937237/stringbuffer.o
 .gnu.attributes
                0x0000000000000310       0x10 C:\Users\rford7\AppData\Local\Temp\cciIy8zr.o
 .gnu.attributes
                0x0000000000000320       0x10 C:\Users\rford7\AppData\Local\Temp\cct4lSEV.o
 .gnu.attributes
                0x0000000000000330       0x10 C:\Users\rford7\AppData\Local\Temp\ccezocr3.o
 .gnu.attributes
                0x0000000000000340       0x10 C:\Users\rford7\AppData\Local\Temp\ccCB6OPC.o
 .gnu.attributes
                0x0000000000000350       0x10 c:/program files/microchip/xc32/v4.00/bin/bin/../../lib/gcc/pic32mx/8.3.1/../../../../pic32mx/lib/fpu64\pic32_software_reset.o
 .gnu.attributes
                0x0000000000000360       0x10 c:/program files/microchip/xc32/v4.00/bin/bin/../../lib/gcc/pic32mx/8.3.1/fpu64\libgcc.a(_udivdi3.o)
 .gnu.attributes
                0x0000000000000370       0x10 c:/program files/microchip/xc32/v4.00/bin/bin/../../lib/gcc/pic32mx/8.3.1/../../../../pic32mx/lib/fpu64\libpic32.a(memcmp.o)
 .gnu.attributes
                0x0000000000000380       0x10 c:/program files/microchip/xc32/v4.00/bin/bin/../../lib/gcc/pic32mx/8.3.1/../../../../pic32mx/lib/fpu64\libpic32.a(memcpy.o)
 .gnu.attributes
                0x0000000000000390       0x10 c:/program files/microchip/xc32/v4.00/bin/bin/../../lib/gcc/pic32mx/8.3.1/../../../../pic32mx/lib/fpu64\libpic32.a(memset.o)
 .gnu.attributes
                0x00000000000003a0       0x10 c:/program files/microchip/xc32/v4.00/bin/bin/../../lib/gcc/pic32mx/8.3.1/../../../../pic32mx/lib/fpu64\libpic32.a(strcmp.o)
 .gnu.attributes
                0x00000000000003b0       0x10 c:/program files/microchip/xc32/v4.00/bin/bin/../../lib/gcc/pic32mx/8.3.1/../../../../pic32mx/lib/fpu64\libpic32.a(strcpy.o)
 .gnu.attributes
                0x00000000000003c0       0x10 c:/program files/microchip/xc32/v4.00/bin/bin/../../lib/gcc/pic32mx/8.3.1/../../../../pic32mx/lib/fpu64\libpic32.a(strlen.o)
 .gnu.attributes
                0x00000000000003d0       0x10 c:/program files/microchip/xc32/v4.00/bin/bin/../../lib/gcc/pic32mx/8.3.1/../../../../pic32mx/lib/fpu64\libpic32.a(default-on-reset.o)
 .gnu.attributes
                0x00000000000003e0       0x10 c:/program files/microchip/xc32/v4.00/bin/bin/../../lib/gcc/pic32mx/8.3.1/../../../../pic32mx/lib/fpu64\libpic32.a(default-on-bootstrap.o)
 .gnu.attributes
                0x00000000000003f0       0x10 c:/program files/microchip/xc32/v4.00/bin/bin/../../lib/gcc/pic32mx/8.3.1/../../../../pic32mx/lib/fpu64\libpic32.a(default-nmi-handler.o)
 .gnu.attributes
                0x0000000000000400       0x10 c:/program files/microchip/xc32/v4.00/bin/bin/../../lib/gcc/pic32mx/8.3.1/../../../../pic32mx/lib/fpu64\libpic32.a(pic32_data_init.o)
 .gnu.attributes
                0x0000000000000410       0x10 c:/program files/microchip/xc32/v4.00/bin/bin/../../lib/gcc/pic32mx/8.3.1/../../../../pic32mx/lib/fpu64\libpic32.a(pic32_init_cache.o)
 .gnu.attributes
                0x0000000000000420       0x10 c:/program files/microchip/xc32/v4.00/bin/bin/../../lib/gcc/pic32mx/8.3.1/../../../../pic32mx/lib/fpu64\libpic32.a(pic32_init_tlb_ebi_sqi.o)
 .gnu.attributes
                0x0000000000000430       0x10 c:/program files/microchip/xc32/v4.00/bin/bin/../../lib/gcc/pic32mx/8.3.1/../../../../pic32mx/lib/fpu64\libpic32.a(general-exception.o)
 .gnu.attributes
                0x0000000000000440       0x10 c:/program files/microchip/xc32/v4.00/bin/bin/../../lib/gcc/pic32mx/8.3.1/../../../../pic32mx/lib/fpu64\libpic32.a(cache-err-exception.o)
 .gnu.attributes
                0x0000000000000450       0x10 c:/program files/microchip/xc32/v4.00/bin/bin/../../lib/gcc/pic32mx/8.3.1/../../../../pic32mx/lib/fpu64\libpic32.a(simple-tlb-refill-exception.o)
 .gnu.attributes
                0x0000000000000460       0x10 c:/program files/microchip/xc32/v4.00/bin/bin/../../lib/gcc/pic32mx/8.3.1/../../../../pic32mx/lib/fpu64\libpic32.a(defaultinterrupt.o)
 .gnu.attributes
                0x0000000000000470       0x10 c:/program files/microchip/xc32/v4.00/bin/bin/../../lib/gcc/pic32mx/8.3.1/../../../../pic32mx/lib/fpu64\libc-musl.a(__sio_sprintf_dosux.o)
 .gnu.attributes
                0x0000000000000480       0x10 c:/program files/microchip/xc32/v4.00/bin/bin/../../lib/gcc/pic32mx/8.3.1/../../../../pic32mx/lib/fpu64\libc-musl.a(__fmt_d.o)
 .gnu.attributes
                0x0000000000000490       0x10 c:/program files/microchip/xc32/v4.00/bin/bin/../../lib/gcc/pic32mx/8.3.1/../../../../pic32mx/lib/fpu64\libc-musl.a(__fmt_o.o)
 .gnu.attributes
                0x00000000000004a0       0x10 c:/program files/microchip/xc32/v4.00/bin/bin/../../lib/gcc/pic32mx/8.3.1/../../../../pic32mx/lib/fpu64\libc-musl.a(__fmt_s.o)
 .gnu.attributes
                0x00000000000004b0       0x10 c:/program files/microchip/xc32/v4.00/bin/bin/../../lib/gcc/pic32mx/8.3.1/../../../../pic32mx/lib/fpu64\libc-musl.a(__fmt_u.o)
 .gnu.attributes
                0x00000000000004c0       0x10 c:/program files/microchip/xc32/v4.00/bin/bin/../../lib/gcc/pic32mx/8.3.1/../../../../pic32mx/lib/fpu64\libc-musl.a(__fmt_x.o)
 .gnu.attributes
                0x00000000000004d0       0x10 c:/program files/microchip/xc32/v4.00/bin/bin/../../lib/gcc/pic32mx/8.3.1/../../../../pic32mx/lib/fpu64\libc-musl.a(__printf_core.o)
 .gnu.attributes
                0x00000000000004e0       0x10 c:/program files/microchip/xc32/v4.00/bin/bin/../../lib/gcc/pic32mx/8.3.1/../../../../pic32mx/lib/fpu64\libc-musl.a(stdin.o)
 .gnu.attributes
                0x00000000000004f0       0x10 c:/program files/microchip/xc32/v4.00/bin/bin/../../lib/gcc/pic32mx/8.3.1/../../../../pic32mx/lib/fpu64\libc-musl.a(stdout.o)
 .gnu.attributes
                0x0000000000000500       0x10 c:/program files/microchip/xc32/v4.00/bin/bin/../../lib/gcc/pic32mx/8.3.1/../../../../pic32mx/lib/fpu64\libc-musl.a(setbuf.o)
 .gnu.attributes
                0x0000000000000510       0x10 c:/program files/microchip/xc32/v4.00/bin/bin/../../lib/gcc/pic32mx/8.3.1/../../../../pic32mx/lib/fpu64\libc-musl.a(atoi.o)
 .gnu.attributes
                0x0000000000000520       0x10 c:/program files/microchip/xc32/v4.00/bin/bin/../../lib/gcc/pic32mx/8.3.1/../../../../pic32mx/lib/fpu64\libc-musl.a(memmove.o)
 .gnu.attributes
                0x0000000000000530       0x10 c:/program files/microchip/xc32/v4.00/bin/bin/../../lib/gcc/pic32mx/8.3.1/../../../../pic32mx/lib/fpu64\libc-musl.a(strncmp.o)
 .gnu.attributes
                0x0000000000000540       0x10 c:/program files/microchip/xc32/v4.00/bin/bin/../../lib/gcc/pic32mx/8.3.1/../../../../pic32mx/lib/fpu64\libc-musl.a(strncpy.o)
 .gnu.attributes
                0x0000000000000550       0x10 c:/program files/microchip/xc32/v4.00/bin/bin/../../lib/gcc/pic32mx/8.3.1/../../../../pic32mx/lib/fpu64\libc-musl.a(tolower.o)
 .gnu.attributes
                0x0000000000000560       0x10 c:/program files/microchip/xc32/v4.00/bin/bin/../../lib/gcc/pic32mx/8.3.1/../../../../pic32mx/lib/fpu64\libc-musl.a(toupper.o)
 .gnu.attributes
                0x0000000000000570       0x10 c:/program files/microchip/xc32/v4.00/bin/bin/../../lib/gcc/pic32mx/8.3.1/../../../../pic32mx/lib/fpu64\libc-musl.a(__int_vsprintf.o)
 .gnu.attributes
                0x0000000000000580       0x10 c:/program files/microchip/xc32/v4.00/bin/bin/../../lib/gcc/pic32mx/8.3.1/../../../../pic32mx/lib/fpu64\libc-musl.a(__fopen.o)
 .gnu.attributes
                0x0000000000000590       0x10 c:/program files/microchip/xc32/v4.00/bin/bin/../../lib/gcc/pic32mx/8.3.1/../../../../pic32mx/lib/fpu64\libc-musl.a(__io_init_needed.o)
 .gnu.attributes
                0x00000000000005a0       0x10 c:/program files/microchip/xc32/v4.00/bin/bin/../../lib/gcc/pic32mx/8.3.1/../../../../pic32mx/lib/fpu64\libc-musl.a(__io_rw_needed.o)
 .gnu.attributes
                0x00000000000005b0       0x10 c:/program files/microchip/xc32/v4.00/bin/bin/../../lib/gcc/pic32mx/8.3.1/../../../../pic32mx/lib/fpu64\libc-musl.a(__out.o)
 .gnu.attributes
                0x00000000000005c0       0x10 c:/program files/microchip/xc32/v4.00/bin/bin/../../lib/gcc/pic32mx/8.3.1/../../../../pic32mx/lib/fpu64\libc-musl.a(__pop_float.o)
 .gnu.attributes
                0x00000000000005d0       0x10 c:/program files/microchip/xc32/v4.00/bin/bin/../../lib/gcc/pic32mx/8.3.1/../../../../pic32mx/lib/fpu64\libc-musl.a(__pop_int.o)
 .gnu.attributes
                0x00000000000005e0       0x10 c:/program files/microchip/xc32/v4.00/bin/bin/../../lib/gcc/pic32mx/8.3.1/../../../../pic32mx/lib/fpu64\libc-musl.a(__pop_ptr.o)
 .gnu.attributes
                0x00000000000005f0       0x10 c:/program files/microchip/xc32/v4.00/bin/bin/../../lib/gcc/pic32mx/8.3.1/../../../../pic32mx/lib/fpu64\libc-musl.a(__stdio_close.o)
 .gnu.attributes
                0x0000000000000600       0x10 c:/program files/microchip/xc32/v4.00/bin/bin/../../lib/gcc/pic32mx/8.3.1/../../../../pic32mx/lib/fpu64\libc-musl.a(__stdio_read.o)
 .gnu.attributes
                0x0000000000000610       0x10 c:/program files/microchip/xc32/v4.00/bin/bin/../../lib/gcc/pic32mx/8.3.1/../../../../pic32mx/lib/fpu64\libc-musl.a(__towrite_rw.o)
 .gnu.attributes
                0x0000000000000620       0x10 c:/program files/microchip/xc32/v4.00/bin/bin/../../lib/gcc/pic32mx/8.3.1/../../../../pic32mx/lib/fpu64\libc-musl.a(setvbuf.o)
 .gnu.attributes
                0x0000000000000630       0x10 c:/program files/microchip/xc32/v4.00/bin/bin/../../lib/gcc/pic32mx/8.3.1/../../../../pic32mx/lib/fpu64\libc-musl.a(stpncpy.o)
 .gnu.attributes
                0x0000000000000640       0x10 c:/program files/microchip/xc32/v4.00/bin/bin/../../lib/gcc/pic32mx/8.3.1/../../../../pic32mx/lib/fpu64\libc-musl.a(readv.o)
 .gnu.attributes
                0x0000000000000650       0x10 c:/program files/microchip/xc32/v4.00/bin/bin/../../lib/gcc/pic32mx/8.3.1/../../../../pic32mx/lib/fpu64\libc-musl.a(malloc.o)
 .gnu.attributes
                0x0000000000000660       0x10 c:/program files/microchip/xc32/v4.00/bin/bin/../../lib/gcc/pic32mx/8.3.1/../../../../pic32mx/lib/fpu64\libc-musl.a(expand_heap.o)
 .gnu.attributes
                0x0000000000000670       0x10 c:/program files/microchip/xc32/v4.00/bin/bin/../../lib/gcc/pic32mx/8.3.1/../../../../pic32mx/lib/fpu64\libc-musl.a(__int_vsnprintf.o)
 .gnu.attributes
                0x0000000000000680       0x10 c:/program files/microchip/xc32/v4.00/bin/bin/../../lib/gcc/pic32mx/8.3.1/../../../../pic32mx/lib/fpu64\libc-musl.a(__fopen_rw.o)
 .gnu.attributes
                0x0000000000000690       0x10 c:/program files/microchip/xc32/v4.00/bin/bin/../../lib/gcc/pic32mx/8.3.1/../../../../pic32mx/lib/fpu64\libc-musl.a(__ftello_rw.o)
 .gnu.attributes
                0x00000000000006a0       0x10 c:/program files/microchip/xc32/v4.00/bin/bin/../../lib/gcc/pic32mx/8.3.1/../../../../pic32mx/lib/fpu64\libc-musl.a(__init_stdio.o)
 .gnu.attributes
                0x00000000000006b0       0x10 c:/program files/microchip/xc32/v4.00/bin/bin/../../lib/gcc/pic32mx/8.3.1/../../../../pic32mx/lib/fpu64\libc-musl.a(__io_buf_needed.o)
 .gnu.attributes
                0x00000000000006c0       0x10 c:/program files/microchip/xc32/v4.00/bin/bin/../../lib/gcc/pic32mx/8.3.1/../../../../pic32mx/lib/fpu64\libc-musl.a(__io_file_needed.o)
 .gnu.attributes
                0x00000000000006d0       0x10 c:/program files/microchip/xc32/v4.00/bin/bin/../../lib/gcc/pic32mx/8.3.1/../../../../pic32mx/lib/fpu64\libc-musl.a(__io_std_needed.o)
 .gnu.attributes
                0x00000000000006e0       0x10 c:/program files/microchip/xc32/v4.00/bin/bin/../../lib/gcc/pic32mx/8.3.1/../../../../pic32mx/lib/fpu64\libc-musl.a(__putc.o)
 .gnu.attributes
                0x00000000000006f0       0x10 c:/program files/microchip/xc32/v4.00/bin/bin/../../lib/gcc/pic32mx/8.3.1/../../../../pic32mx/lib/fpu64\libc-musl.a(__stderr.o)
 .gnu.attributes
                0x0000000000000700       0x10 c:/program files/microchip/xc32/v4.00/bin/bin/../../lib/gcc/pic32mx/8.3.1/../../../../pic32mx/lib/fpu64\libc-musl.a(__stdio_exit.o)
 .gnu.attributes
                0x0000000000000710       0x10 c:/program files/microchip/xc32/v4.00/bin/bin/../../lib/gcc/pic32mx/8.3.1/../../../../pic32mx/lib/fpu64\libc-musl.a(__stdio_write.o)
 .gnu.attributes
                0x0000000000000720       0x10 c:/program files/microchip/xc32/v4.00/bin/bin/../../lib/gcc/pic32mx/8.3.1/../../../../pic32mx/lib/fpu64\libc-musl.a(__stdout.o)
 .gnu.attributes
                0x0000000000000730       0x10 c:/program files/microchip/xc32/v4.00/bin/bin/../../lib/gcc/pic32mx/8.3.1/../../../../pic32mx/lib/fpu64\libc-musl.a(__towrite.o)
 .gnu.attributes
                0x0000000000000740       0x10 c:/program files/microchip/xc32/v4.00/bin/bin/../../lib/gcc/pic32mx/8.3.1/../../../../pic32mx/lib/fpu64\libc-musl.a(putc.o)
 .gnu.attributes
                0x0000000000000750       0x10 c:/program files/microchip/xc32/v4.00/bin/bin/../../lib/gcc/pic32mx/8.3.1/../../../../pic32mx/lib/fpu64\libc-musl.a(read.o)
 .gnu.attributes
                0x0000000000000760       0x10 c:/program files/microchip/xc32/v4.00/bin/bin/../../lib/gcc/pic32mx/8.3.1/../../../../pic32mx/lib/fpu64\libc-musl.a(writev.o)
 .gnu.attributes
                0x0000000000000770       0x10 c:/program files/microchip/xc32/v4.00/bin/bin/../../lib/gcc/pic32mx/8.3.1/../../../../pic32mx/lib/fpu64\libc-musl.a(libc.o)
 .gnu.attributes
                0x0000000000000780       0x10 c:/program files/microchip/xc32/v4.00/bin/bin/../../lib/gcc/pic32mx/8.3.1/../../../../pic32mx/lib/fpu64\libc-musl.a(syscall_ret.o)
 .gnu.attributes
                0x0000000000000790       0x10 c:/program files/microchip/xc32/v4.00/bin/bin/../../lib/gcc/pic32mx/8.3.1/../../../../pic32mx/lib/fpu64\libc-musl.a(__int_vfprintf.o)
 .gnu.attributes
                0x00000000000007a0       0x10 c:/program files/microchip/xc32/v4.00/bin/bin/../../lib/gcc/pic32mx/8.3.1/../../../../pic32mx/lib/fpu64\libc-musl.a(__overflow.o)
 .gnu.attributes
                0x00000000000007b0       0x10 c:/program files/microchip/xc32/v4.00/bin/bin/../../lib/gcc/pic32mx/8.3.1/../../../../pic32mx/lib/fpu64\libc-musl.a(__fclose.o)
 .gnu.attributes
                0x00000000000007c0       0x10 c:/program files/microchip/xc32/v4.00/bin/bin/../../lib/gcc/pic32mx/8.3.1/../../../../pic32mx/lib/fpu64\libc-musl.a(__fseeko.o)
 .gnu.attributes
                0x00000000000007d0       0x10 c:/program files/microchip/xc32/v4.00/bin/bin/../../lib/gcc/pic32mx/8.3.1/../../../../pic32mx/lib/fpu64\libc-musl.a(__ftello.o)
 .gnu.attributes
                0x00000000000007e0       0x10 c:/program files/microchip/xc32/v4.00/bin/bin/../../lib/gcc/pic32mx/8.3.1/../../../../pic32mx/lib/fpu64\libc-musl.a(__fwrite.o)
 .gnu.attributes
                0x00000000000007f0       0x10 c:/program files/microchip/xc32/v4.00/bin/bin/../../lib/gcc/pic32mx/8.3.1/../../../../pic32mx/lib/fpu64\libpic32.a(sbrk.o)
 .gnu.attributes
                0x0000000000000800       0x10 c:/program files/microchip/xc32/v4.00/bin/bin/../../lib/gcc/pic32mx/8.3.1/../../../../pic32mx/lib/fpu64\libpic32.a(write.o)
 .gnu.attributes
                0x0000000000000810       0x10 c:/program files/microchip/xc32/v4.00/bin/bin/../../lib/gcc/pic32mx/8.3.1/../../../../pic32mx/lib/fpu64\libpic32.a(lseek.o)
 .gnu.attributes
                0x0000000000000820       0x10 c:/program files/microchip/xc32/v4.00/bin/bin/../../lib/gcc/pic32mx/8.3.1/../../../../pic32mx/lib/fpu64\libpic32.a(close.o)
 .gnu.attributes
                0x0000000000000830       0x10 c:/program files/microchip/xc32/v4.00/bin/bin/../../lib/gcc/pic32mx/8.3.1/../../../../pic32mx/lib/fpu64\libpic32.a(errno.o)
 .gnu.attributes
                0x0000000000000840       0x10 c:/program files/microchip/xc32/v4.00/bin/bin/../../lib/gcc/pic32mx/8.3.1/fpu64\libgcc.a(_lshrdi3.o)
 .gnu.attributes
                0x0000000000000850       0x10 c:/program files/microchip/xc32/v4.00/bin/bin/../../lib/gcc/pic32mx/8.3.1/fpu64\libgcc.a(_ashldi3.o)
 .gnu.attributes
                0x0000000000000860       0x10 c:/program files/microchip/xc32/v4.00/bin/bin/../../lib/gcc/pic32mx/8.3.1/fpu64\libgcc.a(_umoddi3.o)
                0x000000009d000000                PROVIDE (__pic32_init_cache_program_base_addr = 0x9d000000)
                0x0000000080000000                PROVIDE (__pic32_init_cache_data_base_addr = 0x80000000)
                0x00000000d0000000                PROVIDE (__pic32_init_sqi_kseg2_virtual_base_addr = 0xd0000000)
                0x0000000030000000                PROVIDE (__pic32_init_sqi_kseg2_physical_base_addr = 0x30000000)
                0x000000000000001f                PROVIDE (__pic32_init_sqi_kseg2_entrylo0_bitset = 0x1f)
                0x00000000d0000000                __pic32_tlb_0_entryhi = __pic32_init_sqi_kseg2_virtual_base_addr
                0x0000000000c0001f                __pic32_tlb_0_entrylo0 = ((__pic32_init_sqi_kseg2_physical_base_addr >> 0x6) | __pic32_init_sqi_kseg2_entrylo0_bitset)
                0x0000000000c4001f                __pic32_tlb_0_entrylo1 = (__pic32_tlb_0_entrylo0 | ((__pic32_init_sqi_kseg2_physical_base_addr + 0x1000000) >> 0x6))
                0x00000000d2000000                __pic32_tlb_1_entryhi = (__pic32_init_sqi_kseg2_virtual_base_addr + 0x2000000)
                0x0000000000c8001f                __pic32_tlb_1_entrylo0 = (((__pic32_init_sqi_kseg2_physical_base_addr + 0x2000000) >> 0x6) | __pic32_init_sqi_kseg2_entrylo0_bitset)
                0x0000000000cc001f                __pic32_tlb_1_entrylo1 = (__pic32_tlb_1_entrylo0 | 0x40000)
                0x00000000f0000000                PROVIDE (__pic32_init_sqi_kseg3_virtual_base_addr = 0xf0000000)
                0x0000000030000000                PROVIDE (__pic32_init_sqi_kseg3_physical_base_addr = 0x30000000)
                0x0000000000000017                PROVIDE (__pic32_init_sqi_kseg3_entrylo0_bitset = 0x17)
                0x00000000f0000000                __pic32_tlb_2_entryhi = __pic32_init_sqi_kseg3_virtual_base_addr
                0x0000000000c00017                __pic32_tlb_2_entrylo0 = ((__pic32_init_sqi_kseg3_physical_base_addr >> 0x6) | __pic32_init_sqi_kseg3_entrylo0_bitset)
                0x0000000000c40017                __pic32_tlb_2_entrylo1 = (__pic32_tlb_2_entrylo0 | ((__pic32_init_sqi_kseg3_physical_base_addr + 0x1000000) >> 0x6))
                0x00000000f2000000                __pic32_tlb_3_entryhi = (__pic32_init_sqi_kseg3_virtual_base_addr + 0x2000000)
                0x0000000000c80017                __pic32_tlb_3_entrylo0 = (((__pic32_init_sqi_kseg3_physical_base_addr + 0x2000000) >> 0x6) | __pic32_init_sqi_kseg3_entrylo0_bitset)
                0x0000000000cc0017                __pic32_tlb_3_entrylo1 = (__pic32_tlb_3_entrylo0 | 0x40000)
                0x00000000c0000000                PROVIDE (__pic32_init_ebi_kseg2_virtual_base_addr = 0xc0000000)
                0x0000000020000000                PROVIDE (__pic32_init_ebi_kseg2_physical_base_addr = 0x20000000)
                0x000000000000001f                PROVIDE (__pic32_init_ebi_kseg2_entrylo0_bitset = 0x1f)
                0x00000000c0000000                __pic32_tlb_4_entryhi = __pic32_init_ebi_kseg2_virtual_base_addr
                0x000000000080001f                __pic32_tlb_4_entrylo0 = ((__pic32_init_ebi_kseg2_physical_base_addr >> 0x6) | __pic32_init_ebi_kseg2_entrylo0_bitset)
                0x000000000084001f                __pic32_tlb_4_entrylo1 = (__pic32_tlb_4_entrylo0 | ((__pic32_init_ebi_kseg2_physical_base_addr + 0x1000000) >> 0x6))
                0x00000000c2000000                __pic32_tlb_5_entryhi = (__pic32_init_ebi_kseg2_virtual_base_addr + 0x2000000)
                0x000000000088001f                __pic32_tlb_5_entrylo0 = (((__pic32_init_ebi_kseg2_physical_base_addr + 0x2000000) >> 0x6) | __pic32_init_ebi_kseg2_entrylo0_bitset)
                0x00000000008c001f                __pic32_tlb_5_entrylo1 = (__pic32_tlb_5_entrylo0 | 0x40000)
                0x00000000e0000000                PROVIDE (__pic32_init_ebi_kseg3_virtual_base_addr = 0xe0000000)
                0x0000000020000000                PROVIDE (__pic32_init_ebi_kseg3_physical_base_addr = 0x20000000)
                0x0000000000000017                PROVIDE (__pic32_init_ebi_kseg3_entrylo0_bitset = 0x17)
                0x00000000e0000000                __pic32_tlb_6_entryhi = __pic32_init_ebi_kseg3_virtual_base_addr
                0x0000000000800017                __pic32_tlb_6_entrylo0 = ((__pic32_init_ebi_kseg3_physical_base_addr >> 0x6) | __pic32_init_ebi_kseg3_entrylo0_bitset)
                0x0000000000840017                __pic32_tlb_6_entrylo1 = (__pic32_tlb_6_entrylo0 | ((__pic32_init_ebi_kseg3_physical_base_addr + 0x1000000) >> 0x6))
                0x00000000e2000000                __pic32_tlb_7_entryhi = (__pic32_init_ebi_kseg3_virtual_base_addr + 0x2000000)
                0x0000000000880017                __pic32_tlb_7_entrylo0 = (((__pic32_init_ebi_kseg3_physical_base_addr + 0x2000000) >> 0x6) | __pic32_init_ebi_kseg3_entrylo0_bitset)
                0x00000000008c0017                __pic32_tlb_7_entrylo1 = (__pic32_tlb_7_entrylo0 | 0x40000)

.tlb_init_values
                0x00000000bfc00670       0x60
                0x00000000bfc00670                . = ALIGN (0x4)
                0x00000000bfc00670                __pic32_tlb_init_values_begin = ABSOLUTE (.)
                0x00000000bfc00670        0x4 LONG 0xd0000000 __pic32_tlb_0_entryhi
                0x00000000bfc00674        0x4 LONG 0xc0001f __pic32_tlb_0_entrylo0
                0x00000000bfc00678        0x4 LONG 0xc4001f __pic32_tlb_0_entrylo1
                0x00000000bfc0067c        0x4 LONG 0xd2000000 __pic32_tlb_1_entryhi
                0x00000000bfc00680        0x4 LONG 0xc8001f __pic32_tlb_1_entrylo0
                0x00000000bfc00684        0x4 LONG 0xcc001f __pic32_tlb_1_entrylo1
                0x00000000bfc00688        0x4 LONG 0xf0000000 __pic32_tlb_2_entryhi
                0x00000000bfc0068c        0x4 LONG 0xc00017 __pic32_tlb_2_entrylo0
                0x00000000bfc00690        0x4 LONG 0xc40017 __pic32_tlb_2_entrylo1
                0x00000000bfc00694        0x4 LONG 0xf2000000 __pic32_tlb_3_entryhi
                0x00000000bfc00698        0x4 LONG 0xc80017 __pic32_tlb_3_entrylo0
                0x00000000bfc0069c        0x4 LONG 0xcc0017 __pic32_tlb_3_entrylo1
                0x00000000bfc006a0        0x4 LONG 0xc0000000 __pic32_tlb_4_entryhi
                0x00000000bfc006a4        0x4 LONG 0x80001f __pic32_tlb_4_entrylo0
                0x00000000bfc006a8        0x4 LONG 0x84001f __pic32_tlb_4_entrylo1
                0x00000000bfc006ac        0x4 LONG 0xc2000000 __pic32_tlb_5_entryhi
                0x00000000bfc006b0        0x4 LONG 0x88001f __pic32_tlb_5_entrylo0
                0x00000000bfc006b4        0x4 LONG 0x8c001f __pic32_tlb_5_entrylo1
                0x00000000bfc006b8        0x4 LONG 0xe0000000 __pic32_tlb_6_entryhi
                0x00000000bfc006bc        0x4 LONG 0x800017 __pic32_tlb_6_entrylo0
                0x00000000bfc006c0        0x4 LONG 0x840017 __pic32_tlb_6_entrylo1
                0x00000000bfc006c4        0x4 LONG 0xe2000000 __pic32_tlb_7_entryhi
                0x00000000bfc006c8        0x4 LONG 0x880017 __pic32_tlb_7_entrylo0
                0x00000000bfc006cc        0x4 LONG 0x8c0017 __pic32_tlb_7_entrylo1
                0x00000000bfc006d0                __pic32_tlb_init_values_end = ABSOLUTE (.)
                0x00000000bfc00678                __pic32_tlb_init_values_count = 0x8
                0x0000000000000200                _min_heap_size = 0x200
LOAD C:\Users\rford7\AppData\Local\Temp\cciIy8zr.o
LOAD C:\Users\rford7\AppData\Local\Temp\cct4lSEV.o
LOAD C:\Users\rford7\AppData\Local\Temp\ccezocr3.o
LOAD C:\Users\rford7\AppData\Local\Temp\ccCB6OPC.o
LOAD c:/program files/microchip/xc32/v4.00/bin/bin/../../lib/gcc/pic32mx/8.3.1/../../../../pic32mx/lib/fpu64\pic32_software_reset.o
LOAD c:/program files/microchip/xc32/v4.00/bin/bin/../../lib/gcc/pic32mx/8.3.1/fpu64\libgcc.a
START GROUP
LOAD c:/program files/microchip/xc32/v4.00/bin/bin/../../lib/gcc/pic32mx/8.3.1/../../../../pic32mx/lib/fpu64\libpic32.a
LOAD c:/program files/microchip/xc32/v4.00/bin/bin/../../lib/gcc/pic32mx/8.3.1/../../../../pic32mx/lib/fpu64\libdebug.a
LOAD c:/program files/microchip/xc32/v4.00/bin/bin/../../lib/gcc/pic32mx/8.3.1/../../../../pic32mx/lib/fpu64\libc-musl.a
LOAD c:/program files/microchip/xc32/v4.00/bin/bin/../../lib/gcc/pic32mx/8.3.1/../../../../pic32mx/lib/fpu64\libm-musl.a
LOAD c:/program files/microchip/xc32/v4.00/bin/bin/../../lib/gcc/pic32mx/8.3.1/../../../../pic32mx/lib/fpu64\libdspr2.a
LOAD c:/program files/microchip/xc32/v4.00/bin/bin/../../lib/gcc/pic32mx/8.3.1/../../../../pic32mx/lib/fpu64\libdsp.a
END GROUP
LOAD c:/program files/microchip/xc32/v4.00/bin/bin/../../lib/gcc/pic32mx/8.3.1/fpu64\libgcc.a
OUTPUT(dist/pic32mz/production/GHG_App_V1.0.X.production.elf elf32-tradlittlemips)
LOAD stack
LOAD data_init

.reginfo        0x0000000000000000       0x18
 .reginfo       0x0000000000000000       0x18 c:/program files/microchip/xc32/v4.00/bin/bin/../../lib/gcc/pic32mx/8.3.1/../../../../pic32mx/lib/fpu64\debug-exception-return.o

.stack          0x00000000800090d0      0x400
 .stack         0x00000000800090d0      0x400 stack

.__vector_offset_BF810540_data
                0x00000000bf810540      0x1ac
 .__vector_offset_BF810540_data
                0x00000000bf810540      0x1ac C:\Users\rford7\AppData\Local\Temp\ccezocr3.o

.__vector_offset_BF8106F4_data
                0x00000000bf8106f4       0xa8
 .__vector_offset_BF8106F4_data
                0x00000000bf8106f4       0xa8 C:\Users\rford7\AppData\Local\Temp\ccezocr3.o

.__vector_offset_BF8107A4_data
                0x00000000bf8107a4       0x98
 .__vector_offset_BF8107A4_data
                0x00000000bf8107a4       0x98 C:\Users\rford7\AppData\Local\Temp\ccezocr3.o

.__vector_offset_BF810874_data
                0x00000000bf810874       0x18
 .__vector_offset_BF810874_data
                0x00000000bf810874       0x18 C:\Users\rford7\AppData\Local\Temp\ccezocr3.o

.__vector_offset_BF810858_data
                0x00000000bf810858       0x14
 .__vector_offset_BF810858_data
                0x00000000bf810858       0x14 C:\Users\rford7\AppData\Local\Temp\ccezocr3.o

.__vector_offset_BF810840_data
                0x00000000bf810840        0xc
 .__vector_offset_BF810840_data
                0x00000000bf810840        0xc C:\Users\rford7\AppData\Local\Temp\ccezocr3.o

.__vector_offset_BF810850_data
                0x00000000bf810850        0x4
 .__vector_offset_BF810850_data
                0x00000000bf810850        0x4 C:\Users\rford7\AppData\Local\Temp\ccezocr3.o

.__vector_offset_BF810894_data
                0x00000000bf810894        0x4
 .__vector_offset_BF810894_data
                0x00000000bf810894        0x4 C:\Users\rford7\AppData\Local\Temp\ccezocr3.o

.COHERENTBSS$   0x00000000a00000a0     0x4b26
 .COHERENTBSS$  0x00000000a00000a0     0x36b0 build/pic32mz/production/_ext/252936118/sys_fs_fat_interface.o
 .bss.gSysFsDiskData
                0x00000000a0003750      0x210 build/pic32mz/production/_ext/727274963/diskio.o
 .bss.gUSBDeviceCDCSerialStateResponse
                0x00000000a0003960        0xa build/pic32mz/production/_ext/202551283/usb_device_cdc.o
                0x00000000a0003960                gUSBDeviceCDCSerialStateResponse
 *fill*         0x00000000a000396a        0x2 
 .bss.FATFSVolume
                0x00000000a000396c      0x23c build/pic32mz/production/_ext/252936118/sys_fs_fat_interface.o
 .bss.gSYSFSMediaBlockBuffer
                0x00000000a0003ba8      0x800 build/pic32mz/production/_ext/252936118/sys_fs_media_manager.o
                0x00000000a0003ba8                gSYSFSMediaBlockBuffer
 .bss.gSYSFSMediaBuffer
                0x00000000a00043a8      0x200 build/pic32mz/production/_ext/252936118/sys_fs_media_manager.o
                0x00000000a00043a8                gSYSFSMediaBuffer
 .bss.gDrvSPIObj
                0x00000000a00045a8       0x50 build/pic32mz/production/_ext/2120450970/drv_spi.o
 .bss.gDrvSDSPITempCidData
                0x00000000a00045f8       0x14 build/pic32mz/production/_ext/757013429/drv_sdspi.o
 .bss.gDrvSDSPICidData
                0x00000000a000460c       0x14 build/pic32mz/production/_ext/757013429/drv_sdspi.o
 .bss.gDrvSDSPICsdData
                0x00000000a0004620       0x14 build/pic32mz/production/_ext/757013429/drv_sdspi.o
 .bss.gDrvSDSPICmdResponseBuffer
                0x00000000a0004634       0x10 build/pic32mz/production/_ext/757013429/drv_sdspi.o
 .bss.FATFSDirObject
                0x00000000a0004644      0x578 build/pic32mz/production/_ext/252936118/sys_fs_fat_interface.o
 .bss.gDrvSDSPIClkPulseData
                0x00000000a0004bbc        0xa build/pic32mz/production/_ext/757013429/drv_sdspi.o

.bss            0x0000000080004bd0     0x1c34
 .bss           0x0000000080004bd0     0x1c34 build/pic32mz/production/_ext/252936118/sys_fs.o
                0x0000000080004bd0                gSYSFSDirObj
                0x0000000080004d60                gSYSFSFileObj
                0x00000000800067f0                gSYSFSMountPoint

.bss            0x0000000080006808     0x1224
 .bss           0x0000000080006808      0xe1c build/pic32mz/production/_ext/1360937237/mdot.o
                0x0000000080006808                strTest
                0x00000000800068d0                payload
                0x0000000080006910                stringBuffer
                0x000000008000750c                mDotData
 .bss           0x0000000080007624      0x408 c:/program files/microchip/xc32/v4.00/bin/bin/../../lib/gcc/pic32mx/8.3.1/../../../../pic32mx/lib/fpu64\libc-musl.a(stdin.o)

.bss            0x0000000080007a2c      0x5f8
 .bss           0x0000000080007a2c      0x390 build/pic32mz/production/_ext/1192657380/ff.o
 .bss           0x0000000080007dbc      0x268 build/pic32mz/production/_ext/953055421/initialization.o
                0x0000000080007dbc                sysObj

.bss            0x0000000080008028      0x3e4
 .bss           0x0000000080008028      0x210 c:/program files/microchip/xc32/v4.00/bin/bin/../../lib/gcc/pic32mx/8.3.1/../../../../pic32mx/lib/fpu64\libc-musl.a(malloc.o)
 .bss           0x0000000080008238      0x1d4 build/pic32mz/production/_ext/1783409726/drv_usbhs.o
                0x0000000080008238                gDrvUSBEndpoints
                0x00000000800082d8                gDrvUSBObj

.bss            0x000000008000840c      0x320
 .bss           0x000000008000840c      0x1c8 build/pic32mz/production/_ext/1360937237/communication.o
                0x000000008000840c                uartComData6
 .bss           0x00000000800085d4      0x158 build/pic32mz/production/_ext/202551283/usb_device.o

.bss            0x000000008000872c      0x1f4
 .bss           0x000000008000872c      0x108 build/pic32mz/production/_ext/1360937237/app.o
                0x000000008000872c                appData
 .bss           0x0000000080008834       0xec build/pic32mz/production/_ext/1636986698/sys_time.o

.bss            0x0000000080008920      0x180
 .bss           0x0000000080008920       0xd0 build/pic32mz/production/_ext/757013429/drv_sdspi.o
 .bss           0x00000000800089f0       0xb0 build/pic32mz/production/_ext/202551283/usb_device_cdc.o
                0x00000000800089f0                gUSBDeviceCDCInstance
                0x0000000080008a34                gUSBDeviceCDCIRP

.data           0x0000000080008aa0       0xe0
 .data          0x0000000080008aa0       0x70 c:/program files/microchip/xc32/v4.00/bin/bin/../../lib/gcc/pic32mx/8.3.1/../../../../pic32mx/lib/fpu64\libc-musl.a(stdin.o)
                0x0000000080008aa0                __stdin_used
 .data          0x0000000080008b10       0x70 c:/program files/microchip/xc32/v4.00/bin/bin/../../lib/gcc/pic32mx/8.3.1/../../../../pic32mx/lib/fpu64\libc-musl.a(stdout.o)
                0x0000000080008b10                __stdout_used

.data           0x0000000080008b80       0x50
 .data          0x0000000080008b80       0x50 build/pic32mz/production/_ext/1783409726/drv_usbhs_device.o
                0x0000000080008b80                gDrvUSBHSDeviceInterface

.bss            0x0000000080008bd0       0x98
 .bss           0x0000000080008bd0       0x50 c:/program files/microchip/xc32/v4.00/bin/bin/../../lib/gcc/pic32mx/8.3.1/../../../../pic32mx/lib/fpu64\libc-musl.a(libc.o)
                0x0000000080008bd0                __progname_full
                0x0000000080008bd0                program_invocation_name
                0x0000000080008bd4                program_invocation_short_name
                0x0000000080008bd4                __progname
                0x0000000080008bd8                __sysinfo
                0x0000000080008bdc                __hwcap
                0x0000000080008be0                __libc
 .bss           0x0000000080008c20       0x48 build/pic32mz/production/_ext/252936118/sys_fs_media_manager.o
                0x0000000080008c20                gSYSFSVolumeObject
                0x0000000080008c3c                gSYSFSMediaObject

.bss            0x0000000080008c68       0x68
 .bss           0x0000000080008c68       0x34 build/pic32mz/production/_ext/249272802/plib_i2c2_master.o
 .bss           0x0000000080008c9c       0x34 build/pic32mz/production/_ext/249272802/plib_i2c4_master.o

.bss            0x0000000080008cd0       0x68
 .bss           0x0000000080008cd0       0x34 build/pic32mz/production/_ext/330555317/plib_uart6.o
                0x0000000080008cd0                uart6Obj
 .bss           0x0000000080008d04       0x34 build/pic32mz/production/_ext/330555317/plib_uart3.o
                0x0000000080008d04                uart3Obj

.bss            0x0000000080008d38       0x68
 .bss           0x0000000080008d38       0x34 build/pic32mz/production/_ext/330555317/plib_uart4.o
                0x0000000080008d38                uart4Obj
 .bss           0x0000000080008d6c       0x34 build/pic32mz/production/_ext/330555317/plib_uart1.o
                0x0000000080008d6c                uart1Obj

.bss            0x0000000080008da0       0x34
 .bss           0x0000000080008da0       0x34 build/pic32mz/production/_ext/330555317/plib_uart2.o
                0x0000000080008da0                uart2Obj

.data           0x0000000080008dd4       0x2c
 .data          0x0000000080008dd4       0x2c build/pic32mz/production/_ext/252936118/sys_fs_media_manager.o
                0x0000000080008dd4                gSYSFSMediaManagerObj
                0x0000000080008dec                gSYSFSVolumeName

.bss            0x0000000080008e00       0x50
 .bss           0x0000000080008e00       0x28 build/pic32mz/production/_ext/867254719/plib_spi4_master.o
                0x0000000080008e00                spi4Obj
 .bss           0x0000000080008e28       0x28 build/pic32mz/production/_ext/867254719/plib_spi2_master.o
                0x0000000080008e28                spi2Obj

.bss            0x0000000080008e50       0x4c
 .bss           0x0000000080008e50       0x28 build/pic32mz/production/_ext/867254719/plib_spi1_master.o
                0x0000000080008e50                spi1Obj
 .bss           0x0000000080008e78       0x24 c:/program files/microchip/xc32/v4.00/bin/bin/../../lib/gcc/pic32mx/8.3.1/../../../../pic32mx/lib/fpu64\libpic32.a(sbrk.o)
                0x0000000080008e94                _maxbrk
                0x0000000080008e98                _minbrk

.bss            0x0000000080008e9c       0x18
 .bss           0x0000000080008e9c       0x18 build/pic32mz/production/_ext/330152374/plib_gpio.o
                0x0000000080008e9c                portPinCbObj

.data._stdin    0x000000008000009c        0x4
 .data._stdin   0x000000008000009c        0x4 c:/program files/microchip/xc32/v4.00/bin/bin/../../lib/gcc/pic32mx/8.3.1/../../../../pic32mx/lib/fpu64\libc-musl.a(stdin.o)
                0x000000008000009c                _stdin

.data._stdout   0x0000000080006804        0x4
 .data._stdout  0x0000000080006804        0x4 c:/program files/microchip/xc32/v4.00/bin/bin/../../lib/gcc/pic32mx/8.3.1/../../../../pic32mx/lib/fpu64\libc-musl.a(stdout.o)
                0x0000000080006804                _stdout

.bss.errno      0x0000000080008024        0x4
 .bss.errno     0x0000000080008024        0x4 c:/program files/microchip/xc32/v4.00/bin/bin/../../lib/gcc/pic32mx/8.3.1/../../../../pic32mx/lib/fpu64\libpic32.a(errno.o)
                0x0000000080008024                errno

._debug_exception
                0x00000000bfc00480       0x2c
 ._debug_exception
                0x00000000bfc00480       0x2c c:/program files/microchip/xc32/v4.00/bin/bin/../../lib/gcc/pic32mx/8.3.1/../../../../pic32mx/lib/fpu64\debug-exception-return.o
                0x00000000bfc00480                __DbgExecReturn

.text.DRV_SDSPI_Tasks
                0x000000009d000338     0x2bcc
 .text.DRV_SDSPI_Tasks
                0x000000009d000338     0x2bcc build/pic32mz/production/_ext/757013429/drv_sdspi.o
                0x000000009d000338                DRV_SDSPI_Tasks

.text._DRV_SDSPI_CommandSend
                0x000000009d002f04      0xdbc
 .text._DRV_SDSPI_CommandSend
                0x000000009d002f04      0xdbc build/pic32mz/production/_ext/757013429/drv_sdspi.o

.text.f_mkfs    0x000000009d003cc0      0xbc4
 .text.f_mkfs   0x000000009d003cc0      0xbc4 build/pic32mz/production/_ext/1192657380/ff.o
                0x000000009d003cc0                f_mkfs

.text._DRV_USBHS_DEVICE_Tasks_ISR
                0x000000009d004884      0x9b4
 .text._DRV_USBHS_DEVICE_Tasks_ISR
                0x000000009d004884      0x9b4 build/pic32mz/production/_ext/1783409726/drv_usbhs_device.o
                0x000000009d004884                _DRV_USBHS_DEVICE_Tasks_ISR

.dinit          0x000000009d005238      0x900
 .dinit         0x000000009d005238      0x900 data_init

.text.SYS_FS_MEDIA_MANAGER_Tasks
                0x000000009d005b38      0x6cc
 .text.SYS_FS_MEDIA_MANAGER_Tasks
                0x000000009d005b38      0x6cc build/pic32mz/production/_ext/252936118/sys_fs_media_manager.o
                0x000000009d005b38                SYS_FS_MEDIA_MANAGER_Tasks

.text           0x000000009d006204      0x6bc
 .text          0x000000009d006204      0x6bc build/pic32mz/production/_ext/1640642171/plib_cache_pic32mz.o
                0x000000009d006204                _pic32_init_cache
                0x000000009d006308                _pic32_clean_cache
                0x000000009d006334                _pic32_clean_dcache
                0x000000009d00638c                _pic32_clean_dcache_nowrite
                0x000000009d0063e4                _pic32_clean_icache
                0x000000009d00643c                _pic32_flush_cache
                0x000000009d006468                _pic32_flush_dcache
                0x000000009d0064fc                _pic32_flush_icache
                0x000000009d006590                _pic32_lock_dcache
                0x000000009d0065e8                _pic32_lock_icache
                0x000000009d006640                _pic32_sync_icache
                0x000000009d00667c                _pic32_get_dcache_associativity
                0x000000009d0066b0                _pic32_get_icache_associativity
                0x000000009d0066e8                _pic32_get_dcache_linesize
                0x000000009d00672c                _pic32_get_icache_linesize
                0x000000009d006774                _pic32_get_dcache_lines_per_way
                0x000000009d0067b0                _pic32_get_icache_lines_per_way
                0x000000009d0067f0                _pic32_get_dcache_size
                0x000000009d006858                _pic32_get_icache_size

.text.follow_path
                0x000000009d0068c0      0x670
 .text.follow_path
                0x000000009d0068c0      0x670 build/pic32mz/production/_ext/1192657380/ff.o

.text.mount_volume
                0x000000009d006f30      0x58c
 .text.mount_volume
                0x000000009d006f30      0x58c build/pic32mz/production/_ext/1192657380/ff.o

.text.__printf_core
                0x000000009d0074bc      0x588
 .text.__printf_core
                0x000000009d0074bc      0x588 c:/program files/microchip/xc32/v4.00/bin/bin/../../lib/gcc/pic32mx/8.3.1/../../../../pic32mx/lib/fpu64\libc-musl.a(__printf_core.o)
                0x000000009d0074bc                __printf_core

.text.DRV_USBHS_Tasks
                0x000000009d007a44      0x568
 .text.DRV_USBHS_Tasks
                0x000000009d007a44      0x568 build/pic32mz/production/_ext/1783409726/drv_usbhs.o
                0x000000009d007a44                DRV_USBHS_Tasks

.text.DRV_USBHS_DEVICE_IRPSubmit
                0x000000009d007fac      0x510
 .text.DRV_USBHS_DEVICE_IRPSubmit
                0x000000009d007fac      0x510 build/pic32mz/production/_ext/1783409726/drv_usbhs_device.o
                0x000000009d007fac                DRV_USBHS_DEVICE_IRPSubmit

.text.f_printf  0x000000009d0084bc      0x4fc
 .text.f_printf
                0x000000009d0084bc      0x4fc build/pic32mz/production/_ext/1192657380/ff.o
                0x000000009d0084bc                f_printf

.text.I2C2_MASTER_InterruptHandler
                0x000000009d0089b8      0x4b4
 .text.I2C2_MASTER_InterruptHandler
                0x000000009d0089b8      0x4b4 build/pic32mz/production/_ext/249272802/plib_i2c2_master.o
                0x000000009d0089b8                I2C2_MASTER_InterruptHandler

.text.I2C4_MASTER_InterruptHandler
                0x000000009d008e6c      0x4b4
 .text.I2C4_MASTER_InterruptHandler
                0x000000009d008e6c      0x4b4 build/pic32mz/production/_ext/249272802/plib_i2c4_master.o
                0x000000009d008e6c                I2C4_MASTER_InterruptHandler

.text.dir_register
                0x000000009d009320      0x448
 .text.dir_register
                0x000000009d009320      0x448 build/pic32mz/production/_ext/1192657380/ff.o

.text._DRV_USBHS_ProcessIRPFIFO
                0x000000009d009768      0x43c
 .text._DRV_USBHS_ProcessIRPFIFO
                0x000000009d009768      0x43c build/pic32mz/production/_ext/1783409726/drv_usbhs_device.o
                0x000000009d009768                _DRV_USBHS_ProcessIRPFIFO

.text           0x000000009d009ba4      0x3f8
 .text          0x000000009d009ba4      0x3f8 c:/program files/microchip/xc32/v4.00/bin/bin/../../lib/gcc/pic32mx/8.3.1/fpu64\libgcc.a(_umoddi3.o)
                0x000000009d009ba4                __umoddi3

.text.f_open    0x000000009d009f9c      0x3f0
 .text.f_open   0x000000009d009f9c      0x3f0 build/pic32mz/production/_ext/1192657380/ff.o
                0x000000009d009f9c                f_open

.text           0x000000009d00a38c      0x3ec
 .text          0x000000009d00a38c      0x3ec c:/program files/microchip/xc32/v4.00/bin/bin/../../lib/gcc/pic32mx/8.3.1/fpu64\libgcc.a(_udivdi3.o)
                0x000000009d00a38c                __udivdi3

.text.DRV_USBHS_DEVICE_EndpointEnable
                0x000000009d00a778      0x3e8
 .text.DRV_USBHS_DEVICE_EndpointEnable
                0x000000009d00a778      0x3e8 build/pic32mz/production/_ext/1783409726/drv_usbhs_device.o
                0x000000009d00a778                DRV_USBHS_DEVICE_EndpointEnable

.text.mDotCommand
                0x000000009d00ab60      0x3bc
 .text.mDotCommand
                0x000000009d00ab60      0x3bc build/pic32mz/production/_ext/1360937237/mdot.o
                0x000000009d00ab60                mDotCommand

.rodata         0x000000009d00af1c      0x3b0
 .rodata        0x000000009d00af1c      0x3b0 build/pic32mz/production/_ext/1192657380/ffunicode.o

.text.DRV_SDSPI_SetupXfer
                0x000000009d00b2cc      0x32c
 .text.DRV_SDSPI_SetupXfer
                0x000000009d00b2cc      0x32c build/pic32mz/production/_ext/757013429/drv_sdspi.o
                0x000000009d00b2cc                DRV_SDSPI_SetupXfer

.text.f_write   0x000000009d00b5f8      0x328
 .text.f_write  0x000000009d00b5f8      0x328 build/pic32mz/production/_ext/1192657380/ff.o
                0x000000009d00b5f8                f_write

.text.SPI4_RX_InterruptHandler
                0x000000009d00b920      0x324
 .text.SPI4_RX_InterruptHandler
                0x000000009d00b920      0x324 build/pic32mz/production/_ext/867254719/plib_spi4_master.o
                0x000000009d00b920                SPI4_RX_InterruptHandler

.text.SPI2_RX_InterruptHandler
                0x000000009d00bc44      0x324
 .text.SPI2_RX_InterruptHandler
                0x000000009d00bc44      0x324 build/pic32mz/production/_ext/867254719/plib_spi2_master.o
                0x000000009d00bc44                SPI2_RX_InterruptHandler

.text.SPI1_RX_InterruptHandler
                0x000000009d00bf68      0x324
 .text.SPI1_RX_InterruptHandler
                0x000000009d00bf68      0x324 build/pic32mz/production/_ext/867254719/plib_spi1_master.o
                0x000000009d00bf68                SPI1_RX_InterruptHandler

.text.SPI4_WriteRead
                0x000000009d00c28c      0x310
 .text.SPI4_WriteRead
                0x000000009d00c28c      0x310 build/pic32mz/production/_ext/867254719/plib_spi4_master.o
                0x000000009d00c28c                SPI4_WriteRead

.text.DRV_SPI_WriteReadTransferAdd
                0x000000009d00c59c      0x304
 .text.DRV_SPI_WriteReadTransferAdd
                0x000000009d00c59c      0x304 build/pic32mz/production/_ext/2120450970/drv_spi.o
                0x000000009d00c59c                DRV_SPI_WriteReadTransferAdd

.text.SYS_FS_MEDIA_MANAGER_SectorWrite
                0x000000009d00c8a0      0x2f8
 .text.SYS_FS_MEDIA_MANAGER_SectorWrite
                0x000000009d00c8a0      0x2f8 build/pic32mz/production/_ext/252936118/sys_fs_media_manager.o
                0x000000009d00c8a0                SYS_FS_MEDIA_MANAGER_SectorWrite

.text.f_lseek   0x000000009d00cb98      0x2f0
 .text.f_lseek  0x000000009d00cb98      0x2f0 build/pic32mz/production/_ext/1192657380/ff.o
                0x000000009d00cb98                f_lseek

.text.mDotTasks
                0x000000009d00ce88      0x2f0
 .text.mDotTasks
                0x000000009d00ce88      0x2f0 build/pic32mz/production/_ext/1360937237/mdot.o
                0x000000009d00ce88                mDotTasks

.text.dir_find  0x000000009d00d178      0x2e0
 .text.dir_find
                0x000000009d00d178      0x2e0 build/pic32mz/production/_ext/1192657380/ff.o

.text.get_fileinfo
                0x000000009d00d458      0x2c0
 .text.get_fileinfo
                0x000000009d00d458      0x2c0 build/pic32mz/production/_ext/1192657380/ff.o

.text.f_setlabel
                0x000000009d00d718      0x2bc
 .text.f_setlabel
                0x000000009d00d718      0x2bc build/pic32mz/production/_ext/1192657380/ff.o
                0x000000009d00d718                f_setlabel

.text.f_read    0x000000009d00d9d4      0x2b8
 .text.f_read   0x000000009d00d9d4      0x2b8 build/pic32mz/production/_ext/1192657380/ff.o
                0x000000009d00d9d4                f_read

.text.GPIO_Initialize
                0x000000009d00dc8c      0x2b0
 .text.GPIO_Initialize
                0x000000009d00dc8c      0x2b0 build/pic32mz/production/_ext/330152374/plib_gpio.o
                0x000000009d00dc8c                GPIO_Initialize

.text.malloc    0x000000009d00df3c      0x29c
 .text.malloc   0x000000009d00df3c      0x29c c:/program files/microchip/xc32/v4.00/bin/bin/../../lib/gcc/pic32mx/8.3.1/../../../../pic32mx/lib/fpu64\libc-musl.a(malloc.o)
                0x000000009d00df3c                malloc

.text._DRV_USBHS_DEVICE_Tasks_ISR_USBDMA
                0x000000009d00e1d8      0x294
 .text._DRV_USBHS_DEVICE_Tasks_ISR_USBDMA
                0x000000009d00e1d8      0x294 build/pic32mz/production/_ext/1783409726/drv_usbhs_device.o
                0x000000009d00e1d8                _DRV_USBHS_DEVICE_Tasks_ISR_USBDMA

.text.create_partition
                0x000000009d00e46c      0x290
 .text.create_partition
                0x000000009d00e46c      0x290 build/pic32mz/production/_ext/1192657380/ff.o

.text.DRV_USBHS_DEVICE_Detach
                0x000000009d00e6fc      0x270
 .text.DRV_USBHS_DEVICE_Detach
                0x000000009d00e6fc      0x270 build/pic32mz/production/_ext/1783409726/drv_usbhs_device.o
                0x000000009d00e6fc                DRV_USBHS_DEVICE_Detach

.text.DRV_USBHS_DEVICE_EndpointDisable
                0x000000009d00e96c      0x26c
 .text.DRV_USBHS_DEVICE_EndpointDisable
                0x000000009d00e96c      0x26c build/pic32mz/production/_ext/1783409726/drv_usbhs_device.o
                0x000000009d00e96c                DRV_USBHS_DEVICE_EndpointDisable

.text.dir_read  0x000000009d00ebd8      0x258
 .text.dir_read
                0x000000009d00ebd8      0x258 build/pic32mz/production/_ext/1192657380/ff.o

.text.USB_DEVICE_Tasks
                0x000000009d00ee30      0x248
 .text.USB_DEVICE_Tasks
                0x000000009d00ee30      0x248 build/pic32mz/production/_ext/202551283/usb_device.o
                0x000000009d00ee30                USB_DEVICE_Tasks

.text.f_getcwd  0x000000009d00f078      0x244
 .text.f_getcwd
                0x000000009d00f078      0x244 build/pic32mz/production/_ext/1192657380/ff.o
                0x000000009d00f078                f_getcwd

.text._USB_DEVICE_ControlTransferHandler
                0x000000009d00f2bc      0x230
 .text._USB_DEVICE_ControlTransferHandler
                0x000000009d00f2bc      0x230 build/pic32mz/production/_ext/202551283/usb_device.o
                0x000000009d00f2bc                _USB_DEVICE_ControlTransferHandler

.text.create_chain
                0x000000009d00f4ec      0x22c
 .text.create_chain
                0x000000009d00f4ec      0x22c build/pic32mz/production/_ext/1192657380/ff.o

.text.DRV_USBHS_DEVICE_EndpointStall
                0x000000009d00f718      0x220
 .text.DRV_USBHS_DEVICE_EndpointStall
                0x000000009d00f718      0x220 build/pic32mz/production/_ext/1783409726/drv_usbhs_device.o
                0x000000009d00f718                DRV_USBHS_DEVICE_EndpointStall

.text._USB_DEVICE_ProcessStandardDeviceSetRequests
                0x000000009d00f938      0x220
 .text._USB_DEVICE_ProcessStandardDeviceSetRequests
                0x000000009d00f938      0x220 build/pic32mz/production/_ext/202551283/usb_device.o
                0x000000009d00f938                _USB_DEVICE_ProcessStandardDeviceSetRequests

.text._USB_DEVICE_Other_Speed_Descriptor_Request
                0x000000009d00fb58      0x214
 .text._USB_DEVICE_Other_Speed_Descriptor_Request
                0x000000009d00fb58      0x214 build/pic32mz/production/_ext/202551283/usb_device.o
                0x000000009d00fb58                _USB_DEVICE_Other_Speed_Descriptor_Request

.text.__fmt_x   0x000000009d00fd6c      0x210
 .text.__fmt_x  0x000000009d00fd6c      0x210 c:/program files/microchip/xc32/v4.00/bin/bin/../../lib/gcc/pic32mx/8.3.1/../../../../pic32mx/lib/fpu64\libc-musl.a(__fmt_x.o)
                0x000000009d00fd6c                __fmt_x_needed
                0x000000009d00fd6c                __fmt_x

.text._USB_DEVICE_ProcessStandardDeviceGetRequests
                0x000000009d00ff7c      0x20c
 .text._USB_DEVICE_ProcessStandardDeviceGetRequests
                0x000000009d00ff7c      0x20c build/pic32mz/production/_ext/202551283/usb_device.o
                0x000000009d00ff7c                _USB_DEVICE_ProcessStandardDeviceGetRequests

.text.put_fat   0x000000009d010188      0x208
 .text.put_fat  0x000000009d010188      0x208 build/pic32mz/production/_ext/1192657380/ff.o

.text.disk_write
                0x000000009d010390      0x208
 .text.disk_write
                0x000000009d010390      0x208 build/pic32mz/production/_ext/727274963/diskio.o
                0x000000009d010390                disk_write

.text.DRV_USBHS_DEVICE_EndpointStallClear
                0x000000009d010598      0x1f4
 .text.DRV_USBHS_DEVICE_EndpointStallClear
                0x000000009d010598      0x1f4 build/pic32mz/production/_ext/1783409726/drv_usbhs_device.o
                0x000000009d010598                DRV_USBHS_DEVICE_EndpointStallClear

.text.f_mkdir   0x000000009d01078c      0x1f0
 .text.f_mkdir  0x000000009d01078c      0x1f0 build/pic32mz/production/_ext/1192657380/ff.o
                0x000000009d01078c                f_mkdir

.text.disk_read
                0x000000009d01097c      0x1f0
 .text.disk_read
                0x000000009d01097c      0x1f0 build/pic32mz/production/_ext/727274963/diskio.o
                0x000000009d01097c                disk_read

.text.SYS_TIME_PLIBCallback
                0x000000009d010b6c      0x1e0
 .text.SYS_TIME_PLIBCallback
                0x000000009d010b6c      0x1e0 build/pic32mz/production/_ext/1636986698/sys_time.o

.text.f_rename  0x000000009d010d4c      0x1d0
 .text.f_rename
                0x000000009d010d4c      0x1d0 build/pic32mz/production/_ext/1192657380/ff.o
                0x000000009d010d4c                f_rename

.text.CORE_TIMER_Handler
                0x000000009d010f1c      0x1d0
 .text.CORE_TIMER_Handler
                0x000000009d010f1c      0x1d0 build/pic32mz/production/_ext/953055421/interrupts.o
                0x000000009d010f1c                CORE_TIMER_Handler

.text.TIMER_2_Handler
                0x000000009d0110ec      0x1d0
 .text.TIMER_2_Handler
                0x000000009d0110ec      0x1d0 build/pic32mz/production/_ext/953055421/interrupts.o
                0x000000009d0110ec                TIMER_2_Handler

.text.SPI1_RX_Handler
                0x000000009d0112bc      0x1d0
 .text.SPI1_RX_Handler
                0x000000009d0112bc      0x1d0 build/pic32mz/production/_ext/953055421/interrupts.o
                0x000000009d0112bc                SPI1_RX_Handler

.text.SPI1_TX_Handler
                0x000000009d01148c      0x1d0
 .text.SPI1_TX_Handler
                0x000000009d01148c      0x1d0 build/pic32mz/production/_ext/953055421/interrupts.o
                0x000000009d01148c                SPI1_TX_Handler

.text.UART1_FAULT_Handler
                0x000000009d01165c      0x1d0
 .text.UART1_FAULT_Handler
                0x000000009d01165c      0x1d0 build/pic32mz/production/_ext/953055421/interrupts.o
                0x000000009d01165c                UART1_FAULT_Handler

.text.UART1_RX_Handler
                0x000000009d01182c      0x1d0
 .text.UART1_RX_Handler
                0x000000009d01182c      0x1d0 build/pic32mz/production/_ext/953055421/interrupts.o
                0x000000009d01182c                UART1_RX_Handler

.text.UART1_TX_Handler
                0x000000009d0119fc      0x1d0
 .text.UART1_TX_Handler
                0x000000009d0119fc      0x1d0 build/pic32mz/production/_ext/953055421/interrupts.o
                0x000000009d0119fc                UART1_TX_Handler

.text.CHANGE_NOTICE_J_Handler
                0x000000009d011bcc      0x1d0
 .text.CHANGE_NOTICE_J_Handler
                0x000000009d011bcc      0x1d0 build/pic32mz/production/_ext/953055421/interrupts.o
                0x000000009d011bcc                CHANGE_NOTICE_J_Handler

.text.USB_Handler
                0x000000009d011d9c      0x1d0
 .text.USB_Handler
                0x000000009d011d9c      0x1d0 build/pic32mz/production/_ext/953055421/interrupts.o
                0x000000009d011d9c                USB_Handler

.text.USB_DMA_Handler
                0x000000009d011f6c      0x1d0
 .text.USB_DMA_Handler
                0x000000009d011f6c      0x1d0 build/pic32mz/production/_ext/953055421/interrupts.o
                0x000000009d011f6c                USB_DMA_Handler

.text.SPI2_RX_Handler
                0x000000009d01213c      0x1d0
 .text.SPI2_RX_Handler
                0x000000009d01213c      0x1d0 build/pic32mz/production/_ext/953055421/interrupts.o
                0x000000009d01213c                SPI2_RX_Handler

.text.SPI2_TX_Handler
                0x000000009d01230c      0x1d0
 .text.SPI2_TX_Handler
                0x000000009d01230c      0x1d0 build/pic32mz/production/_ext/953055421/interrupts.o
                0x000000009d01230c                SPI2_TX_Handler

.text.UART2_FAULT_Handler
                0x000000009d0124dc      0x1d0
 .text.UART2_FAULT_Handler
                0x000000009d0124dc      0x1d0 build/pic32mz/production/_ext/953055421/interrupts.o
                0x000000009d0124dc                UART2_FAULT_Handler

.text.UART2_RX_Handler
                0x000000009d0126ac      0x1d0
 .text.UART2_RX_Handler
                0x000000009d0126ac      0x1d0 build/pic32mz/production/_ext/953055421/interrupts.o
                0x000000009d0126ac                UART2_RX_Handler

.text.UART2_TX_Handler
                0x000000009d01287c      0x1d0
 .text.UART2_TX_Handler
                0x000000009d01287c      0x1d0 build/pic32mz/production/_ext/953055421/interrupts.o
                0x000000009d01287c                UART2_TX_Handler

.text.I2C2_BUS_Handler
                0x000000009d012a4c      0x1d0
 .text.I2C2_BUS_Handler
                0x000000009d012a4c      0x1d0 build/pic32mz/production/_ext/953055421/interrupts.o
                0x000000009d012a4c                I2C2_BUS_Handler

.text.I2C2_MASTER_Handler
                0x000000009d012c1c      0x1d0
 .text.I2C2_MASTER_Handler
                0x000000009d012c1c      0x1d0 build/pic32mz/production/_ext/953055421/interrupts.o
                0x000000009d012c1c                I2C2_MASTER_Handler

.text.UART3_FAULT_Handler
                0x000000009d012dec      0x1d0
 .text.UART3_FAULT_Handler
                0x000000009d012dec      0x1d0 build/pic32mz/production/_ext/953055421/interrupts.o
                0x000000009d012dec                UART3_FAULT_Handler

.text.UART3_RX_Handler
                0x000000009d012fbc      0x1d0
 .text.UART3_RX_Handler
                0x000000009d012fbc      0x1d0 build/pic32mz/production/_ext/953055421/interrupts.o
                0x000000009d012fbc                UART3_RX_Handler

.text.UART3_TX_Handler
                0x000000009d01318c      0x1d0
 .text.UART3_TX_Handler
                0x000000009d01318c      0x1d0 build/pic32mz/production/_ext/953055421/interrupts.o
                0x000000009d01318c                UART3_TX_Handler

.text.SPI4_RX_Handler
                0x000000009d01335c      0x1d0
 .text.SPI4_RX_Handler
                0x000000009d01335c      0x1d0 build/pic32mz/production/_ext/953055421/interrupts.o
                0x000000009d01335c                SPI4_RX_Handler

.text.SPI4_TX_Handler
                0x000000009d01352c      0x1d0
 .text.SPI4_TX_Handler
                0x000000009d01352c      0x1d0 build/pic32mz/production/_ext/953055421/interrupts.o
                0x000000009d01352c                SPI4_TX_Handler

.text.UART4_FAULT_Handler
                0x000000009d0136fc      0x1d0
 .text.UART4_FAULT_Handler
                0x000000009d0136fc      0x1d0 build/pic32mz/production/_ext/953055421/interrupts.o
                0x000000009d0136fc                UART4_FAULT_Handler

.text.UART4_RX_Handler
                0x000000009d0138cc      0x1d0
 .text.UART4_RX_Handler
                0x000000009d0138cc      0x1d0 build/pic32mz/production/_ext/953055421/interrupts.o
                0x000000009d0138cc                UART4_RX_Handler

.text.UART4_TX_Handler
                0x000000009d013a9c      0x1d0
 .text.UART4_TX_Handler
                0x000000009d013a9c      0x1d0 build/pic32mz/production/_ext/953055421/interrupts.o
                0x000000009d013a9c                UART4_TX_Handler

.text.I2C4_BUS_Handler
                0x000000009d013c6c      0x1d0
 .text.I2C4_BUS_Handler
                0x000000009d013c6c      0x1d0 build/pic32mz/production/_ext/953055421/interrupts.o
                0x000000009d013c6c                I2C4_BUS_Handler

.text.I2C4_MASTER_Handler
                0x000000009d013e3c      0x1d0
 .text.I2C4_MASTER_Handler
                0x000000009d013e3c      0x1d0 build/pic32mz/production/_ext/953055421/interrupts.o
                0x000000009d013e3c                I2C4_MASTER_Handler

.text.UART6_FAULT_Handler
                0x000000009d01400c      0x1d0
 .text.UART6_FAULT_Handler
                0x000000009d01400c      0x1d0 build/pic32mz/production/_ext/953055421/interrupts.o
                0x000000009d01400c                UART6_FAULT_Handler

.text.UART6_RX_Handler
                0x000000009d0141dc      0x1d0
 .text.UART6_RX_Handler
                0x000000009d0141dc      0x1d0 build/pic32mz/production/_ext/953055421/interrupts.o
                0x000000009d0141dc                UART6_RX_Handler

.text.UART6_TX_Handler
                0x000000009d0143ac      0x1d0
 .text.UART6_TX_Handler
                0x000000009d0143ac      0x1d0 build/pic32mz/production/_ext/953055421/interrupts.o
                0x000000009d0143ac                UART6_TX_Handler

.text.communication_task
                0x000000009d01457c      0x1d0
 .text.communication_task
                0x000000009d01457c      0x1d0 build/pic32mz/production/_ext/1360937237/communication.o
                0x000000009d01457c                communication_task

.text.DRV_USBHS_DEVICE_IRPCancelAll
                0x000000009d01474c      0x1c4
 .text.DRV_USBHS_DEVICE_IRPCancelAll
                0x000000009d01474c      0x1c4 build/pic32mz/production/_ext/1783409726/drv_usbhs_device.o
                0x000000009d01474c                DRV_USBHS_DEVICE_IRPCancelAll

.text._DRV_SPI_PlibCallbackHandler
                0x000000009d014910      0x1b4
 .text._DRV_SPI_PlibCallbackHandler
                0x000000009d014910      0x1b4 build/pic32mz/production/_ext/2120450970/drv_spi.o

.text.DRV_SPI_Lock
                0x000000009d014ac4      0x1b4
 .text.DRV_SPI_Lock
                0x000000009d014ac4      0x1b4 build/pic32mz/production/_ext/2120450970/drv_spi.o
                0x000000009d014ac4                DRV_SPI_Lock

.text.f_getfree
                0x000000009d014c78      0x1b0
 .text.f_getfree
                0x000000009d014c78      0x1b0 build/pic32mz/production/_ext/1192657380/ff.o
                0x000000009d014c78                f_getfree

.rodata         0x000000009d014e28      0x1a8
 .rodata        0x000000009d014e28      0x1a8 build/pic32mz/production/_ext/953055421/usb_device_init_data.o
                0x000000009d014e28                usbDevInitData
                0x000000009d014e5c                usbMasterDescriptor
                0x000000009d014e88                stringDescriptors
                0x000000009d014e94                sd002
                0x000000009d014ec8                sd001
                0x000000009d014efc                sd000
                0x000000009d014f00                fullSpeedConfigDescSet
                0x000000009d014f04                fullSpeedConfigurationDescriptor
                0x000000009d014f48                highSpeedConfigDescSet
                0x000000009d014f4c                highSpeedConfigurationDescriptor
                0x000000009d014f90                deviceQualifierDescriptor1
                0x000000009d014f9c                deviceDescriptor
                0x000000009d014fb0                funcRegistrationTable
                0x000000009d014fc4                cdcInit0

.text.DRV_SDSPI_Initialize
                0x000000009d014fd0      0x1a4
 .text.DRV_SDSPI_Initialize
                0x000000009d014fd0      0x1a4 build/pic32mz/production/_ext/757013429/drv_sdspi.o
                0x000000009d014fd0                DRV_SDSPI_Initialize

.text           0x000000009d015174      0x1a0
 .text          0x000000009d015174      0x1a0 c:/program files/microchip/xc32/v4.00/bin/bin/../../lib/gcc/pic32mx/8.3.1/../../../../pic32mx/lib/fpu64\libpic32.a(strcpy.o)
                0x000000009d015174                strcpy

.text.DRV_SPI_Open
                0x000000009d015314      0x19c
 .text.DRV_SPI_Open
                0x000000009d015314      0x19c build/pic32mz/production/_ext/2120450970/drv_spi.o
                0x000000009d015314                DRV_SPI_Open

.rodata         0x000000009d0154b0      0x19c
 .rodata        0x000000009d0154b0      0x19c build/pic32mz/production/_ext/953055421/initialization.o
                0x000000009d0154b0                sysTimeInitData
                0x000000009d0154b8                sysTimePlibAPI
                0x000000009d0154d4                sysFSInit
                0x000000009d0154dc                FatFsFunctions
                0x000000009d015564                sysfsMountTable
                0x000000009d015574                drvUSBInit
                0x000000009d0155a4                drvSPI0InitData
                0x000000009d0155c8                drvSPI0InterruptSources
                0x000000009d0155d8                drvSPI0remapClockPhase
                0x000000009d0155e0                drvSPI0remapClockPolarity
                0x000000009d0155e8                drvSPI0remapDataBits
                0x000000009d015610                drvSPI0PlibAPI
                0x000000009d015620                drvSDSPI0InitData

.text.free      0x000000009d01564c      0x19c
 .text.free     0x000000009d01564c      0x19c c:/program files/microchip/xc32/v4.00/bin/bin/../../lib/gcc/pic32mx/8.3.1/../../../../pic32mx/lib/fpu64\libc-musl.a(malloc.o)
                0x000000009d01564c                free

.text.dir_next  0x000000009d0157e8      0x194
 .text.dir_next
                0x000000009d0157e8      0x194 build/pic32mz/production/_ext/1192657380/ff.o

.text.check_fs  0x000000009d01597c      0x194
 .text.check_fs
                0x000000009d01597c      0x194 build/pic32mz/production/_ext/1192657380/ff.o

.text._USB_DEVICE_Ep0ReceiveCompleteCallback
                0x000000009d015b10      0x190
 .text._USB_DEVICE_Ep0ReceiveCompleteCallback
                0x000000009d015b10      0x190 build/pic32mz/production/_ext/202551283/usb_device.o
                0x000000009d015b10                _USB_DEVICE_Ep0ReceiveCompleteCallback

.text.__pop_int
                0x000000009d015ca0      0x188
 .text.__pop_int
                0x000000009d015ca0      0x188 c:/program files/microchip/xc32/v4.00/bin/bin/../../lib/gcc/pic32mx/8.3.1/../../../../pic32mx/lib/fpu64\libc-musl.a(__pop_int.o)
                0x000000009d015ca0                __pop_int_needed
                0x000000009d015ca0                __pop_int

.text.get_fat   0x000000009d015e28      0x184
 .text.get_fat  0x000000009d015e28      0x184 build/pic32mz/production/_ext/1192657380/ff.o

.text.SYS_TIME_HwTimerCompareUpdate
                0x000000009d015fac      0x17c
 .text.SYS_TIME_HwTimerCompareUpdate
                0x000000009d015fac      0x17c build/pic32mz/production/_ext/1636986698/sys_time.o

.text.SYS_Initialize
                0x000000009d016128      0x17c
 .text.SYS_Initialize
                0x000000009d016128      0x17c build/pic32mz/production/_ext/953055421/initialization.o
                0x000000009d016128                SYS_Initialize

.text.DRV_SDSPI_Open
                0x000000009d0162a4      0x178
 .text.DRV_SDSPI_Open
                0x000000009d0162a4      0x178 build/pic32mz/production/_ext/757013429/drv_sdspi.o
                0x000000009d0162a4                DRV_SDSPI_Open

.text._USB_DEVICE_CDC_ACMSetUpPacketHandler
                0x000000009d01641c      0x170
 .text._USB_DEVICE_CDC_ACMSetUpPacketHandler
                0x000000009d01641c      0x170 build/pic32mz/production/_ext/202551283/usb_device_cdc_acm.o
                0x000000009d01641c                _USB_DEVICE_CDC_ACMSetUpPacketHandler

.text.SPI4_TX_InterruptHandler
                0x000000009d01658c      0x16c
 .text.SPI4_TX_InterruptHandler
                0x000000009d01658c      0x16c build/pic32mz/production/_ext/867254719/plib_spi4_master.o
                0x000000009d01658c                SPI4_TX_InterruptHandler

.text.SPI2_TX_InterruptHandler
                0x000000009d0166f8      0x16c
 .text.SPI2_TX_InterruptHandler
                0x000000009d0166f8      0x16c build/pic32mz/production/_ext/867254719/plib_spi2_master.o
                0x000000009d0166f8                SPI2_TX_InterruptHandler

.text.SPI1_TX_InterruptHandler
                0x000000009d016864      0x16c
 .text.SPI1_TX_InterruptHandler
                0x000000009d016864      0x16c build/pic32mz/production/_ext/867254719/plib_spi1_master.o
                0x000000009d016864                SPI1_TX_InterruptHandler

.text.dir_sdi   0x000000009d0169d0      0x16c
 .text.dir_sdi  0x000000009d0169d0      0x16c build/pic32mz/production/_ext/1192657380/ff.o

.text           0x000000009d016b3c      0x2d0
 .text          0x000000009d016b3c      0x168 c:/program files/microchip/xc32/v4.00/bin/bin/../../lib/gcc/pic32mx/8.3.1/../../../../pic32mx/lib/fpu64\libpic32.a(memcpy.o)
                0x000000009d016b3c                memcpy
 .text          0x000000009d016ca4      0x168 c:/program files/microchip/xc32/v4.00/bin/bin/../../lib/gcc/pic32mx/8.3.1/../../../../pic32mx/lib/fpu64\libpic32.a(strlen.o)
                0x000000009d016ca4                strlen

.text.DRV_USBHS_DEVICE_TestModeEnter
                0x000000009d016e0c      0x164
 .text.DRV_USBHS_DEVICE_TestModeEnter
                0x000000009d016e0c      0x164 build/pic32mz/production/_ext/1783409726/drv_usbhs_device.o
                0x000000009d016e0c                DRV_USBHS_DEVICE_TestModeEnter

.text.f_truncate
                0x000000009d016f70      0x15c
 .text.f_truncate
                0x000000009d016f70      0x15c build/pic32mz/production/_ext/1192657380/ff.o
                0x000000009d016f70                f_truncate

.text.USB_DEVICE_Initialize
                0x000000009d0170cc      0x15c
 .text.USB_DEVICE_Initialize
                0x000000009d0170cc      0x15c build/pic32mz/production/_ext/202551283/usb_device.o
                0x000000009d0170cc                USB_DEVICE_Initialize

.text.DRV_SDSPI_Close
                0x000000009d017228      0x158
 .text.DRV_SDSPI_Close
                0x000000009d017228      0x158 build/pic32mz/production/_ext/757013429/drv_sdspi.o
                0x000000009d017228                DRV_SDSPI_Close

.text.__fmt_d   0x000000009d017380      0x158
 .text.__fmt_d  0x000000009d017380      0x158 c:/program files/microchip/xc32/v4.00/bin/bin/../../lib/gcc/pic32mx/8.3.1/../../../../pic32mx/lib/fpu64\libc-musl.a(__fmt_d.o)
                0x000000009d017380                __fmt_d_needed
                0x000000009d017380                __fmt_d

.text._USB_DEVICE_CDC_Initialization
                0x000000009d0174d8      0x154
 .text._USB_DEVICE_CDC_Initialization
                0x000000009d0174d8      0x154 build/pic32mz/production/_ext/202551283/usb_device_cdc.o
                0x000000009d0174d8                _USB_DEVICE_CDC_Initialization

.text._sbrk_init
                0x000000009d01762c      0x154
 .text._sbrk_init
                0x000000009d01762c      0x154 c:/program files/microchip/xc32/v4.00/bin/bin/../../lib/gcc/pic32mx/8.3.1/../../../../pic32mx/lib/fpu64\libpic32.a(sbrk.o)
                0x000000009d01762c                _sbrk_init

.text.f_unlink  0x000000009d017780      0x148
 .text.f_unlink
                0x000000009d017780      0x148 build/pic32mz/production/_ext/1192657380/ff.o
                0x000000009d017780                f_unlink

.text.DRV_USBHS_Tasks_ISR
                0x000000009d0178c8      0x144
 .text.DRV_USBHS_Tasks_ISR
                0x000000009d0178c8      0x144 build/pic32mz/production/_ext/1783409726/drv_usbhs.o
                0x000000009d0178c8                DRV_USBHS_Tasks_ISR

.text.SYS_TIME_Initialize
                0x000000009d017a0c      0x144
 .text.SYS_TIME_Initialize
                0x000000009d017a0c      0x144 build/pic32mz/production/_ext/1636986698/sys_time.o
                0x000000009d017a0c                SYS_TIME_Initialize

.text.__cvt_u   0x000000009d017b50      0x144
 .text.__cvt_u  0x000000009d017b50      0x144 c:/program files/microchip/xc32/v4.00/bin/bin/../../lib/gcc/pic32mx/8.3.1/../../../../pic32mx/lib/fpu64\libc-musl.a(__fmt_u.o)
                0x000000009d017b50                __cvt_u

.rodata         0x000000009d017c94      0x140
 .rodata        0x000000009d017c94      0x140 build/pic32mz/production/_ext/757013429/drv_sdspi.o
                0x000000009d017c94                gDrvSDSPICmdTable

.text.ff_wtoupper
                0x000000009d017dd4      0x140
 .text.ff_wtoupper
                0x000000009d017dd4      0x140 build/pic32mz/production/_ext/1192657380/ffunicode.o
                0x000000009d017dd4                ff_wtoupper

.text.f_getlabel
                0x000000009d017f14      0x13c
 .text.f_getlabel
                0x000000009d017f14      0x13c build/pic32mz/production/_ext/1192657380/ff.o
                0x000000009d017f14                f_getlabel

.text._DRV_SPI_UpdateTransferSetupAndAssertCS
                0x000000009d018050      0x138
 .text._DRV_SPI_UpdateTransferSetupAndAssertCS
                0x000000009d018050      0x138 build/pic32mz/production/_ext/2120450970/drv_spi.o

.text.inc_lock  0x000000009d018188      0x138
 .text.inc_lock
                0x000000009d018188      0x138 build/pic32mz/production/_ext/1192657380/ff.o

.text.FATFS_open
                0x000000009d0182c0      0x134
 .text.FATFS_open
                0x000000009d0182c0      0x134 build/pic32mz/production/_ext/252936118/sys_fs_fat_interface.o
                0x000000009d0182c0                FATFS_open

.text.SYS_TIME_TimerObjectCreate
                0x000000009d0183f4      0x130
 .text.SYS_TIME_TimerObjectCreate
                0x000000009d0183f4      0x130 build/pic32mz/production/_ext/1636986698/sys_time.o

.text._DRV_USBHS_DEVICE_FIFOAllocate
                0x000000009d018524      0x124
 .text._DRV_USBHS_DEVICE_FIFOAllocate
                0x000000009d018524      0x124 build/pic32mz/production/_ext/1783409726/drv_usbhs_device.o
                0x000000009d018524                _DRV_USBHS_DEVICE_FIFOAllocate

.text.remove_chain
                0x000000009d018648      0x120
 .text.remove_chain
                0x000000009d018648      0x120 build/pic32mz/production/_ext/1192657380/ff.o

.text.DRV_SPI_TransferSetup
                0x000000009d018768      0x110
 .text.DRV_SPI_TransferSetup
                0x000000009d018768      0x110 build/pic32mz/production/_ext/2120450970/drv_spi.o
                0x000000009d018768                DRV_SPI_TransferSetup

.text.UART6_RX_InterruptHandler
                0x000000009d018878      0x110
 .text.UART6_RX_InterruptHandler
                0x000000009d018878      0x110 build/pic32mz/production/_ext/330555317/plib_uart6.o
                0x000000009d018878                UART6_RX_InterruptHandler

.text.UART3_RX_InterruptHandler
                0x000000009d018988      0x110
 .text.UART3_RX_InterruptHandler
                0x000000009d018988      0x110 build/pic32mz/production/_ext/330555317/plib_uart3.o
                0x000000009d018988                UART3_RX_InterruptHandler

.text.UART4_RX_InterruptHandler
                0x000000009d018a98      0x110
 .text.UART4_RX_InterruptHandler
                0x000000009d018a98      0x110 build/pic32mz/production/_ext/330555317/plib_uart4.o
                0x000000009d018a98                UART4_RX_InterruptHandler

.text.UART1_RX_InterruptHandler
                0x000000009d018ba8      0x110
 .text.UART1_RX_InterruptHandler
                0x000000009d018ba8      0x110 build/pic32mz/production/_ext/330555317/plib_uart1.o
                0x000000009d018ba8                UART1_RX_InterruptHandler

.text.UART2_RX_InterruptHandler
                0x000000009d018cb8      0x110
 .text.UART2_RX_InterruptHandler
                0x000000009d018cb8      0x110 build/pic32mz/production/_ext/330555317/plib_uart2.o
                0x000000009d018cb8                UART2_RX_InterruptHandler

.text.f_opendir
                0x000000009d018dc8      0x110
 .text.f_opendir
                0x000000009d018dc8      0x110 build/pic32mz/production/_ext/1192657380/ff.o
                0x000000009d018dc8                f_opendir

.text.__write_buffered
                0x000000009d018ed8      0x110
 .text.__write_buffered
                0x000000009d018ed8      0x110 c:/program files/microchip/xc32/v4.00/bin/bin/../../lib/gcc/pic32mx/8.3.1/../../../../pic32mx/lib/fpu64\libc-musl.a(__stdio_write.o)
                0x000000009d018ed8                __do_write

.text._USB_DEVICE_ConfigureDevice
                0x000000009d018fe8      0x10c
 .text._USB_DEVICE_ConfigureDevice
                0x000000009d018fe8      0x10c build/pic32mz/production/_ext/202551283/usb_device.o
                0x000000009d018fe8                _USB_DEVICE_ConfigureDevice

.text.f_sync    0x000000009d0190f4      0x108
 .text.f_sync   0x000000009d0190f4      0x108 build/pic32mz/production/_ext/1192657380/ff.o
                0x000000009d0190f4                f_sync

.text.__stdio_write_buffered
                0x000000009d0191fc      0x108
 .text.__stdio_write_buffered
                0x000000009d0191fc      0x108 c:/program files/microchip/xc32/v4.00/bin/bin/../../lib/gcc/pic32mx/8.3.1/../../../../pic32mx/lib/fpu64\libc-musl.a(__stdio_write.o)
                0x000000009d0191fc                __stdio_write_buffered

.text._USB_DEVICE_CDC_ControlTransferHandler
                0x000000009d019304      0x104
 .text._USB_DEVICE_CDC_ControlTransferHandler
                0x000000009d019304      0x104 build/pic32mz/production/_ext/202551283/usb_device_cdc.o
                0x000000009d019304                _USB_DEVICE_CDC_ControlTransferHandler

.text.__pad     0x000000009d019408      0x104
 .text.__pad    0x000000009d019408      0x104 c:/program files/microchip/xc32/v4.00/bin/bin/../../lib/gcc/pic32mx/8.3.1/../../../../pic32mx/lib/fpu64\libc-musl.a(__printf_core.o)
                0x000000009d019408                __pad

.text.UART6_TX_InterruptHandler
                0x000000009d01950c      0x100
 .text.UART6_TX_InterruptHandler
                0x000000009d01950c      0x100 build/pic32mz/production/_ext/330555317/plib_uart6.o
                0x000000009d01950c                UART6_TX_InterruptHandler

.text.UART3_TX_InterruptHandler
                0x000000009d01960c      0x100
 .text.UART3_TX_InterruptHandler
                0x000000009d01960c      0x100 build/pic32mz/production/_ext/330555317/plib_uart3.o
                0x000000009d01960c                UART3_TX_InterruptHandler

.text.UART4_TX_InterruptHandler
                0x000000009d01970c      0x100
 .text.UART4_TX_InterruptHandler
                0x000000009d01970c      0x100 build/pic32mz/production/_ext/330555317/plib_uart4.o
                0x000000009d01970c                UART4_TX_InterruptHandler

.text.UART1_TX_InterruptHandler
                0x000000009d01980c      0x100
 .text.UART1_TX_InterruptHandler
                0x000000009d01980c      0x100 build/pic32mz/production/_ext/330555317/plib_uart1.o
                0x000000009d01980c                UART1_TX_InterruptHandler

.text.UART2_TX_InterruptHandler
                0x000000009d01990c      0x100
 .text.UART2_TX_InterruptHandler
                0x000000009d01990c      0x100 build/pic32mz/production/_ext/330555317/plib_uart2.o
                0x000000009d01990c                UART2_TX_InterruptHandler

.text.SYS_TIME_AddToList
                0x000000009d019a0c      0x100
 .text.SYS_TIME_AddToList
                0x000000009d019a0c      0x100 build/pic32mz/production/_ext/1636986698/sys_time.o

.text._USB_DEVICE_ProcessStandardEndpointRequest
                0x000000009d019b0c      0x100
 .text._USB_DEVICE_ProcessStandardEndpointRequest
                0x000000009d019b0c      0x100 build/pic32mz/production/_ext/202551283/usb_device.o
                0x000000009d019b0c                _USB_DEVICE_ProcessStandardEndpointRequest

.text.__fmt_o   0x000000009d019c0c       0xfc
 .text.__fmt_o  0x000000009d019c0c       0xfc c:/program files/microchip/xc32/v4.00/bin/bin/../../lib/gcc/pic32mx/8.3.1/../../../../pic32mx/lib/fpu64\libc-musl.a(__fmt_o.o)
                0x000000009d019c0c                __fmt_o_needed
                0x000000009d019c0c                __fmt_o

.rodata.str1.4  0x000000009d019d08       0xf8
 .rodata.str1.4
                0x000000009d019d08       0xf8 build/pic32mz/production/_ext/1360937237/mdot.o

.text.APP_Tasks
                0x000000009d019e00       0xf4
 .text.APP_Tasks
                0x000000009d019e00       0xf4 build/pic32mz/production/_ext/1360937237/app.o
                0x000000009d019e00                APP_Tasks

.text._DRV_SPI_ResourceLock
                0x000000009d000010       0xec
 .text._DRV_SPI_ResourceLock
                0x000000009d000010       0xec build/pic32mz/production/_ext/2120450970/drv_spi.o

.text.DRV_SPI_Initialize
                0x000000009d019ef4       0xec
 .text.DRV_SPI_Initialize
                0x000000009d019ef4       0xec build/pic32mz/production/_ext/2120450970/drv_spi.o
                0x000000009d019ef4                DRV_SPI_Initialize

.text.FATFS_unmount
                0x000000009d019fe0       0xec
 .text.FATFS_unmount
                0x000000009d019fe0       0xec build/pic32mz/production/_ext/252936118/sys_fs_fat_interface.o
                0x000000009d019fe0                FATFS_unmount

.text.FATFS_opendir
                0x000000009d01a0cc       0xe8
 .text.FATFS_opendir
                0x000000009d01a0cc       0xe8 build/pic32mz/production/_ext/252936118/sys_fs_fat_interface.o
                0x000000009d01a0cc                FATFS_opendir

.text.DRV_USBHS_Tasks_ISR_USBDMA
                0x000000009d01a1b4       0xe4
 .text.DRV_USBHS_Tasks_ISR_USBDMA
                0x000000009d01a1b4       0xe4 build/pic32mz/production/_ext/1783409726/drv_usbhs.o
                0x000000009d01a1b4                DRV_USBHS_Tasks_ISR_USBDMA

.text.EVIC_Initialize
                0x000000009d01a298       0xe4
 .text.EVIC_Initialize
                0x000000009d01a298       0xe4 build/pic32mz/production/_ext/330098546/plib_evic.o
                0x000000009d01a298                EVIC_Initialize

.text.sync_fs   0x000000009d01a37c       0xe4
 .text.sync_fs  0x000000009d01a37c       0xe4 build/pic32mz/production/_ext/1192657380/ff.o

.text.__pop_ptr
                0x000000009d01a460       0xe4
 .text.__pop_ptr
                0x000000009d01a460       0xe4 c:/program files/microchip/xc32/v4.00/bin/bin/../../lib/gcc/pic32mx/8.3.1/../../../../pic32mx/lib/fpu64\libc-musl.a(__pop_ptr.o)
                0x000000009d01a460                __pop_ptr_needed
                0x000000009d01a460                __pop_ptr

.text._DRV_SPI_ResourceUnlock
                0x000000009d01a544       0xe0
 .text._DRV_SPI_ResourceUnlock
                0x000000009d01a544       0xe0 build/pic32mz/production/_ext/2120450970/drv_spi.o

.text.SYS_FS_MEDIA_MANAGER_SectorRead
                0x000000009d01a624       0xdc
 .text.SYS_FS_MEDIA_MANAGER_SectorRead
                0x000000009d01a624       0xdc build/pic32mz/production/_ext/252936118/sys_fs_media_manager.o
                0x000000009d01a624                SYS_FS_MEDIA_MANAGER_SectorRead

.text.general_exception
                0x000000009d01a700       0xdc
 .text.general_exception
                0x000000009d01a700       0xdc c:/program files/microchip/xc32/v4.00/bin/bin/../../lib/gcc/pic32mx/8.3.1/../../../../pic32mx/lib/fpu64\libpic32.a(general-exception.o)
                0x000000009d01a700                _general_exception_context

.text._cache_err_exception_context
                0x000000009d01a7dc       0xd8
 .text._cache_err_exception_context
                0x000000009d01a7dc       0xd8 c:/program files/microchip/xc32/v4.00/bin/bin/../../lib/gcc/pic32mx/8.3.1/../../../../pic32mx/lib/fpu64\libpic32.a(cache-err-exception.o)
                0x000000009d01a7dc                _cache_err_exception_context

.text.simple_tlb_refill_context
                0x000000009d01a8b4       0xd8
 .text.simple_tlb_refill_context
                0x000000009d01a8b4       0xd8 c:/program files/microchip/xc32/v4.00/bin/bin/../../lib/gcc/pic32mx/8.3.1/../../../../pic32mx/lib/fpu64\libpic32.a(simple-tlb-refill-exception.o)
                0x000000009d01a8b4                _simple_tlb_refill_exception_context

.rodata         0x000000009d01a98c       0xd4
 .rodata        0x000000009d01a98c       0xd4 build/pic32mz/production/_ext/1192657380/ff.o

.text.initPayload
                0x000000009d01aa60       0xd4
 .text.initPayload
                0x000000009d01aa60       0xd4 build/pic32mz/production/_ext/1360937237/mdot.o
                0x000000009d01aa60                initPayload

.text._USB_DEVICE_GetStringDescriptorRequestProcess
                0x000000009d01ab34       0xd0
 .text._USB_DEVICE_GetStringDescriptorRequestProcess
                0x000000009d01ab34       0xd0 build/pic32mz/production/_ext/202551283/usb_device.o
                0x000000009d01ab34                _USB_DEVICE_GetStringDescriptorRequestProcess

.text.SPI4_TransferSetup
                0x000000009d01ac04       0xcc
 .text.SPI4_TransferSetup
                0x000000009d01ac04       0xcc build/pic32mz/production/_ext/867254719/plib_spi4_master.o
                0x000000009d01ac04                SPI4_TransferSetup

.text.FATFS_mount
                0x000000009d01acd0       0xcc
 .text.FATFS_mount
                0x000000009d01acd0       0xcc build/pic32mz/production/_ext/252936118/sys_fs_fat_interface.o
                0x000000009d01acd0                FATFS_mount

.text.__stdio_read
                0x000000009d01ad9c       0xcc
 .text.__stdio_read
                0x000000009d01ad9c       0xcc c:/program files/microchip/xc32/v4.00/bin/bin/../../lib/gcc/pic32mx/8.3.1/../../../../pic32mx/lib/fpu64\libc-musl.a(__stdio_read.o)
                0x000000009d01ad9c                __stdio_read

.text._DRV_USBHS_DEVICE_FIFOFree
                0x000000009d01ae68       0xc8
 .text._DRV_USBHS_DEVICE_FIFOFree
                0x000000009d01ae68       0xc8 build/pic32mz/production/_ext/1783409726/drv_usbhs_device.o
                0x000000009d01ae68                _DRV_USBHS_DEVICE_FIFOFree

.text.__stdio_close_rw
                0x000000009d01af30       0xc8
 .text.__stdio_close_rw
                0x000000009d01af30       0xc8 c:/program files/microchip/xc32/v4.00/bin/bin/../../lib/gcc/pic32mx/8.3.1/../../../../pic32mx/lib/fpu64\libc-musl.a(__stdio_close.o)
                0x000000009d01af30                __stdio_close_rw

.text.DRV_USBHS_Initialize
                0x000000009d01aff8       0xc4
 .text.DRV_USBHS_Initialize
                0x000000009d01aff8       0xc4 build/pic32mz/production/_ext/1783409726/drv_usbhs.o
                0x000000009d01aff8                DRV_USBHS_Initialize

.text.CLK_Initialize
                0x000000009d01b0bc       0xc4
 .text.CLK_Initialize
                0x000000009d01b0bc       0xc4 build/pic32mz/production/_ext/10646107/plib_clk.o
                0x000000009d01b0bc                CLK_Initialize

.text.SYS_FS_Initialize
                0x000000009d01b180       0xc4
 .text.SYS_FS_Initialize
                0x000000009d01b180       0xc4 build/pic32mz/production/_ext/252936118/sys_fs.o
                0x000000009d01b180                SYS_FS_Initialize

.text.DRV_USBHS_Open
                0x000000009d01b244       0xc0
 .text.DRV_USBHS_Open
                0x000000009d01b244       0xc0 build/pic32mz/production/_ext/1783409726/drv_usbhs.o
                0x000000009d01b244                DRV_USBHS_Open

.text.DRV_USBHS_ClientEventCallBackSet
                0x000000009d01b304       0xc0
 .text.DRV_USBHS_ClientEventCallBackSet
                0x000000009d01b304       0xc0 build/pic32mz/production/_ext/1783409726/drv_usbhs.o
                0x000000009d01b304                DRV_USBHS_ClientEventCallBackSet

.text.dir_alloc
                0x000000009d01b3c4       0xc0
 .text.dir_alloc
                0x000000009d01b3c4       0xc0 build/pic32mz/production/_ext/1192657380/ff.o

.text.dir_remove
                0x000000009d01b484       0xc0
 .text.dir_remove
                0x000000009d01b484       0xc0 build/pic32mz/production/_ext/1192657380/ff.o

.text.f_mount   0x000000009d01b544       0xc0
 .text.f_mount  0x000000009d01b544       0xc0 build/pic32mz/production/_ext/1192657380/ff.o
                0x000000009d01b544                f_mount

.text._USB_DEVICE_Ep0TransmitCompleteCallback
                0x000000009d01b604       0xc0
 .text._USB_DEVICE_Ep0TransmitCompleteCallback
                0x000000009d01b604       0xc0 build/pic32mz/production/_ext/202551283/usb_device.o
                0x000000009d01b604                _USB_DEVICE_Ep0TransmitCompleteCallback

.text.UART6_Write
                0x000000009d01b6c4       0xbc
 .text.UART6_Write
                0x000000009d01b6c4       0xbc build/pic32mz/production/_ext/330555317/plib_uart6.o
                0x000000009d01b6c4                UART6_Write

.text.dir_clear
                0x000000009d01b780       0xbc
 .text.dir_clear
                0x000000009d01b780       0xbc build/pic32mz/production/_ext/1192657380/ff.o

.text.f_gets    0x000000009d01b83c       0xbc
 .text.f_gets   0x000000009d01b83c       0xbc build/pic32mz/production/_ext/1192657380/ff.o
                0x000000009d01b83c                f_gets

.text.disk_checkCommandStatus
                0x000000009d01b8f8       0xbc
 .text.disk_checkCommandStatus
                0x000000009d01b8f8       0xbc build/pic32mz/production/_ext/727274963/diskio.o

.tlb.__pic32_tlb_init_ebi_sqi
                0x000000009d01b9b4       0xbc
 .tlb.__pic32_tlb_init_ebi_sqi
                0x000000009d01b9b4       0xbc c:/program files/microchip/xc32/v4.00/bin/bin/../../lib/gcc/pic32mx/8.3.1/../../../../pic32mx/lib/fpu64\libpic32.a(pic32_init_tlb_ebi_sqi.o)
                0x000000009d01b9b4                __pic32_tlb_init_ebi_sqi

.text.__fmt_u   0x000000009d01ba70       0xbc
 .text.__fmt_u  0x000000009d01ba70       0xbc c:/program files/microchip/xc32/v4.00/bin/bin/../../lib/gcc/pic32mx/8.3.1/../../../../pic32mx/lib/fpu64\libc-musl.a(__fmt_u.o)
                0x000000009d01ba70                __fmt_u_needed
                0x000000009d01ba70                __fmt_u

.text.DRV_SDSPI_CommandStatusGet
                0x000000009d01bb2c       0xb8
 .text.DRV_SDSPI_CommandStatusGet
                0x000000009d01bb2c       0xb8 build/pic32mz/production/_ext/757013429/drv_sdspi.o
                0x000000009d01bb2c                DRV_SDSPI_CommandStatusGet

.text._DRV_SDSPI_DriverHandleValidate
                0x000000009d01bbe4       0xb4
 .text._DRV_SDSPI_DriverHandleValidate
                0x000000009d01bbe4       0xb4 build/pic32mz/production/_ext/757013429/drv_sdspi.o

.text.chk_lock  0x000000009d01bc98       0xb4
 .text.chk_lock
                0x000000009d01bc98       0xb4 build/pic32mz/production/_ext/1192657380/ff.o

.text.sync_window
                0x000000009d01bd4c       0xb4
 .text.sync_window
                0x000000009d01bd4c       0xb4 build/pic32mz/production/_ext/1192657380/ff.o

.text.f_chdir   0x000000009d01be00       0xb4
 .text.f_chdir  0x000000009d01be00       0xb4 build/pic32mz/production/_ext/1192657380/ff.o
                0x000000009d01be00                f_chdir

.text.SYS_TIME_TimerStart
                0x000000009d01beb4       0xb4
 .text.SYS_TIME_TimerStart
                0x000000009d01beb4       0xb4 build/pic32mz/production/_ext/1636986698/sys_time.o
                0x000000009d01beb4                SYS_TIME_TimerStart

.text._USB_DEVICE_DeInitializeAllFunctionDrivers
                0x000000009d01bf68       0xb4
 .text._USB_DEVICE_DeInitializeAllFunctionDrivers
                0x000000009d01bf68       0xb4 build/pic32mz/production/_ext/202551283/usb_device.o
                0x000000009d01bf68                _USB_DEVICE_DeInitializeAllFunctionDrivers

.text._sbrk     0x000000009d01c01c       0xb0
 .text._sbrk    0x000000009d01c01c       0xb0 c:/program files/microchip/xc32/v4.00/bin/bin/../../lib/gcc/pic32mx/8.3.1/../../../../pic32mx/lib/fpu64\libpic32.a(sbrk.o)
                0x000000009d01c01c                _sbrk

.text.f_chmod   0x000000009d01c0cc       0xac
 .text.f_chmod  0x000000009d01c0cc       0xac build/pic32mz/production/_ext/1192657380/ff.o
                0x000000009d01c0cc                f_chmod

.text.SYS_TIME_CallbackRegisterMS
                0x000000009d01c178       0xac
 .text.SYS_TIME_CallbackRegisterMS
                0x000000009d01c178       0xac build/pic32mz/production/_ext/1636986698/sys_time.o
                0x000000009d01c178                SYS_TIME_CallbackRegisterMS

.text.setvbuf   0x000000009d01c224       0xac
 .text.setvbuf  0x000000009d01c224       0xac c:/program files/microchip/xc32/v4.00/bin/bin/../../lib/gcc/pic32mx/8.3.1/../../../../pic32mx/lib/fpu64\libc-musl.a(setvbuf.o)
                0x000000009d01c224                setvbuf

.text.unbin     0x000000009d01c2d0       0xac
 .text.unbin    0x000000009d01c2d0       0xac c:/program files/microchip/xc32/v4.00/bin/bin/../../lib/gcc/pic32mx/8.3.1/../../../../pic32mx/lib/fpu64\libc-musl.a(malloc.o)

.text.CHANGE_NOTICE_J_InterruptHandler
                0x000000009d01c37c       0xa8
 .text.CHANGE_NOTICE_J_InterruptHandler
                0x000000009d01c37c       0xa8 build/pic32mz/production/_ext/330152374/plib_gpio.o
                0x000000009d01c37c                CHANGE_NOTICE_J_InterruptHandler

.text.pop       0x000000009d01c424       0xa8
 .text.pop      0x000000009d01c424       0xa8 build/pic32mz/production/_ext/1360937237/stringbuffer.o
                0x000000009d01c424                pop

.text           0x000000009d01c4cc       0xa8
 .text          0x000000009d01c4cc       0xa8 c:/program files/microchip/xc32/v4.00/bin/bin/../../lib/gcc/pic32mx/8.3.1/../../../../pic32mx/lib/fpu64\libpic32.a(memset.o)
                0x000000009d01c4cc                memset

.text.__fmt_s   0x000000009d01c574       0xa8
 .text.__fmt_s  0x000000009d01c574       0xa8 c:/program files/microchip/xc32/v4.00/bin/bin/../../lib/gcc/pic32mx/8.3.1/../../../../pic32mx/lib/fpu64\libc-musl.a(__fmt_s.o)
                0x000000009d01c574                __fmt_0_needed
                0x000000009d01c574                __fmt_s_needed
                0x000000009d01c574                __fmt_s

.text.validate  0x000000009d01c61c       0xa0
 .text.validate
                0x000000009d01c61c       0xa0 build/pic32mz/production/_ext/1192657380/ff.o

.text.SYS_TIME_RemoveFromList
                0x000000009d01c6bc       0xa0
 .text.SYS_TIME_RemoveFromList
                0x000000009d01c6bc       0xa0 build/pic32mz/production/_ext/1636986698/sys_time.o

.text._USB_DEVICE_ForwardControlXfrToFunction
                0x000000009d01c75c       0xa0
 .text._USB_DEVICE_ForwardControlXfrToFunction
                0x000000009d01c75c       0xa0 build/pic32mz/production/_ext/202551283/usb_device.o
                0x000000009d01c75c                _USB_DEVICE_ForwardControlXfrToFunction

.text.f_utime   0x000000009d01c7fc       0x9c
 .text.f_utime  0x000000009d01c7fc       0x9c build/pic32mz/production/_ext/1192657380/ff.o
                0x000000009d01c7fc                f_utime

.text._DRV_USBHS_DEVICE_AttachStateMachine
                0x000000009d01c898       0x98
 .text._DRV_USBHS_DEVICE_AttachStateMachine
                0x000000009d01c898       0x98 build/pic32mz/production/_ext/1783409726/drv_usbhs_device.o
                0x000000009d01c898                _DRV_USBHS_DEVICE_AttachStateMachine

.text.uart6_counters
                0x000000009d01c930       0x98
 .text.uart6_counters
                0x000000009d01c930       0x98 build/pic32mz/production/_ext/1360937237/communication.o
                0x000000009d01c930                uart6_counters

.text.sendStringU6
                0x000000009d01c9c8       0x98
 .text.sendStringU6
                0x000000009d01c9c8       0x98 build/pic32mz/production/_ext/1360937237/communication.o
                0x000000009d01c9c8                sendStringU6

.text.push      0x000000009d01ca60       0x98
 .text.push     0x000000009d01ca60       0x98 build/pic32mz/production/_ext/1360937237/stringbuffer.o
                0x000000009d01ca60                push

.text           0x000000009d01caf8       0x98
 .text          0x000000009d01caf8       0x98 c:/program files/microchip/xc32/v4.00/bin/bin/../../lib/gcc/pic32mx/8.3.1/../../../../pic32mx/lib/fpu64\libpic32.a(memcmp.o)
                0x000000009d01caf8                memcmp

.text._DRV_SDSPI_SPIWriteWithChipSelectDisabled
                0x000000009d01cb90       0x94
 .text._DRV_SDSPI_SPIWriteWithChipSelectDisabled
                0x000000009d01cb90       0x94 build/pic32mz/production/_ext/757013429/drv_sdspi_driver_interface.o
                0x000000009d01cb90                _DRV_SDSPI_SPIWriteWithChipSelectDisabled

.text.f_readdir
                0x000000009d01cc24       0x94
 .text.f_readdir
                0x000000009d01cc24       0x94 build/pic32mz/production/_ext/1192657380/ff.o
                0x000000009d01cc24                f_readdir

.text.UART6_Read
                0x000000009d01ccb8       0x90
 .text.UART6_Read
                0x000000009d01ccb8       0x90 build/pic32mz/production/_ext/330555317/plib_uart6.o
                0x000000009d01ccb8                UART6_Read

.text.putc_bfd  0x000000009d01cd48       0x90
 .text.putc_bfd
                0x000000009d01cd48       0x90 build/pic32mz/production/_ext/1192657380/ff.o

.text.SYS_TIME_TimerAdd
                0x000000009d01cdd8       0x90
 .text.SYS_TIME_TimerAdd
                0x000000009d01cdd8       0x90 build/pic32mz/production/_ext/1636986698/sys_time.o

.text.SPI4_Initialize
                0x000000009d01ce68       0x8c
 .text.SPI4_Initialize
                0x000000009d01ce68       0x8c build/pic32mz/production/_ext/867254719/plib_spi4_master.o
                0x000000009d01ce68                SPI4_Initialize

.text.dec_lock  0x000000009d01cef4       0x8c
 .text.dec_lock
                0x000000009d01cef4       0x8c build/pic32mz/production/_ext/1192657380/ff.o

.text.get_ldnumber
                0x000000009d01cf80       0x8c
 .text.get_ldnumber
                0x000000009d01cf80       0x8c build/pic32mz/production/_ext/1192657380/ff.o

.text.SYS_TIME_GetTimerObject
                0x000000009d01d00c       0x8c
 .text.SYS_TIME_GetTimerObject
                0x000000009d01d00c       0x8c build/pic32mz/production/_ext/1636986698/sys_time.o

.text._USB_DEVICE_GetFunctionDriverEntryByInterface
                0x000000009d01d098       0x8c
 .text._USB_DEVICE_GetFunctionDriverEntryByInterface
                0x000000009d01d098       0x8c build/pic32mz/production/_ext/202551283/usb_device.o
                0x000000009d01d098                _USB_DEVICE_GetFunctionDriverEntryByInterface

.text           0x000000009d01d124       0x8c
 .text          0x000000009d01d124       0x8c c:/program files/microchip/xc32/v4.00/bin/bin/../../lib/gcc/pic32mx/8.3.1/../../../../pic32mx/lib/fpu64\libpic32.a(pic32_data_init.o)
                0x000000009d01d124                __pic32_data_init

.text.__out     0x000000009d01d1b0       0x8c
 .text.__out    0x000000009d01d1b0       0x8c c:/program files/microchip/xc32/v4.00/bin/bin/../../lib/gcc/pic32mx/8.3.1/../../../../pic32mx/lib/fpu64\libc-musl.a(__out.o)
                0x000000009d01d1b0                __out_needed
                0x000000009d01d1b0                __out

.text._DRV_SPI_DriverHandleValidate
                0x000000009d01d23c       0x88
 .text._DRV_SPI_DriverHandleValidate
                0x000000009d01d23c       0x88 build/pic32mz/production/_ext/2120450970/drv_spi.o

.text.DRV_SPI_TransferEventHandlerSet
                0x000000009d01d2c4       0x88
 .text.DRV_SPI_TransferEventHandlerSet
                0x000000009d01d2c4       0x88 build/pic32mz/production/_ext/2120450970/drv_spi.o
                0x000000009d01d2c4                DRV_SPI_TransferEventHandlerSet

.text.SPI2_Initialize
                0x000000009d01d34c       0x88
 .text.SPI2_Initialize
                0x000000009d01d34c       0x88 build/pic32mz/production/_ext/867254719/plib_spi2_master.o
                0x000000009d01d34c                SPI2_Initialize

.text.SPI1_Initialize
                0x000000009d01d3d4       0x88
 .text.SPI1_Initialize
                0x000000009d01d3d4       0x88 build/pic32mz/production/_ext/867254719/plib_spi1_master.o
                0x000000009d01d3d4                SPI1_Initialize

.text.UART6_Initialize
                0x000000009d01d45c       0x88
 .text.UART6_Initialize
                0x000000009d01d45c       0x88 build/pic32mz/production/_ext/330555317/plib_uart6.o
                0x000000009d01d45c                UART6_Initialize

.text.UART3_Initialize
                0x000000009d01d4e4       0x88
 .text.UART3_Initialize
                0x000000009d01d4e4       0x88 build/pic32mz/production/_ext/330555317/plib_uart3.o
                0x000000009d01d4e4                UART3_Initialize

.text.UART4_Initialize
                0x000000009d01d56c       0x88
 .text.UART4_Initialize
                0x000000009d01d56c       0x88 build/pic32mz/production/_ext/330555317/plib_uart4.o
                0x000000009d01d56c                UART4_Initialize

.text.UART1_Initialize
                0x000000009d01d5f4       0x88
 .text.UART1_Initialize
                0x000000009d01d5f4       0x88 build/pic32mz/production/_ext/330555317/plib_uart1.o
                0x000000009d01d5f4                UART1_Initialize

.text.UART2_Initialize
                0x000000009d01d67c       0x88
 .text.UART2_Initialize
                0x000000009d01d67c       0x88 build/pic32mz/production/_ext/330555317/plib_uart2.o
                0x000000009d01d67c                UART2_Initialize

.text.write     0x000000009d01d704       0x88
 .text.write    0x000000009d01d704       0x88 c:/program files/microchip/xc32/v4.00/bin/bin/../../lib/gcc/pic32mx/8.3.1/../../../../pic32mx/lib/fpu64\libpic32.a(write.o)
                0x000000009d01d704                write

.text.USB_DEVICE_ControlSend
                0x000000009d01d78c       0x84
 .text.USB_DEVICE_ControlSend
                0x000000009d01d78c       0x84 build/pic32mz/production/_ext/202551283/usb_device.o
                0x000000009d01d78c                USB_DEVICE_ControlSend

.text.UART5_Write
                0x000000009d01d810       0x80
 .text.UART5_Write
                0x000000009d01d810       0x80 build/pic32mz/production/_ext/330555317/plib_uart5.o
                0x000000009d01d810                UART5_Write

.text.f_stat    0x000000009d01d890       0x80
 .text.f_stat   0x000000009d01d890       0x80 build/pic32mz/production/_ext/1192657380/ff.o
                0x000000009d01d890                f_stat

.text._USB_DEVICE_FindEndpoint
                0x000000009d01d910       0x80
 .text._USB_DEVICE_FindEndpoint
                0x000000009d01d910       0x80 build/pic32mz/production/_ext/202551283/usb_device.o
                0x000000009d01d910                _USB_DEVICE_FindEndpoint

.text.atoi      0x000000009d01d990       0x80
 .text.atoi     0x000000009d01d990       0x80 c:/program files/microchip/xc32/v4.00/bin/bin/../../lib/gcc/pic32mx/8.3.1/../../../../pic32mx/lib/fpu64\libc-musl.a(atoi.o)
                0x000000009d01d990                atoi

.text.__vsnprintf
                0x000000009d01da10       0x80
 .text.__vsnprintf
                0x000000009d01da10       0x80 c:/program files/microchip/xc32/v4.00/bin/bin/../../lib/gcc/pic32mx/8.3.1/../../../../pic32mx/lib/fpu64\libc-musl.a(__int_vsnprintf.o)
                0x000000009d01da10                __vsnprintf

.text.f_fdisk   0x000000009d01da90       0x7c
 .text.f_fdisk  0x000000009d01da90       0x7c build/pic32mz/production/_ext/1192657380/ff.o
                0x000000009d01da90                f_fdisk

.text.disk_ioctl
                0x000000009d01db0c       0x7c
 .text.disk_ioctl
                0x000000009d01db0c       0x7c build/pic32mz/production/_ext/727274963/diskio.o
                0x000000009d01db0c                disk_ioctl

.text.FATFS_getclusters
                0x000000009d01db88       0x7c
 .text.FATFS_getclusters
                0x000000009d01db88       0x7c build/pic32mz/production/_ext/252936118/sys_fs_fat_interface.o
                0x000000009d01db88                FATFS_getclusters

.text.SYS_TIME_TimerDestroy
                0x000000009d01dc04       0x7c
 .text.SYS_TIME_TimerDestroy
                0x000000009d01dc04       0x7c build/pic32mz/production/_ext/1636986698/sys_time.o
                0x000000009d01dc04                SYS_TIME_TimerDestroy

.text.USB_DEVICE_ControlStatus
                0x000000009d01dc80       0x7c
 .text.USB_DEVICE_ControlStatus
                0x000000009d01dc80       0x7c build/pic32mz/production/_ext/202551283/usb_device.o
                0x000000009d01dc80                USB_DEVICE_ControlStatus

.text.__readv   0x000000009d01dcfc       0x7c
 .text.__readv  0x000000009d01dcfc       0x7c c:/program files/microchip/xc32/v4.00/bin/bin/../../lib/gcc/pic32mx/8.3.1/../../../../pic32mx/lib/fpu64\libc-musl.a(readv.o)
                0x000000009d01dcfc                readv

.text.__writev  0x000000009d01dd78       0x7c
 .text.__writev
                0x000000009d01dd78       0x7c c:/program files/microchip/xc32/v4.00/bin/bin/../../lib/gcc/pic32mx/8.3.1/../../../../pic32mx/lib/fpu64\libc-musl.a(writev.o)
                0x000000009d01dd78                writev

.text.UART6_ErrorClear
                0x000000009d01ddf4       0x78
 .text.UART6_ErrorClear
                0x000000009d01ddf4       0x78 build/pic32mz/production/_ext/330555317/plib_uart6.o

.text.UART3_ErrorClear
                0x000000009d01de6c       0x78
 .text.UART3_ErrorClear
                0x000000009d01de6c       0x78 build/pic32mz/production/_ext/330555317/plib_uart3.o

.text.UART4_ErrorClear
                0x000000009d01dee4       0x78
 .text.UART4_ErrorClear
                0x000000009d01dee4       0x78 build/pic32mz/production/_ext/330555317/plib_uart4.o

.text.UART1_ErrorClear
                0x000000009d01df5c       0x78
 .text.UART1_ErrorClear
                0x000000009d01df5c       0x78 build/pic32mz/production/_ext/330555317/plib_uart1.o

.text.UART2_ErrorClear
                0x000000009d01dfd4       0x78
 .text.UART2_ErrorClear
                0x000000009d01dfd4       0x78 build/pic32mz/production/_ext/330555317/plib_uart2.o

.text.move_window
                0x000000009d01e04c       0x74
 .text.move_window
                0x000000009d01e04c       0x74 build/pic32mz/production/_ext/1192657380/ff.o

.text.ff_uni2oem
                0x000000009d01e0c0       0x74
 .text.ff_uni2oem
                0x000000009d01e0c0       0x74 build/pic32mz/production/_ext/1192657380/ffunicode.o
                0x000000009d01e0c0                ff_uni2oem

.text.disk_read_aligned
                0x000000009d01e134       0x74
 .text.disk_read_aligned
                0x000000009d01e134       0x74 build/pic32mz/production/_ext/727274963/diskio.o

.text.SYS_FS_MEDIA_MANAGER_IsFSFat
                0x000000009d01e1a8       0x74
 .text.SYS_FS_MEDIA_MANAGER_IsFSFat
                0x000000009d01e1a8       0x74 build/pic32mz/production/_ext/252936118/sys_fs_media_manager.o

.text.SYS_TIME_UpdateTimerList
                0x000000009d01e21c       0x74
 .text.SYS_TIME_UpdateTimerList
                0x000000009d01e21c       0x74 build/pic32mz/production/_ext/1636986698/sys_time.o

.text.alloc_rev
                0x000000009d01e290       0x74
 .text.alloc_rev
                0x000000009d01e290       0x74 c:/program files/microchip/xc32/v4.00/bin/bin/../../lib/gcc/pic32mx/8.3.1/../../../../pic32mx/lib/fpu64\libc-musl.a(malloc.o)

.text._USB_DEVICE_CDC_Deinitialization
                0x000000009d000110       0x70
 .text._USB_DEVICE_CDC_Deinitialization
                0x000000009d000110       0x70 build/pic32mz/production/_ext/202551283/usb_device_cdc.o
                0x000000009d000110                _USB_DEVICE_CDC_Deinitialization

.text.alloc_fwd
                0x000000009d000190       0x70
 .text.alloc_fwd
                0x000000009d000190       0x70 c:/program files/microchip/xc32/v4.00/bin/bin/../../lib/gcc/pic32mx/8.3.1/../../../../pic32mx/lib/fpu64\libc-musl.a(malloc.o)

.text._DRV_USBHS_DEVICE_IRPQueueFlush
                0x000000009d01e304       0x68
 .text._DRV_USBHS_DEVICE_IRPQueueFlush
                0x000000009d01e304       0x68 build/pic32mz/production/_ext/1783409726/drv_usbhs_device.o
                0x000000009d01e304                _DRV_USBHS_DEVICE_IRPQueueFlush

.text.f_puts    0x000000009d01e36c       0x68
 .text.f_puts   0x000000009d01e36c       0x68 build/pic32mz/production/_ext/1192657380/ff.o
                0x000000009d01e36c                f_puts

.text.memmove   0x000000009d01e3d4       0x68
 .text.memmove  0x000000009d01e3d4       0x68 c:/program files/microchip/xc32/v4.00/bin/bin/../../lib/gcc/pic32mx/8.3.1/../../../../pic32mx/lib/fpu64\libc-musl.a(memmove.o)
                0x000000009d01e3d4                memmove

.text.CORETIMER_Start
                0x000000009d01e43c       0x64
 .text.CORETIMER_Start
                0x000000009d01e43c       0x64 build/pic32mz/production/_ext/809018751/plib_coretimer.o
                0x000000009d01e43c                CORETIMER_Start

.text.I2C2_Initialize
                0x000000009d01e4a0       0x64
 .text.I2C2_Initialize
                0x000000009d01e4a0       0x64 build/pic32mz/production/_ext/249272802/plib_i2c2_master.o
                0x000000009d01e4a0                I2C2_Initialize

.text.UART6_FAULT_InterruptHandler
                0x000000009d01e504       0x64
 .text.UART6_FAULT_InterruptHandler
                0x000000009d01e504       0x64 build/pic32mz/production/_ext/330555317/plib_uart6.o
                0x000000009d01e504                UART6_FAULT_InterruptHandler

.text.UART3_FAULT_InterruptHandler
                0x000000009d01e568       0x64
 .text.UART3_FAULT_InterruptHandler
                0x000000009d01e568       0x64 build/pic32mz/production/_ext/330555317/plib_uart3.o
                0x000000009d01e568                UART3_FAULT_InterruptHandler

.text.UART4_FAULT_InterruptHandler
                0x000000009d01e5cc       0x64
 .text.UART4_FAULT_InterruptHandler
                0x000000009d01e5cc       0x64 build/pic32mz/production/_ext/330555317/plib_uart4.o
                0x000000009d01e5cc                UART4_FAULT_InterruptHandler

.text.UART1_FAULT_InterruptHandler
                0x000000009d01e630       0x64
 .text.UART1_FAULT_InterruptHandler
                0x000000009d01e630       0x64 build/pic32mz/production/_ext/330555317/plib_uart1.o
                0x000000009d01e630                UART1_FAULT_InterruptHandler

.text.UART2_FAULT_InterruptHandler
                0x000000009d01e694       0x64
 .text.UART2_FAULT_InterruptHandler
                0x000000009d01e694       0x64 build/pic32mz/production/_ext/330555317/plib_uart2.o
                0x000000009d01e694                UART2_FAULT_InterruptHandler

.text.putc_flush
                0x000000009d01e6f8       0x64
 .text.putc_flush
                0x000000009d01e6f8       0x64 build/pic32mz/production/_ext/1192657380/ff.o

.text.f_closedir
                0x000000009d01e75c       0x64
 .text.f_closedir
                0x000000009d01e75c       0x64 build/pic32mz/production/_ext/1192657380/ff.o
                0x000000009d01e75c                f_closedir

.text.bin_index
                0x000000009d01e7c0       0x64
 .text.bin_index
                0x000000009d01e7c0       0x64 c:/program files/microchip/xc32/v4.00/bin/bin/../../lib/gcc/pic32mx/8.3.1/../../../../pic32mx/lib/fpu64\libc-musl.a(malloc.o)

.text.I2C2_BUS_InterruptHandler
                0x000000009d01e824       0x60
 .text.I2C2_BUS_InterruptHandler
                0x000000009d01e824       0x60 build/pic32mz/production/_ext/249272802/plib_i2c2_master.o
                0x000000009d01e824                I2C2_BUS_InterruptHandler

.text.I2C4_BUS_InterruptHandler
                0x000000009d01e884       0x60
 .text.I2C4_BUS_InterruptHandler
                0x000000009d01e884       0x60 build/pic32mz/production/_ext/249272802/plib_i2c4_master.o
                0x000000009d01e884                I2C4_BUS_InterruptHandler

.text.SYS_FS_MEDIA_MANAGER_EventHandler
                0x000000009d01e8e4       0x60
 .text.SYS_FS_MEDIA_MANAGER_EventHandler
                0x000000009d01e8e4       0x60 build/pic32mz/production/_ext/252936118/sys_fs_media_manager.o
                0x000000009d01e8e4                SYS_FS_MEDIA_MANAGER_EventHandler

.text._DRV_USBHS_DEVICE_Get_FreeDMAChannel
                0x000000009d01e944       0x5c
 .text._DRV_USBHS_DEVICE_Get_FreeDMAChannel
                0x000000009d01e944       0x5c build/pic32mz/production/_ext/1783409726/drv_usbhs_device.o
                0x000000009d01e944                _DRV_USBHS_DEVICE_Get_FreeDMAChannel

.text.I2C4_Initialize
                0x000000009d01e9a0       0x5c
 .text.I2C4_Initialize
                0x000000009d01e9a0       0x5c build/pic32mz/production/_ext/249272802/plib_i2c4_master.o
                0x000000009d01e9a0                I2C4_Initialize

.text.SYS_FS_MEDIA_MANAGER_Register
                0x000000009d01e9fc       0x5c
 .text.SYS_FS_MEDIA_MANAGER_Register
                0x000000009d01e9fc       0x5c build/pic32mz/production/_ext/252936118/sys_fs_media_manager.o
                0x000000009d01e9fc                SYS_FS_MEDIA_MANAGER_Register

.text.__fmt_state
                0x000000009d01ea58       0x5c
 .text.__fmt_state
                0x000000009d01ea58       0x5c c:/program files/microchip/xc32/v4.00/bin/bin/../../lib/gcc/pic32mx/8.3.1/../../../../pic32mx/lib/fpu64\libc-musl.a(__printf_core.o)
                0x000000009d01ea58                __fmt_state

.rodata         0x000000009d01eab4       0x5c
 .rodata        0x000000009d01eab4       0x5c c:/program files/microchip/xc32/v4.00/bin/bin/../../lib/gcc/pic32mx/8.3.1/../../../../pic32mx/lib/fpu64\libc-musl.a(malloc.o)

.text.DRV_USBHS_DEVICE_EndpointIsEnabled
                0x000000009d01eb10       0x58
 .text.DRV_USBHS_DEVICE_EndpointIsEnabled
                0x000000009d01eb10       0x58 build/pic32mz/production/_ext/1783409726/drv_usbhs_device.o
                0x000000009d01eb10                DRV_USBHS_DEVICE_EndpointIsEnabled

.text.DRV_USBHS_DEVICE_EndpointIsStalled
                0x000000009d01eb68       0x58
 .text.DRV_USBHS_DEVICE_EndpointIsStalled
                0x000000009d01eb68       0x58 build/pic32mz/production/_ext/1783409726/drv_usbhs_device.o
                0x000000009d01eb68                DRV_USBHS_DEVICE_EndpointIsStalled

.text.tchar2uni
                0x000000009d01ebc0       0x58
 .text.tchar2uni
                0x000000009d01ebc0       0x58 build/pic32mz/production/_ext/1192657380/ff.o

.text.diskEventHandler
                0x000000009d01ec18       0x58
 .text.diskEventHandler
                0x000000009d01ec18       0x58 build/pic32mz/production/_ext/727274963/diskio.o
                0x000000009d01ec18                diskEventHandler

.text.SYS_INT_SourceDisable
                0x000000009d01ec70       0x58
 .text.SYS_INT_SourceDisable
                0x000000009d01ec70       0x58 build/pic32mz/production/_ext/1832149040/sys_int.o
                0x000000009d01ec70                SYS_INT_SourceDisable

.text.SYS_TIME_ResourceLock
                0x000000009d01ecc8       0x58
 .text.SYS_TIME_ResourceLock
                0x000000009d01ecc8       0x58 build/pic32mz/production/_ext/1636986698/sys_time.o

.text._USB_DEVICE_RedirectControlXfrToClient
                0x000000009d01ed20       0x58
 .text._USB_DEVICE_RedirectControlXfrToClient
                0x000000009d01ed20       0x58 build/pic32mz/production/_ext/202551283/usb_device.o
                0x000000009d01ed20                _USB_DEVICE_RedirectControlXfrToClient

.text.USB_DEVICE_EndpointEnable
                0x000000009d01ed78       0x58
 .text.USB_DEVICE_EndpointEnable
                0x000000009d01ed78       0x58 build/pic32mz/production/_ext/202551283/usb_device.o
                0x000000009d01ed78                USB_DEVICE_EndpointEnable

.text._USB_DEVICE_CDC_EndpointDisable
                0x000000009d01edd0       0x58
 .text._USB_DEVICE_CDC_EndpointDisable
                0x000000009d01edd0       0x58 build/pic32mz/production/_ext/202551283/usb_device_cdc.o
                0x000000009d01edd0                _USB_DEVICE_CDC_EndpointDisable

.text.initCyclicTImer
                0x000000009d01ee28       0x58
 .text.initCyclicTImer
                0x000000009d01ee28       0x58 build/pic32mz/production/_ext/1360937237/app.o
                0x000000009d01ee28                initCyclicTImer

.text.adjust_size
                0x000000009d01ee80       0x58
 .text.adjust_size
                0x000000009d01ee80       0x58 c:/program files/microchip/xc32/v4.00/bin/bin/../../lib/gcc/pic32mx/8.3.1/../../../../pic32mx/lib/fpu64\libc-musl.a(malloc.o)

.text.trim      0x000000009d01eed8       0x58
 .text.trim     0x000000009d01eed8       0x58 c:/program files/microchip/xc32/v4.00/bin/bin/../../lib/gcc/pic32mx/8.3.1/../../../../pic32mx/lib/fpu64\libc-musl.a(malloc.o)

.text.DRV_SDSPI_IsAttached
                0x000000009d01ef30       0x54
 .text.DRV_SDSPI_IsAttached
                0x000000009d01ef30       0x54 build/pic32mz/production/_ext/757013429/drv_sdspi.o
                0x000000009d01ef30                DRV_SDSPI_IsAttached

.text.DRV_USBHS_DEVICE_CurrentSpeedGet
                0x000000009d01ef84       0x54
 .text.DRV_USBHS_DEVICE_CurrentSpeedGet
                0x000000009d01ef84       0x54 build/pic32mz/production/_ext/1783409726/drv_usbhs_device.o
                0x000000009d01ef84                DRV_USBHS_DEVICE_CurrentSpeedGet

.rodata.str1.4  0x000000009d01efd8       0x54
 .rodata.str1.4
                0x000000009d01efd8       0x54 build/pic32mz/production/_ext/1192657380/ff.o

.text.f_close   0x000000009d01f02c       0x54
 .text.f_close  0x000000009d01f02c       0x54 build/pic32mz/production/_ext/1192657380/ff.o
                0x000000009d01f02c                f_close

.text.f_putc    0x000000009d01f080       0x54
 .text.f_putc   0x000000009d01f080       0x54 build/pic32mz/production/_ext/1192657380/ff.o
                0x000000009d01f080                f_putc

.text.ff_oem2uni
                0x000000009d01f0d4       0x54
 .text.ff_oem2uni
                0x000000009d01f0d4       0x54 build/pic32mz/production/_ext/1192657380/ffunicode.o
                0x000000009d01f0d4                ff_oem2uni

.text.createHexString
                0x000000009d01f128       0x54
 .text.createHexString
                0x000000009d01f128       0x54 build/pic32mz/production/_ext/1360937237/mdot.o
                0x000000009d01f128                createHexString

.text.main_entry
                0x000000009d01f17c       0x54
 .text.main_entry
                0x000000009d01f17c       0x54 C:\Users\rford7\AppData\Local\Temp\cciIy8zr.o
                0x000000009d01f1b0                __crt0_exit

.text._DRV_SDSPI_SPIWrite
                0x000000009d01f1d0       0x50
 .text._DRV_SDSPI_SPIWrite
                0x000000009d01f1d0       0x50 build/pic32mz/production/_ext/757013429/drv_sdspi_driver_interface.o
                0x000000009d01f1d0                _DRV_SDSPI_SPIWrite

.text._DRV_SDSPI_SPIRead
                0x000000009d01f220       0x50
 .text._DRV_SDSPI_SPIRead
                0x000000009d01f220       0x50 build/pic32mz/production/_ext/757013429/drv_sdspi_driver_interface.o
                0x000000009d01f220                _DRV_SDSPI_SPIRead

.text.initBuffer
                0x000000009d01f270       0x50
 .text.initBuffer
                0x000000009d01f270       0x50 build/pic32mz/production/_ext/1360937237/stringbuffer.o
                0x000000009d01f270                initBuffer

.text._DRV_USBHS_DEVICE_Initialize
                0x000000009d01f2c0       0x4c
 .text._DRV_USBHS_DEVICE_Initialize
                0x000000009d01f2c0       0x4c build/pic32mz/production/_ext/1783409726/drv_usbhs_device.o
                0x000000009d01f2c0                _DRV_USBHS_DEVICE_Initialize

.text.SYS_CACHE_InvalidateDCache_by_Addr
                0x000000009d01f30c       0x4c
 .text.SYS_CACHE_InvalidateDCache_by_Addr
                0x000000009d01f30c       0x4c build/pic32mz/production/_ext/1519118610/sys_cache.o
                0x000000009d01f30c                SYS_CACHE_InvalidateDCache_by_Addr

.text.SYS_CACHE_CleanDCache_by_Addr
                0x000000009d01f358       0x4c
 .text.SYS_CACHE_CleanDCache_by_Addr
                0x000000009d01f358       0x4c build/pic32mz/production/_ext/1519118610/sys_cache.o
                0x000000009d01f358                SYS_CACHE_CleanDCache_by_Addr

.text.SYS_FS_MEDIA_MANAGER_TransferTask
                0x000000009d01f3a4       0x4c
 .text.SYS_FS_MEDIA_MANAGER_TransferTask
                0x000000009d01f3a4       0x4c build/pic32mz/production/_ext/252936118/sys_fs_media_manager.o
                0x000000009d01f3a4                SYS_FS_MEDIA_MANAGER_TransferTask

.text.FATFS_readdir
                0x000000009d01f3f0       0x4c
 .text.FATFS_readdir
                0x000000009d01f3f0       0x4c build/pic32mz/production/_ext/252936118/sys_fs_fat_interface.o
                0x000000009d01f3f0                FATFS_readdir

.text.cyclicCallback
                0x000000009d01f43c       0x4c
 .text.cyclicCallback
                0x000000009d01f43c       0x4c build/pic32mz/production/_ext/1360937237/app.o
                0x000000009d01f43c                cyclicCallback

.text.uart6_readCallback
                0x000000009d01f488       0x4c
 .text.uart6_readCallback
                0x000000009d01f488       0x4c build/pic32mz/production/_ext/1360937237/communication.o
                0x000000009d01f488                uart6_readCallback

.text.DRV_SDSPI_GeometryGet
                0x000000009d01f4d4       0x48
 .text.DRV_SDSPI_GeometryGet
                0x000000009d01f4d4       0x48 build/pic32mz/production/_ext/757013429/drv_sdspi.o
                0x000000009d01f4d4                DRV_SDSPI_GeometryGet

.text._DRV_SDSPI_SPIDriverEventHandler
                0x000000009d01f51c       0x48
 .text._DRV_SDSPI_SPIDriverEventHandler
                0x000000009d01f51c       0x48 build/pic32mz/production/_ext/757013429/drv_sdspi_driver_interface.o
                0x000000009d01f51c                _DRV_SDSPI_SPIDriverEventHandler

.text._DRV_SDSPI_CardDetectPollingTimerStart
                0x000000009d01f564       0x48
 .text._DRV_SDSPI_CardDetectPollingTimerStart
                0x000000009d01f564       0x48 build/pic32mz/production/_ext/757013429/drv_sdspi_driver_interface.o
                0x000000009d01f564                _DRV_SDSPI_CardDetectPollingTimerStart

.text._DRV_SDSPI_CmdResponseTimerStart
                0x000000009d01f5ac       0x48
 .text._DRV_SDSPI_CmdResponseTimerStart
                0x000000009d01f5ac       0x48 build/pic32mz/production/_ext/757013429/drv_sdspi_driver_interface.o
                0x000000009d01f5ac                _DRV_SDSPI_CmdResponseTimerStart

.text._DRV_SDSPI_TimerStart
                0x000000009d01f5f4       0x48
 .text._DRV_SDSPI_TimerStart
                0x000000009d01f5f4       0x48 build/pic32mz/production/_ext/757013429/drv_sdspi_driver_interface.o
                0x000000009d01f5f4                _DRV_SDSPI_TimerStart

.text.DRV_USBHS_DEVICE_Attach
                0x000000009d01f63c       0x48
 .text.DRV_USBHS_DEVICE_Attach
                0x000000009d01f63c       0x48 build/pic32mz/production/_ext/1783409726/drv_usbhs_device.o
                0x000000009d01f63c                DRV_USBHS_DEVICE_Attach

.text.FATFS_stat
                0x000000009d01f684       0x48
 .text.FATFS_stat
                0x000000009d01f684       0x48 build/pic32mz/production/_ext/252936118/sys_fs_fat_interface.o
                0x000000009d01f684                FATFS_stat

.text.SYS_Tasks
                0x000000009d01f6cc       0x48
 .text.SYS_Tasks
                0x000000009d01f6cc       0x48 build/pic32mz/production/_ext/953055421/tasks.o
                0x000000009d01f6cc                SYS_Tasks

.text.__pop_float
                0x000000009d01f714       0x48
 .text.__pop_float
                0x000000009d01f714       0x48 c:/program files/microchip/xc32/v4.00/bin/bin/../../lib/gcc/pic32mx/8.3.1/../../../../pic32mx/lib/fpu64\libc-musl.a(__pop_float.o)
                0x000000009d01f714                __pop_float_needed
                0x000000009d01f714                __pop_float

.text.FATFS_close
                0x000000009d01f75c       0x44
 .text.FATFS_close
                0x000000009d01f75c       0x44 build/pic32mz/production/_ext/252936118/sys_fs_fat_interface.o
                0x000000009d01f75c                FATFS_close

.text.FATFS_closedir
                0x000000009d01f7a0       0x44
 .text.FATFS_closedir
                0x000000009d01f7a0       0x44 build/pic32mz/production/_ext/252936118/sys_fs_fat_interface.o
                0x000000009d01f7a0                FATFS_closedir

.text.SYS_TIME_ResourceUnlock
                0x000000009d01f7e4       0x44
 .text.SYS_TIME_ResourceUnlock
                0x000000009d01f7e4       0x44 build/pic32mz/production/_ext/1636986698/sys_time.o

.text.USB_DEVICE_EndpointDisable
                0x000000009d01f828       0x44
 .text.USB_DEVICE_EndpointDisable
                0x000000009d01f828       0x44 build/pic32mz/production/_ext/202551283/usb_device.o
                0x000000009d01f828                USB_DEVICE_EndpointDisable

.text.USB_DEVICE_IRPCancelAll
                0x000000009d01f86c       0x44
 .text.USB_DEVICE_IRPCancelAll
                0x000000009d01f86c       0x44 build/pic32mz/production/_ext/202551283/usb_device.o
                0x000000009d01f86c                USB_DEVICE_IRPCancelAll

.text           0x000000009d01f8b0       0x44
 .text          0x000000009d01f8b0       0x44 c:/program files/microchip/xc32/v4.00/bin/bin/../../lib/gcc/pic32mx/8.3.1/../../../../pic32mx/lib/fpu64\pic32_software_reset.o
                0x000000009d01f8b0                __pic32_software_reset

.text.__towrite
                0x000000009d01f8f4       0x44
 .text.__towrite
                0x000000009d01f8f4       0x44 c:/program files/microchip/xc32/v4.00/bin/bin/../../lib/gcc/pic32mx/8.3.1/../../../../pic32mx/lib/fpu64\libc-musl.a(__towrite.o)
                0x000000009d01f8f4                __towrite

.text.DRV_SDSPI_EventHandlerSet
                0x000000009d01f938       0x40
 .text.DRV_SDSPI_EventHandlerSet
                0x000000009d01f938       0x40 build/pic32mz/production/_ext/757013429/drv_sdspi.o
                0x000000009d01f938                DRV_SDSPI_EventHandlerSet

.text.TMR2_Initialize
                0x000000009d01f978       0x40
 .text.TMR2_Initialize
                0x000000009d01f978       0x40 build/pic32mz/production/_ext/10662482/plib_tmr2.o
                0x000000009d01f978                TMR2_Initialize

.text.TIMER_2_InterruptHandler
                0x000000009d01f9b8       0x40
 .text.TIMER_2_InterruptHandler
                0x000000009d01f9b8       0x40 build/pic32mz/production/_ext/10662482/plib_tmr2.o
                0x000000009d01f9b8                TIMER_2_InterruptHandler

.text.ld_clust  0x000000009d01f9f8       0x40
 .text.ld_clust
                0x000000009d01f9f8       0x40 build/pic32mz/production/_ext/1192657380/ff.o

.text.FATFS_mkfs
                0x000000009d01fa38       0x40
 .text.FATFS_mkfs
                0x000000009d01fa38       0x40 build/pic32mz/production/_ext/252936118/sys_fs_fat_interface.o
                0x000000009d01fa38                FATFS_mkfs

.text.mDotWait  0x000000009d01fa78       0x40
 .text.mDotWait
                0x000000009d01fa78       0x40 build/pic32mz/production/_ext/1360937237/mdot.o
                0x000000009d01fa78                mDotWait

.text.available
                0x000000009d01fab8       0x40
 .text.available
                0x000000009d01fab8       0x40 build/pic32mz/production/_ext/1360937237/stringbuffer.o
                0x000000009d01fab8                available

.text._DRV_SDSPI_SPISpeedSetup
                0x000000009d01faf8       0x3c
 .text._DRV_SDSPI_SPISpeedSetup
                0x000000009d01faf8       0x3c build/pic32mz/production/_ext/757013429/drv_sdspi_driver_interface.o
                0x000000009d01faf8                _DRV_SDSPI_SPISpeedSetup

.text.CORE_TIMER_InterruptHandler
                0x000000009d01fb34       0x3c
 .text.CORE_TIMER_InterruptHandler
                0x000000009d01fb34       0x3c build/pic32mz/production/_ext/809018751/plib_coretimer.o
                0x000000009d01fb34                CORE_TIMER_InterruptHandler

.text.SYS_TIME_Counter64Update
                0x000000009d01fb70       0x3c
 .text.SYS_TIME_Counter64Update
                0x000000009d01fb70       0x3c build/pic32mz/production/_ext/1636986698/sys_time.o

.text.__towrite_rw
                0x000000009d01fbac       0x3c
 .text.__towrite_rw
                0x000000009d01fbac       0x3c c:/program files/microchip/xc32/v4.00/bin/bin/../../lib/gcc/pic32mx/8.3.1/../../../../pic32mx/lib/fpu64\libc-musl.a(__towrite_rw.o)
                0x000000009d01fbac                __towrite_rw
                0x000000009d01fbac                __towrite_rw_needed

.text.__expand_heap
                0x000000009d01fbe8       0x3c
 .text.__expand_heap
                0x000000009d01fbe8       0x3c c:/program files/microchip/xc32/v4.00/bin/bin/../../lib/gcc/pic32mx/8.3.1/../../../../pic32mx/lib/fpu64\libc-musl.a(expand_heap.o)
                0x000000009d01fbe8                __expand_heap

.text.__vfprintf
                0x000000009d01fc24       0x3c
 .text.__vfprintf
                0x000000009d01fc24       0x3c c:/program files/microchip/xc32/v4.00/bin/bin/../../lib/gcc/pic32mx/8.3.1/../../../../pic32mx/lib/fpu64\libc-musl.a(__int_vfprintf.o)
                0x000000009d01fc24                __vfprintf

.text           0x000000009d01fc60       0x78
 .text          0x000000009d01fc60       0x3c c:/program files/microchip/xc32/v4.00/bin/bin/../../lib/gcc/pic32mx/8.3.1/fpu64\libgcc.a(_lshrdi3.o)
                0x000000009d01fc60                __lshrdi3
 .text          0x000000009d01fc9c       0x3c c:/program files/microchip/xc32/v4.00/bin/bin/../../lib/gcc/pic32mx/8.3.1/fpu64\libgcc.a(_ashldi3.o)
                0x000000009d01fc9c                __ashldi3

.text._DRV_SDSPI_CmdResponseTimerStop
                0x000000009d01fcd8       0x38
 .text._DRV_SDSPI_CmdResponseTimerStop
                0x000000009d01fcd8       0x38 build/pic32mz/production/_ext/757013429/drv_sdspi_driver_interface.o
                0x000000009d01fcd8                _DRV_SDSPI_CmdResponseTimerStop

.text._DRV_SDSPI_TimerStop
                0x000000009d01fd10       0x38
 .text._DRV_SDSPI_TimerStop
                0x000000009d01fd10       0x38 build/pic32mz/production/_ext/757013429/drv_sdspi_driver_interface.o
                0x000000009d01fd10                _DRV_SDSPI_TimerStop

.text.DRV_USBHS_DEVICE_AddressSet
                0x000000009d01fd48       0x38
 .text.DRV_USBHS_DEVICE_AddressSet
                0x000000009d01fd48       0x38 build/pic32mz/production/_ext/1783409726/drv_usbhs_device.o
                0x000000009d01fd48                DRV_USBHS_DEVICE_AddressSet

.rodata         0x000000009d01fd80       0x38
 .rodata        0x000000009d01fd80       0x38 build/pic32mz/production/_ext/1783409726/drv_usbhs_device.o

.text.UART5_Initialize
                0x000000009d01fdb8       0x38
 .text.UART5_Initialize
                0x000000009d01fdb8       0x38 build/pic32mz/production/_ext/330555317/plib_uart5.o
                0x000000009d01fdb8                UART5_Initialize

.text.SYS_TIME_GetElapsedCount
                0x000000009d01fdf0       0x38
 .text.SYS_TIME_GetElapsedCount
                0x000000009d01fdf0       0x38 build/pic32mz/production/_ext/1636986698/sys_time.o

.text.CORETIMER_Stop
                0x000000009d01fe28       0x34
 .text.CORETIMER_Stop
                0x000000009d01fe28       0x34 build/pic32mz/production/_ext/809018751/plib_coretimer.o
                0x000000009d01fe28                CORETIMER_Stop

.text.clst2sect
                0x000000009d01fe5c       0x34
 .text.clst2sect
                0x000000009d01fe5c       0x34 build/pic32mz/production/_ext/1192657380/ff.o

.text.st_clust  0x000000009d01fe90       0x34
 .text.st_clust
                0x000000009d01fe90       0x34 build/pic32mz/production/_ext/1192657380/ff.o

.text.SYS_FS_MEDIA_MANAGER_GetMediaGeometry
                0x000000009d01fec4       0x34
 .text.SYS_FS_MEDIA_MANAGER_GetMediaGeometry
                0x000000009d01fec4       0x34 build/pic32mz/production/_ext/252936118/sys_fs_media_manager.o
                0x000000009d01fec4                SYS_FS_MEDIA_MANAGER_GetMediaGeometry

.text.lock_bin  0x000000009d01fef8       0x34
 .text.lock_bin
                0x000000009d01fef8       0x34 c:/program files/microchip/xc32/v4.00/bin/bin/../../lib/gcc/pic32mx/8.3.1/../../../../pic32mx/lib/fpu64\libc-musl.a(malloc.o)

.text.__fwrite  0x000000009d01ff2c       0x34
 .text.__fwrite
                0x000000009d01ff2c       0x34 c:/program files/microchip/xc32/v4.00/bin/bin/../../lib/gcc/pic32mx/8.3.1/../../../../pic32mx/lib/fpu64\libc-musl.a(__fwrite.o)
                0x000000009d01ff2c                __fwrite
                0x000000009d01ff2c                __fwrite_needed

.rodata         0x000000009d01ff60       0x30
 .rodata        0x000000009d01ff60       0x30 build/pic32mz/production/_ext/757013429/drv_sdspi_file_system.o
                0x000000009d01ff60                sdspiMediaFunctions

.text.DRV_USBHS_Close
                0x000000009d01ff90       0x30
 .text.DRV_USBHS_Close
                0x000000009d01ff90       0x30 build/pic32mz/production/_ext/1783409726/drv_usbhs.o
                0x000000009d01ff90                DRV_USBHS_Close

.text.sum_sfn   0x000000009d01ffc0       0x30
 .text.sum_sfn  0x000000009d01ffc0       0x30 build/pic32mz/production/_ext/1192657380/ff.o

.text.f_chdrive
                0x000000009d01fff0       0x30
 .text.f_chdrive
                0x000000009d01fff0       0x30 build/pic32mz/production/_ext/1192657380/ff.o
                0x000000009d01fff0                f_chdrive

.text.FATFS_chdrive
                0x000000009d020020       0x30
 .text.FATFS_chdrive
                0x000000009d020020       0x30 build/pic32mz/production/_ext/252936118/sys_fs_fat_interface.o
                0x000000009d020020                FATFS_chdrive

.text.clearSendBuffer
                0x000000009d020050       0x30
 .text.clearSendBuffer
                0x000000009d020050       0x30 build/pic32mz/production/_ext/1360937237/communication.o
                0x000000009d020050                clearSendBuffer

.text.clearReceiveBuffer
                0x000000009d020080       0x30
 .text.clearReceiveBuffer
                0x000000009d020080       0x30 build/pic32mz/production/_ext/1360937237/communication.o
                0x000000009d020080                clearReceiveBuffer

.text.DRV_SPI_ReadTransferAdd
                0x000000009d0200b0       0x2c
 .text.DRV_SPI_ReadTransferAdd
                0x000000009d0200b0       0x2c build/pic32mz/production/_ext/2120450970/drv_spi.o
                0x000000009d0200b0                DRV_SPI_ReadTransferAdd

.text.CORETIMER_Initialize
                0x000000009d0200dc       0x2c
 .text.CORETIMER_Initialize
                0x000000009d0200dc       0x2c build/pic32mz/production/_ext/809018751/plib_coretimer.o
                0x000000009d0200dc                CORETIMER_Initialize

.text._mon_putc
                0x000000009d020108       0x2c
 .text._mon_putc
                0x000000009d020108       0x2c build/pic32mz/production/_ext/1991269565/xc32_monitor.o
                0x000000009d020108                _mon_putc

.text.ld_dword  0x000000009d020134       0x2c
 .text.ld_dword
                0x000000009d020134       0x2c build/pic32mz/production/_ext/1192657380/ff.o

.text.SYS_INT_SourceRestore
                0x000000009d020160       0x2c
 .text.SYS_INT_SourceRestore
                0x000000009d020160       0x2c build/pic32mz/production/_ext/1832149040/sys_int.o
                0x000000009d020160                SYS_INT_SourceRestore

.text.parseLoraFrame
                0x000000009d02018c       0x2c
 .text.parseLoraFrame
                0x000000009d02018c       0x2c build/pic32mz/production/_ext/1360937237/mdot.o
                0x000000009d02018c                parseLoraFrame

.text._stub_sbd_memlayout
                0x000000009d0201b8       0x2c
 .text._stub_sbd_memlayout
                0x000000009d0201b8       0x2c c:/program files/microchip/xc32/v4.00/bin/bin/../../lib/gcc/pic32mx/8.3.1/../../../../pic32mx/lib/fpu64\libpic32.a(sbrk.o)
                0x000000009d0201b8                _sbd_memlayout
                0x000000009d0201b8                _stub_sbd_memlayout

.text.DRV_SDSPI_AsyncWrite
                0x000000009d0201e4       0x28
 .text.DRV_SDSPI_AsyncWrite
                0x000000009d0201e4       0x28 build/pic32mz/production/_ext/757013429/drv_sdspi.o
                0x000000009d0201e4                DRV_SDSPI_AsyncWrite

.text.DRV_SDSPI_RegisterWithSysFs
                0x000000009d02020c       0x28
 .text.DRV_SDSPI_RegisterWithSysFs
                0x000000009d02020c       0x28 build/pic32mz/production/_ext/757013429/drv_sdspi_file_system.o
                0x000000009d02020c                DRV_SDSPI_RegisterWithSysFs

.text.EVIC_SourceEnable
                0x000000009d020234       0x28
 .text.EVIC_SourceEnable
                0x000000009d020234       0x28 build/pic32mz/production/_ext/330098546/plib_evic.o
                0x000000009d020234                EVIC_SourceEnable

.text.EVIC_SourceDisable
                0x000000009d02025c       0x28
 .text.EVIC_SourceDisable
                0x000000009d02025c       0x28 build/pic32mz/production/_ext/330098546/plib_evic.o
                0x000000009d02025c                EVIC_SourceDisable

.text.EVIC_SourceStatusClear
                0x000000009d020284       0x28
 .text.EVIC_SourceStatusClear
                0x000000009d020284       0x28 build/pic32mz/production/_ext/330098546/plib_evic.o
                0x000000009d020284                EVIC_SourceStatusClear

.text.EVIC_INT_Restore
                0x000000009d0202ac       0x28
 .text.EVIC_INT_Restore
                0x000000009d0202ac       0x28 build/pic32mz/production/_ext/330098546/plib_evic.o
                0x000000009d0202ac                EVIC_INT_Restore

.text._SYS_FS_MEDIA_MANAGER_HandleMediaDetach
                0x000000009d0202d4       0x28
 .text._SYS_FS_MEDIA_MANAGER_HandleMediaDetach
                0x000000009d0202d4       0x28 build/pic32mz/production/_ext/252936118/sys_fs_media_manager.o

.text._USB_DEVICE_ClientHandleValidate
                0x000000009d0202fc       0x28
 .text._USB_DEVICE_ClientHandleValidate
                0x000000009d0202fc       0x28 build/pic32mz/production/_ext/202551283/usb_device.o
                0x000000009d0202fc                _USB_DEVICE_ClientHandleValidate

.text.__wrap_sprintf
                0x000000009d020324       0x28
 .text.__wrap_sprintf
                0x000000009d020324       0x28 c:/program files/microchip/xc32/v4.00/bin/bin/../../lib/gcc/pic32mx/8.3.1/../../../../pic32mx/lib/fpu64\libc-musl.a(__sio_sprintf_dosux.o)
                0x000000009d020324                _sprintf_cdnopsuxX
                0x000000009d020324                _dsprintf_cdnopsuxX

.text.__vsprintf
                0x000000009d02034c       0x28
 .text.__vsprintf
                0x000000009d02034c       0x28 c:/program files/microchip/xc32/v4.00/bin/bin/../../lib/gcc/pic32mx/8.3.1/../../../../pic32mx/lib/fpu64\libc-musl.a(__int_vsprintf.o)
                0x000000009d02034c                __vsprintf

.text.DRV_SDSPI_AsyncRead
                0x000000009d020374       0x24
 .text.DRV_SDSPI_AsyncRead
                0x000000009d020374       0x24 build/pic32mz/production/_ext/757013429/drv_sdspi.o
                0x000000009d020374                DRV_SDSPI_AsyncRead

.text.DRV_SPI_WriteTransferAdd
                0x000000009d020398       0x24
 .text.DRV_SPI_WriteTransferAdd
                0x000000009d020398       0x24 build/pic32mz/production/_ext/2120450970/drv_spi.o
                0x000000009d020398                DRV_SPI_WriteTransferAdd

.text.CACHE_DataCacheClean
                0x000000009d0203bc       0x24
 .text.CACHE_DataCacheClean
                0x000000009d0203bc       0x24 build/pic32mz/production/_ext/1640642171/plib_cache.o
                0x000000009d0203bc                CACHE_DataCacheClean

.text.CACHE_DataCacheInvalidate
                0x000000009d0203e0       0x24
 .text.CACHE_DataCacheInvalidate
                0x000000009d0203e0       0x24 build/pic32mz/production/_ext/1640642171/plib_cache.o
                0x000000009d0203e0                CACHE_DataCacheInvalidate

.text.mem_cpy   0x000000009d020404       0x24
 .text.mem_cpy  0x000000009d020404       0x24 build/pic32mz/production/_ext/1192657380/ff.o

.text.disk_initialize
                0x000000009d020428       0x24
 .text.disk_initialize
                0x000000009d020428       0x24 build/pic32mz/production/_ext/727274963/diskio.o
                0x000000009d020428                disk_initialize

.text.sendBuffer
                0x000000009d02044c       0x24
 .text.sendBuffer
                0x000000009d02044c       0x24 build/pic32mz/production/_ext/1360937237/communication.o
                0x000000009d02044c                sendBuffer

.text.setbuf    0x000000009d020470       0x24
 .text.setbuf   0x000000009d020470       0x24 c:/program files/microchip/xc32/v4.00/bin/bin/../../lib/gcc/pic32mx/8.3.1/../../../../pic32mx/lib/fpu64\libc-musl.a(setbuf.o)
                0x000000009d020470                setbuf

.text.__syscall_ret
                0x000000009d020494       0x24
 .text.__syscall_ret
                0x000000009d020494       0x24 c:/program files/microchip/xc32/v4.00/bin/bin/../../lib/gcc/pic32mx/8.3.1/../../../../pic32mx/lib/fpu64\libc-musl.a(syscall_ret.o)
                0x000000009d020494                __syscall_ret

.text.DRV_USBHS_InterruptHandler
                0x000000009d0204b8       0x20
 .text.DRV_USBHS_InterruptHandler
                0x000000009d0204b8       0x20 build/pic32mz/production/_ext/1783409726/drv_usbhs.o
                0x000000009d0204b8                DRV_USBHS_InterruptHandler

.text.DRV_USBHS_DMAInterruptHandler
                0x000000009d0204d8       0x20
 .text.DRV_USBHS_DMAInterruptHandler
                0x000000009d0204d8       0x20 build/pic32mz/production/_ext/1783409726/drv_usbhs.o
                0x000000009d0204d8                DRV_USBHS_DMAInterruptHandler

.text._DRV_USBHS_DEVICE_FIFOFreeAll
                0x000000009d0204f8       0x20
 .text._DRV_USBHS_DEVICE_FIFOFreeAll
                0x000000009d0204f8       0x20 build/pic32mz/production/_ext/1783409726/drv_usbhs_device.o
                0x000000009d0204f8                _DRV_USBHS_DEVICE_FIFOFreeAll

.text.EVIC_SourceIsEnabled
                0x000000009d020518       0x20
 .text.EVIC_SourceIsEnabled
                0x000000009d020518       0x20 build/pic32mz/production/_ext/330098546/plib_evic.o
                0x000000009d020518                EVIC_SourceIsEnabled

.text.EVIC_INT_Disable
                0x000000009d020538       0x20
 .text.EVIC_INT_Disable
                0x000000009d020538       0x20 build/pic32mz/production/_ext/330098546/plib_evic.o
                0x000000009d020538                EVIC_INT_Disable

.text.st_dword  0x000000009d020558       0x20
 .text.st_dword
                0x000000009d020558       0x20 build/pic32mz/production/_ext/1192657380/ff.o

.rodata.str1.4  0x000000009d020578       0x20
 .rodata.str1.4
                0x000000009d020578       0x20 build/pic32mz/production/_ext/252936118/sys_fs_media_manager.o

.text._USB_DEVICE_CDC_GlobalInitialize
                0x000000009d020598       0x20
 .text._USB_DEVICE_CDC_GlobalInitialize
                0x000000009d020598       0x20 build/pic32mz/production/_ext/202551283/usb_device_cdc.o
                0x000000009d020598                _USB_DEVICE_CDC_GlobalInitialize

.text.main      0x000000009d0205b8       0x20
 .text.main     0x000000009d0205b8       0x20 build/pic32mz/production/_ext/1360937237/main.o
                0x000000009d0205b8                main

.text.__fwrite_min
                0x000000009d0205d8       0x20
 .text.__fwrite_min
                0x000000009d0205d8       0x20 c:/program files/microchip/xc32/v4.00/bin/bin/../../lib/gcc/pic32mx/8.3.1/../../../../pic32mx/lib/fpu64\libc-musl.a(__out.o)
                0x000000009d0205d8                __stdio_write_unbuffered
                0x000000009d0205d8                __stdio_write

.text._DRV_SDSPI_SPIExclusiveAccess
                0x000000009d0205f8       0x1c
 .text._DRV_SDSPI_SPIExclusiveAccess
                0x000000009d0205f8       0x1c build/pic32mz/production/_ext/757013429/drv_sdspi_driver_interface.o
                0x000000009d0205f8                _DRV_SDSPI_SPIExclusiveAccess

.text.CACHE_CacheCoherencyGet
                0x000000009d020614       0x1c
 .text.CACHE_CacheCoherencyGet
                0x000000009d020614       0x1c build/pic32mz/production/_ext/1640642171/plib_cache.o
                0x000000009d020614                CACHE_CacheCoherencyGet

.text.CORETIMER_CompareSet
                0x000000009d020630       0x1c
 .text.CORETIMER_CompareSet
                0x000000009d020630       0x1c build/pic32mz/production/_ext/809018751/plib_coretimer.o
                0x000000009d020630                CORETIMER_CompareSet

.text.GPIO_PortSet
                0x000000009d02064c       0x1c
 .text.GPIO_PortSet
                0x000000009d02064c       0x1c build/pic32mz/production/_ext/330152374/plib_gpio.o
                0x000000009d02064c                GPIO_PortSet

.text.GPIO_PortClear
                0x000000009d020668       0x1c
 .text.GPIO_PortClear
                0x000000009d020668       0x1c build/pic32mz/production/_ext/330152374/plib_gpio.o
                0x000000009d020668                GPIO_PortClear

.text.get_fattime
                0x000000009d020684       0x1c
 .text.get_fattime
                0x000000009d020684       0x1c build/pic32mz/production/_ext/727274963/diskio.o
                0x000000009d020684                get_fattime

.text.SYS_FS_Tasks
                0x000000009d0206a0       0x1c
 .text.SYS_FS_Tasks
                0x000000009d0206a0       0x1c build/pic32mz/production/_ext/252936118/sys_fs.o
                0x000000009d0206a0                SYS_FS_Tasks

.text.FATFS_read
                0x000000009d0206bc       0x1c
 .text.FATFS_read
                0x000000009d0206bc       0x1c build/pic32mz/production/_ext/252936118/sys_fs_fat_interface.o
                0x000000009d0206bc                FATFS_read

.text.FATFS_lseek
                0x000000009d0206d8       0x1c
 .text.FATFS_lseek
                0x000000009d0206d8       0x1c build/pic32mz/production/_ext/252936118/sys_fs_fat_interface.o
                0x000000009d0206d8                FATFS_lseek

.text.FATFS_getlabel
                0x000000009d0206f4       0x1c
 .text.FATFS_getlabel
                0x000000009d0206f4       0x1c build/pic32mz/production/_ext/252936118/sys_fs_fat_interface.o
                0x000000009d0206f4                FATFS_getlabel

.text.FATFS_getcwd
                0x000000009d020710       0x1c
 .text.FATFS_getcwd
                0x000000009d020710       0x1c build/pic32mz/production/_ext/252936118/sys_fs_fat_interface.o
                0x000000009d020710                FATFS_getcwd

.text.FATFS_gets
                0x000000009d02072c       0x1c
 .text.FATFS_gets
                0x000000009d02072c       0x1c build/pic32mz/production/_ext/252936118/sys_fs_fat_interface.o
                0x000000009d02072c                FATFS_gets

.text.FATFS_chdir
                0x000000009d020748       0x1c
 .text.FATFS_chdir
                0x000000009d020748       0x1c build/pic32mz/production/_ext/252936118/sys_fs_fat_interface.o
                0x000000009d020748                FATFS_chdir

.text.FATFS_write
                0x000000009d020764       0x1c
 .text.FATFS_write
                0x000000009d020764       0x1c build/pic32mz/production/_ext/252936118/sys_fs_fat_interface.o
                0x000000009d020764                FATFS_write

.text.FATFS_mkdir
                0x000000009d020780       0x1c
 .text.FATFS_mkdir
                0x000000009d020780       0x1c build/pic32mz/production/_ext/252936118/sys_fs_fat_interface.o
                0x000000009d020780                FATFS_mkdir

.text.FATFS_unlink
                0x000000009d02079c       0x1c
 .text.FATFS_unlink
                0x000000009d02079c       0x1c build/pic32mz/production/_ext/252936118/sys_fs_fat_interface.o
                0x000000009d02079c                FATFS_unlink

.text.FATFS_setlabel
                0x000000009d0207b8       0x1c
 .text.FATFS_setlabel
                0x000000009d0207b8       0x1c build/pic32mz/production/_ext/252936118/sys_fs_fat_interface.o
                0x000000009d0207b8                FATFS_setlabel

.text.FATFS_truncate
                0x000000009d0207d4       0x1c
 .text.FATFS_truncate
                0x000000009d0207d4       0x1c build/pic32mz/production/_ext/252936118/sys_fs_fat_interface.o
                0x000000009d0207d4                FATFS_truncate

.text.FATFS_chmod
                0x000000009d0207f0       0x1c
 .text.FATFS_chmod
                0x000000009d0207f0       0x1c build/pic32mz/production/_ext/252936118/sys_fs_fat_interface.o
                0x000000009d0207f0                FATFS_chmod

.text.FATFS_utime
                0x000000009d02080c       0x1c
 .text.FATFS_utime
                0x000000009d02080c       0x1c build/pic32mz/production/_ext/252936118/sys_fs_fat_interface.o
                0x000000009d02080c                FATFS_utime

.text.FATFS_rename
                0x000000009d020828       0x1c
 .text.FATFS_rename
                0x000000009d020828       0x1c build/pic32mz/production/_ext/252936118/sys_fs_fat_interface.o
                0x000000009d020828                FATFS_rename

.text.FATFS_sync
                0x000000009d020844       0x1c
 .text.FATFS_sync
                0x000000009d020844       0x1c build/pic32mz/production/_ext/252936118/sys_fs_fat_interface.o
                0x000000009d020844                FATFS_sync

.text.FATFS_putc
                0x000000009d020860       0x1c
 .text.FATFS_putc
                0x000000009d020860       0x1c build/pic32mz/production/_ext/252936118/sys_fs_fat_interface.o
                0x000000009d020860                FATFS_putc

.text.FATFS_puts
                0x000000009d02087c       0x1c
 .text.FATFS_puts
                0x000000009d02087c       0x1c build/pic32mz/production/_ext/252936118/sys_fs_fat_interface.o
                0x000000009d02087c                FATFS_puts

.text.FATFS_printf
                0x000000009d020898       0x1c
 .text.FATFS_printf
                0x000000009d020898       0x1c build/pic32mz/production/_ext/252936118/sys_fs_fat_interface.o
                0x000000009d020898                FATFS_printf

.text.FATFS_fdisk
                0x000000009d0208b4       0x1c
 .text.FATFS_fdisk
                0x000000009d0208b4       0x1c build/pic32mz/production/_ext/252936118/sys_fs_fat_interface.o
                0x000000009d0208b4                FATFS_fdisk

.text.SYS_INT_Disable
                0x000000009d0208d0       0x1c
 .text.SYS_INT_Disable
                0x000000009d0208d0       0x1c build/pic32mz/production/_ext/1832149040/sys_int.o
                0x000000009d0208d0                SYS_INT_Disable

.text.SYS_INT_Restore
                0x000000009d0208ec       0x1c
 .text.SYS_INT_Restore
                0x000000009d0208ec       0x1c build/pic32mz/production/_ext/1832149040/sys_int.o
                0x000000009d0208ec                SYS_INT_Restore

.text.uart6_writeCallback
                0x000000009d020908       0x1c
 .text.uart6_writeCallback
                0x000000009d020908       0x1c build/pic32mz/production/_ext/1360937237/communication.o
                0x000000009d020908                uart6_writeCallback

.text.tolower   0x000000009d020924       0x1c
 .text.tolower  0x000000009d020924       0x1c c:/program files/microchip/xc32/v4.00/bin/bin/../../lib/gcc/pic32mx/8.3.1/../../../../pic32mx/lib/fpu64\libc-musl.a(tolower.o)
                0x000000009d020924                tolower

.text.toupper   0x000000009d020940       0x1c
 .text.toupper  0x000000009d020940       0x1c c:/program files/microchip/xc32/v4.00/bin/bin/../../lib/gcc/pic32mx/8.3.1/../../../../pic32mx/lib/fpu64\libc-musl.a(toupper.o)
                0x000000009d020940                toupper

.text.__read    0x000000009d02095c       0x1c
 .text.__read   0x000000009d02095c       0x1c c:/program files/microchip/xc32/v4.00/bin/bin/../../lib/gcc/pic32mx/8.3.1/../../../../pic32mx/lib/fpu64\libc-musl.a(read.o)
                0x000000009d02095c                read
                0x000000009d02095c                __read

.MIPS.abiflags  0x000000009d020978       0x18
 .MIPS.abiflags
                0x000000009d020978       0x18 c:/program files/microchip/xc32/v4.00/bin/bin/../../lib/gcc/pic32mx/8.3.1/../../../../pic32mx/lib/fpu64\debug-exception-return.o

.text.CORETIMER_CounterGet
                0x000000009d020990       0x18
 .text.CORETIMER_CounterGet
                0x000000009d020990       0x18 build/pic32mz/production/_ext/809018751/plib_coretimer.o
                0x000000009d020990                CORETIMER_CounterGet

.text.mem_set   0x000000009d0209a8       0x18
 .text.mem_set  0x000000009d0209a8       0x18 build/pic32mz/production/_ext/1192657380/ff.o

.text._general_exception_handler
                0x000000009d0209c0       0x18
 .text._general_exception_handler
                0x000000009d0209c0       0x18 build/pic32mz/production/_ext/953055421/exceptions.o
                0x000000009d0209c0                _general_exception_handler

.text._bootstrap_exception_handler
                0x000000009d0209d8       0x18
 .text._bootstrap_exception_handler
                0x000000009d0209d8       0x18 build/pic32mz/production/_ext/953055421/exceptions.o
                0x000000009d0209d8                _bootstrap_exception_handler

.text._cache_err_exception_handler
                0x000000009d0209f0       0x18
 .text._cache_err_exception_handler
                0x000000009d0209f0       0x18 build/pic32mz/production/_ext/953055421/exceptions.o
                0x000000009d0209f0                _cache_err_exception_handler

.text._simple_tlb_refill_exception_handler
                0x000000009d020a08       0x18
 .text._simple_tlb_refill_exception_handler
                0x000000009d020a08       0x18 build/pic32mz/production/_ext/953055421/exceptions.o
                0x000000009d020a08                _simple_tlb_refill_exception_handler

.text           0x000000009d020a20       0x18
 .text          0x000000009d020a20       0x18 c:/program files/microchip/xc32/v4.00/bin/bin/../../lib/gcc/pic32mx/8.3.1/../../../../pic32mx/lib/fpu64\libpic32.a(default-nmi-handler.o)
                0x000000009d020a20                _nmi_handler

.rodata         0x000000009d020a38       0x18
 .rodata        0x000000009d020a38       0x18 c:/program files/microchip/xc32/v4.00/bin/bin/../../lib/gcc/pic32mx/8.3.1/../../../../pic32mx/lib/fpu64\libc-musl.a(__printf_core.o)

.text.SPI4_IsTransmitterBusy
                0x000000009d020a50       0x14
 .text.SPI4_IsTransmitterBusy
                0x000000009d020a50       0x14 build/pic32mz/production/_ext/867254719/plib_spi4_master.o
                0x000000009d020a50                SPI4_IsTransmitterBusy

.text.SPI4_CallbackRegister
                0x000000009d020a64       0x14
 .text.SPI4_CallbackRegister
                0x000000009d020a64       0x14 build/pic32mz/production/_ext/867254719/plib_spi4_master.o
                0x000000009d020a64                SPI4_CallbackRegister

.text.TMR2_Start
                0x000000009d020a78       0x14
 .text.TMR2_Start
                0x000000009d020a78       0x14 build/pic32mz/production/_ext/10662482/plib_tmr2.o
                0x000000009d020a78                TMR2_Start

.text.UART6_ReadCallbackRegister
                0x000000009d020a8c       0x14
 .text.UART6_ReadCallbackRegister
                0x000000009d020a8c       0x14 build/pic32mz/production/_ext/330555317/plib_uart6.o
                0x000000009d020a8c                UART6_ReadCallbackRegister

.text.UART6_WriteCallbackRegister
                0x000000009d020aa0       0x14
 .text.UART6_WriteCallbackRegister
                0x000000009d020aa0       0x14 build/pic32mz/production/_ext/330555317/plib_uart6.o
                0x000000009d020aa0                UART6_WriteCallbackRegister

.text.FATFS_eof
                0x000000009d020ab4       0x14
 .text.FATFS_eof
                0x000000009d020ab4       0x14 build/pic32mz/production/_ext/252936118/sys_fs_fat_interface.o
                0x000000009d020ab4                FATFS_eof

.rodata         0x000000009d020ac8       0x28
 .rodata        0x000000009d020ac8       0x14 build/pic32mz/production/_ext/202551283/usb_device_cdc.o
                0x000000009d020ac8                cdcFunctionDriver
 .rodata        0x000000009d020adc       0x14 build/pic32mz/production/_ext/1360937237/mdot.o

.text.CORETIMER_CallbackSet
                0x000000009d020af0       0x10
 .text.CORETIMER_CallbackSet
                0x000000009d020af0       0x10 build/pic32mz/production/_ext/809018751/plib_coretimer.o
                0x000000009d020af0                CORETIMER_CallbackSet

.text.TMR2_PeriodSet
                0x000000009d020b00       0x10
 .text.TMR2_PeriodSet
                0x000000009d020b00       0x10 build/pic32mz/production/_ext/10662482/plib_tmr2.o
                0x000000009d020b00                TMR2_PeriodSet

.text.TMR2_CallbackRegister
                0x000000009d020b10       0x10
 .text.TMR2_CallbackRegister
                0x000000009d020b10       0x10 build/pic32mz/production/_ext/10662482/plib_tmr2.o
                0x000000009d020b10                TMR2_CallbackRegister

.text.communication_init
                0x000000009d020b20       0x10
 .text.communication_init
                0x000000009d020b20       0x10 build/pic32mz/production/_ext/1360937237/communication.o
                0x000000009d020b20                communication_init

.rodata.cst8    0x000000009d020b30       0x10
 .rodata.cst8   0x000000009d020b30       0x10 build/pic32mz/production/_ext/1360937237/mdot.o

.text.DRV_SDSPI_TimerCallback
                0x000000009d020b40        0xc
 .text.DRV_SDSPI_TimerCallback
                0x000000009d020b40        0xc build/pic32mz/production/_ext/757013429/drv_sdspi_driver_interface.o

.text.CORETIMER_FrequencyGet
                0x000000009d020b4c        0xc
 .text.CORETIMER_FrequencyGet
                0x000000009d020b4c        0xc build/pic32mz/production/_ext/809018751/plib_coretimer.o
                0x000000009d020b4c                CORETIMER_FrequencyGet

.text.TMR2_FrequencyGet
                0x000000009d020b58        0xc
 .text.TMR2_FrequencyGet
                0x000000009d020b58        0xc build/pic32mz/production/_ext/10662482/plib_tmr2.o
                0x000000009d020b58                TMR2_FrequencyGet

.text.SYS_FS_MEDIA_MANAGER_RegisterTransferHandler
                0x000000009d020b64        0xc
 .text.SYS_FS_MEDIA_MANAGER_RegisterTransferHandler
                0x000000009d020b64        0xc build/pic32mz/production/_ext/252936118/sys_fs_media_manager.o
                0x000000009d020b64                SYS_FS_MEDIA_MANAGER_RegisterTransferHandler

.text.FATFS_error
                0x000000009d020b70        0xc
 .text.FATFS_error
                0x000000009d020b70        0xc build/pic32mz/production/_ext/252936118/sys_fs_fat_interface.o
                0x000000009d020b70                FATFS_error

.text.APP_Initialize
                0x000000009d020b7c        0xc
 .text.APP_Initialize
                0x000000009d020b7c        0xc build/pic32mz/production/_ext/1360937237/app.o
                0x000000009d020b7c                APP_Initialize

.text.mDotInit  0x000000009d020b88        0xc
 .text.mDotInit
                0x000000009d020b88        0xc build/pic32mz/production/_ext/1360937237/mdot.o
                0x000000009d020b88                mDotInit

.text.__dummy   0x000000009d020b94       0x18
 .text.__dummy  0x000000009d020b94        0xc c:/program files/microchip/xc32/v4.00/bin/bin/../../lib/gcc/pic32mx/8.3.1/../../../../pic32mx/lib/fpu64\libc-musl.a(stdin.o)
                0x000000009d020b94                __stdio_seek_rw
 .text.__dummy  0x000000009d020ba0        0xc c:/program files/microchip/xc32/v4.00/bin/bin/../../lib/gcc/pic32mx/8.3.1/../../../../pic32mx/lib/fpu64\libc-musl.a(__fopen.o)
                0x000000009d020ba0                __stdio_seek

.text.DRV_USBHS_DEVICE_RemoteWakeupStart
                0x000000009d020bac        0x8
 .text.DRV_USBHS_DEVICE_RemoteWakeupStart
                0x000000009d020bac        0x8 build/pic32mz/production/_ext/1783409726/drv_usbhs_device.o
                0x000000009d020bac                DRV_USBHS_DEVICE_RemoteWakeupStart

.text.DRV_USBHS_DEVICE_RemoteWakeupStop
                0x000000009d020bb4        0x8
 .text.DRV_USBHS_DEVICE_RemoteWakeupStop
                0x000000009d020bb4        0x8 build/pic32mz/production/_ext/1783409726/drv_usbhs_device.o
                0x000000009d020bb4                DRV_USBHS_DEVICE_RemoteWakeupStop

.text.DRV_USBHS_DEVICE_SOFNumberGet
                0x000000009d020bbc        0x8
 .text.DRV_USBHS_DEVICE_SOFNumberGet
                0x000000009d020bbc        0x8 build/pic32mz/production/_ext/1783409726/drv_usbhs_device.o
                0x000000009d020bbc                DRV_USBHS_DEVICE_SOFNumberGet

.text.disk_status
                0x000000009d020bc4        0x8
 .text.disk_status
                0x000000009d020bc4        0x8 build/pic32mz/production/_ext/727274963/diskio.o
                0x000000009d020bc4                disk_status

.rodata         0x000000009d020bcc        0x8
 .rodata        0x000000009d020bcc        0x8 build/pic32mz/production/_ext/252936118/sys_fs_media_manager.o
                0x000000009d020bcc                gPartitionTypeOffset

.text.FATFS_tell
                0x000000009d020bd4        0x8
 .text.FATFS_tell
                0x000000009d020bd4        0x8 build/pic32mz/production/_ext/252936118/sys_fs_fat_interface.o
                0x000000009d020bd4                FATFS_tell

.text.FATFS_size
                0x000000009d020bdc        0x8
 .text.FATFS_size
                0x000000009d020bdc        0x8 build/pic32mz/production/_ext/252936118/sys_fs_fat_interface.o
                0x000000009d020bdc                FATFS_size

.text._on_reset
                0x000000009d020be4        0x8
 .text._on_reset
                0x000000009d020be4        0x8 c:/program files/microchip/xc32/v4.00/bin/bin/../../lib/gcc/pic32mx/8.3.1/../../../../pic32mx/lib/fpu64\libpic32.a(default-on-reset.o)
                0x000000009d020be4                _on_reset

.text._on_bootstrap
                0x000000009d020bec        0x8
 .text._on_bootstrap
                0x000000009d020bec        0x8 c:/program files/microchip/xc32/v4.00/bin/bin/../../lib/gcc/pic32mx/8.3.1/../../../../pic32mx/lib/fpu64\libpic32.a(default-on-bootstrap.o)
                0x000000009d020bec                _on_bootstrap

.text.__dummy_fmt4
                0x000000009d020bf4        0x8
 .text.__dummy_fmt4
                0x000000009d020bf4        0x8 c:/program files/microchip/xc32/v4.00/bin/bin/../../lib/gcc/pic32mx/8.3.1/../../../../pic32mx/lib/fpu64\libc-musl.a(__printf_core.o)
                0x000000009d020bf4                __fmt_fp
                0x000000009d020bf4                __fmt_a

.rodata.str1.4  0x000000009d020bfc        0x8
 .rodata.str1.4
                0x000000009d020bfc        0x8 c:/program files/microchip/xc32/v4.00/bin/bin/../../lib/gcc/pic32mx/8.3.1/../../../../pic32mx/lib/fpu64\libc-musl.a(__printf_core.o)

.text.lseek     0x000000009d020c04        0x8
 .text.lseek    0x000000009d020c04        0x8 c:/program files/microchip/xc32/v4.00/bin/bin/../../lib/gcc/pic32mx/8.3.1/../../../../pic32mx/lib/fpu64\libpic32.a(lseek.o)
                0x000000009d020c04                lseek

.text.close     0x000000009d020c0c        0x8
 .text.close    0x000000009d020c0c        0x8 c:/program files/microchip/xc32/v4.00/bin/bin/../../lib/gcc/pic32mx/8.3.1/../../../../pic32mx/lib/fpu64\libpic32.a(close.o)
                0x000000009d020c0c                close
